; ModuleID = 'src//main.cpp'
source_filename = "src//main.cpp"
target datalayout = "e-m:e-i64:64-f80:128-n8:16:32:64-S128"
target triple = "x86_64-unknown-linux-gnu"

%"class.std::ios_base::Init" = type { i8 }
%"class.std::basic_ostream" = type { i32 (...)**, %"class.std::basic_ios" }
%"class.std::basic_ios" = type { %"class.std::ios_base", %"class.std::basic_ostream"*, i8, i8, %"class.std::basic_streambuf"*, %"class.std::ctype"*, %"class.std::num_put"*, %"class.std::num_get"* }
%"class.std::ios_base" = type { i32 (...)**, i64, i64, i32, i32, i32, %"struct.std::ios_base::_Callback_list"*, %"struct.std::ios_base::_Words", [8 x %"struct.std::ios_base::_Words"], i32, %"struct.std::ios_base::_Words"*, %"class.std::locale" }
%"struct.std::ios_base::_Callback_list" = type { %"struct.std::ios_base::_Callback_list"*, void (i32, %"class.std::ios_base"*, i32)*, i32, i32 }
%"struct.std::ios_base::_Words" = type { i8*, i64 }
%"class.std::locale" = type { %"class.std::locale::_Impl"* }
%"class.std::locale::_Impl" = type { i32, %"class.std::locale::facet"**, i64, %"class.std::locale::facet"**, i8** }
%"class.std::locale::facet" = type <{ i32 (...)**, i32, [4 x i8] }>
%"class.std::basic_streambuf" = type { i32 (...)**, i8*, i8*, i8*, i8*, i8*, i8*, %"class.std::locale" }
%"class.std::ctype" = type <{ %"class.std::locale::facet.base", [4 x i8], %struct.__locale_struct*, i8, [7 x i8], i32*, i32*, i16*, i8, [256 x i8], [256 x i8], i8, [6 x i8] }>
%"class.std::locale::facet.base" = type <{ i32 (...)**, i32 }>
%struct.__locale_struct = type { [13 x %struct.__locale_data*], i16*, i32*, i32*, [13 x i8*] }
%struct.__locale_data = type opaque
%"class.std::num_put" = type { %"class.std::locale::facet.base", [4 x i8] }
%"class.std::num_get" = type { %"class.std::locale::facet.base", [4 x i8] }
%class.CBFormat = type { %class.CAmbisonicBase.base, i32, i32, %"class.std::vector", %"class.std::unique_ptr" }
%class.CAmbisonicBase.base = type <{ i32 (...)**, i32, i8, [3 x i8], i32, i8 }>
%"class.std::vector" = type { %"struct.std::_Vector_base" }
%"struct.std::_Vector_base" = type { %"struct.std::_Vector_base<float, std::allocator<float> >::_Vector_impl" }
%"struct.std::_Vector_base<float, std::allocator<float> >::_Vector_impl" = type { float*, float*, float* }
%"class.std::unique_ptr" = type { %"class.std::tuple" }
%"class.std::tuple" = type { %"struct.std::_Tuple_impl" }
%"struct.std::_Tuple_impl" = type { %"struct.std::_Head_base.1" }
%"struct.std::_Head_base.1" = type { float** }
%class.CAmbisonicSource = type { %class.CAmbisonicBase.base, %"class.std::vector", %"class.std::vector", %struct.PolarPoint, float }
%struct.PolarPoint = type { float, float, float }
%class.CAmbisonicEncoder = type { %class.CAmbisonicSource }
%class.CAmbisonicEncoderDist = type { %class.CAmbisonicEncoder, i32, float, i32, i32, float*, i32, i32, i32, float, float, float }
%"class.ILLIXR_AUDIO::Sound" = type { %"class.std::basic_fstream"*, [1024 x float], %class.CBFormat*, %class.CAmbisonicEncoderDist*, %struct.PolarPoint, float, float**, %class.CBFormat**, %class.CAmbisonicEncoderDist** }
%"class.std::basic_fstream" = type { %"class.std::basic_iostream.base", %"class.std::basic_filebuf", %"class.std::basic_ios" }
%"class.std::basic_iostream.base" = type { %"class.std::basic_istream.base", %"class.std::basic_ostream.base" }
%"class.std::basic_istream.base" = type { i32 (...)**, i64 }
%"class.std::basic_ostream.base" = type { i32 (...)** }
%"class.std::basic_filebuf" = type { %"class.std::basic_streambuf", %union.pthread_mutex_t, %"class.std::__basic_file", i32, %struct.__mbstate_t, %struct.__mbstate_t, %struct.__mbstate_t, i8*, i64, i8, i8, i8, i8, i8*, i8*, i8, %"class.std::codecvt"*, i8*, i64, i8*, i8* }
%union.pthread_mutex_t = type { %"struct.(anonymous union)::__pthread_mutex_s" }
%"struct.(anonymous union)::__pthread_mutex_s" = type { i32, i32, i32, i32, i32, i16, i16, %struct.__pthread_internal_list }
%struct.__pthread_internal_list = type { %struct.__pthread_internal_list*, %struct.__pthread_internal_list* }
%"class.std::__basic_file" = type <{ %struct._IO_FILE*, i8, [7 x i8] }>
%struct._IO_FILE = type { i32, i8*, i8*, i8*, i8*, i8*, i8*, i8*, i8*, i8*, i8*, i8*, %struct._IO_marker*, %struct._IO_FILE*, i32, i32, i64, i16, i8, [1 x i8], i8*, i64, i8*, i8*, i8*, i8*, i64, i32, [20 x i8] }
%struct._IO_marker = type { %struct._IO_marker*, %struct._IO_FILE*, i32 }
%struct.__mbstate_t = type { i32, %union.anon }
%union.anon = type { i32 }
%"class.std::codecvt" = type { %"class.std::__codecvt_abstract_base.base", %struct.__locale_struct* }
%"class.std::__codecvt_abstract_base.base" = type { %"class.std::locale::facet.base" }
%"class.std::__cxx11::basic_string" = type { %"struct.std::__cxx11::basic_string<char, std::char_traits<char>, std::allocator<char> >::_Alloc_hider", i64, %union.anon.5 }
%"struct.std::__cxx11::basic_string<char, std::char_traits<char>, std::allocator<char> >::_Alloc_hider" = type { i8* }
%union.anon.5 = type { i64, [8 x i8] }
%"class.ILLIXR_AUDIO::ABAudio" = type { i32, %"class.std::vector.6"*, %"class.std::basic_ofstream"* }
%"class.std::vector.6" = type { %"struct.std::_Vector_base.7" }
%"struct.std::_Vector_base.7" = type { %"struct.std::_Vector_base<ILLIXR_AUDIO::Sound *, std::allocator<ILLIXR_AUDIO::Sound *> >::_Vector_impl" }
%"struct.std::_Vector_base<ILLIXR_AUDIO::Sound *, std::allocator<ILLIXR_AUDIO::Sound *> >::_Vector_impl" = type { %"class.ILLIXR_AUDIO::Sound"**, %"class.ILLIXR_AUDIO::Sound"**, %"class.ILLIXR_AUDIO::Sound"** }
%"class.std::basic_ofstream" = type { %"class.std::basic_ostream.base", %"class.std::basic_filebuf", %"class.std::basic_ios" }
%class.CAmbisonicBase = type <{ i32 (...)**, i32, i8, [3 x i8], i32, i8, [3 x i8] }>
%"struct.std::default_delete" = type { i8 }
%"class.__gnu_cxx::__normal_iterator.11" = type { float* }
%"class.__gnu_cxx::__normal_iterator" = type { float* }
%"class.std::basic_istream" = type { i32 (...)**, i64, %"class.std::basic_ios" }
%"class.std::basic_iostream" = type { %"class.std::basic_istream.base", %"class.std::basic_ostream.base", %"class.std::basic_ios" }
%"struct.ILLIXR_AUDIO::WAVHeader_t" = type { i32, i32, i32, i32, i32, i16, i16, i32, i32, i16, i16, i32, i32 }
%"class.std::allocator.2" = type { i8 }
%"class.__gnu_cxx::new_allocator.3" = type { i8 }
%"class.std::allocator.8" = type { i8 }
%"struct.std::_Tuple_impl.0" = type { i8 }
%"struct.std::_Head_base" = type { i8 }
%"class.std::allocator" = type { i8 }
%"class.__gnu_cxx::new_allocator" = type { i8 }
%"class.std::move_iterator" = type { float* }
%"class.__gnu_cxx::new_allocator.9" = type { i8 }
%"class.std::move_iterator.12" = type { %"class.ILLIXR_AUDIO::Sound"** }

$_ZNSt6vectorIfSaIfEEC2Ev = comdat any

$_ZNSt10unique_ptrIA_PfSt14default_deleteIS1_EEC2Ev = comdat any

$_ZNSt6vectorIfSaIfEE6resizeEm = comdat any

$_ZNSt6vectorIfSaIfEE4dataEv = comdat any

$_ZNSt10unique_ptrIA_PfSt14default_deleteIS1_EE5resetEPS0_ = comdat any

$_ZNSt6vectorIfSaIfEEixEm = comdat any

$_ZNKSt10unique_ptrIA_PfSt14default_deleteIS1_EEixEm = comdat any

$_ZNKSt6vectorIfSaIfEE4dataEv = comdat any

$_ZNSt6vectorIfSaIfEE6resizeEmRKf = comdat any

$__clang_call_terminate = comdat any

$_ZStorSt13_Ios_OpenmodeS_ = comdat any

$_ZNSt6vectorIPN12ILLIXR_AUDIO5SoundESaIS2_EEC2Ev = comdat any

$_ZNKSt6vectorIPN12ILLIXR_AUDIO5SoundESaIS2_EE4sizeEv = comdat any

$_ZNSt6vectorIPN12ILLIXR_AUDIO5SoundESaIS2_EEixEm = comdat any

$_ZNSt6vectorIPN12ILLIXR_AUDIO5SoundESaIS2_EE9push_backERKS2_ = comdat any

$_ZN8CBFormatD2Ev = comdat any

$_ZN12ILLIXR_AUDIO11WAVHeader_tC2Ev = comdat any

$_ZN14CAmbisonicBaseD2Ev = comdat any

$_ZN14CAmbisonicBaseD0Ev = comdat any

$_ZN8CBFormatD0Ev = comdat any

$_ZN16CAmbisonicSourceD2Ev = comdat any

$_ZN16CAmbisonicSourceD0Ev = comdat any

$_ZNSt5tupleIJPPfSt14default_deleteIA_S0_EEEC2Ev = comdat any

$_ZNSt11_Tuple_implILm0EJPPfSt14default_deleteIA_S0_EEEC2Ev = comdat any

$_ZNSt11_Tuple_implILm1EJSt14default_deleteIA_PfEEEC2Ev = comdat any

$_ZNSt10_Head_baseILm0EPPfLb0EEC2Ev = comdat any

$_ZNSt10_Head_baseILm1ESt14default_deleteIA_PfELb1EEC2Ev = comdat any

$_ZNSt6vectorIfSaIfEED2Ev = comdat any

$_ZSt8_DestroyIPffEvT_S1_RSaIT0_E = comdat any

$_ZNSt12_Vector_baseIfSaIfEE19_M_get_Tp_allocatorEv = comdat any

$_ZNSt12_Vector_baseIfSaIfEED2Ev = comdat any

$_ZSt8_DestroyIPfEvT_S1_ = comdat any

$_ZNSt12_Destroy_auxILb1EE9__destroyIPfEEvT_S3_ = comdat any

$_ZNSt12_Vector_baseIfSaIfEE13_M_deallocateEPfm = comdat any

$_ZN9__gnu_cxx13new_allocatorIfED2Ev = comdat any

$_ZNSt16allocator_traitsISaIfEE10deallocateERS0_Pfm = comdat any

$_ZN9__gnu_cxx13new_allocatorIfE10deallocateEPfm = comdat any

$_ZNSt10unique_ptrIA_PfSt14default_deleteIS1_EED2Ev = comdat any

$_ZSt3getILm0EJPPfSt14default_deleteIA_S0_EEERNSt13tuple_elementIXT_ESt5tupleIJDpT0_EEE4typeERS9_ = comdat any

$_ZNSt10unique_ptrIA_PfSt14default_deleteIS1_EE11get_deleterEv = comdat any

$_ZNKSt14default_deleteIA_PfEclEPS0_ = comdat any

$_ZSt12__get_helperILm0EPPfJSt14default_deleteIA_S0_EEERT0_RSt11_Tuple_implIXT_EJS5_DpT1_EE = comdat any

$_ZNSt11_Tuple_implILm0EJPPfSt14default_deleteIA_S0_EEE7_M_headERS5_ = comdat any

$_ZNSt10_Head_baseILm0EPPfLb0EE7_M_headERS2_ = comdat any

$_ZSt3getILm1EJPPfSt14default_deleteIA_S0_EEERNSt13tuple_elementIXT_ESt5tupleIJDpT0_EEE4typeERS9_ = comdat any

$_ZSt12__get_helperILm1ESt14default_deleteIA_PfEJEERT0_RSt11_Tuple_implIXT_EJS4_DpT1_EE = comdat any

$_ZNSt11_Tuple_implILm1EJSt14default_deleteIA_PfEEE7_M_headERS4_ = comdat any

$_ZNSt10_Head_baseILm1ESt14default_deleteIA_PfELb1EE7_M_headERS4_ = comdat any

$_ZN9__gnu_cxx13new_allocatorIcEC2Ev = comdat any

$_ZN9__gnu_cxx13new_allocatorIcED2Ev = comdat any

$_ZNSt14pointer_traitsIPKcE10pointer_toERS0_ = comdat any

$_ZSt9addressofIKcEPT_RS1_ = comdat any

$_ZSt11__addressofIKcEPT_RS1_ = comdat any

$_ZNSt16allocator_traitsISaIcEE10deallocateERS0_Pcm = comdat any

$_ZN9__gnu_cxx13new_allocatorIcE10deallocateEPcm = comdat any

$_ZNSt12_Vector_baseIfSaIfEEC2Ev = comdat any

$_ZNSt12_Vector_baseIfSaIfEE12_Vector_implC2Ev = comdat any

$_ZNSaIfEC2Ev = comdat any

$_ZN9__gnu_cxx13new_allocatorIfEC2Ev = comdat any

$_ZNKSt6vectorIfSaIfEE4sizeEv = comdat any

$_ZNSt6vectorIfSaIfEE17_M_default_appendEm = comdat any

$_ZNSt6vectorIfSaIfEE15_M_erase_at_endEPf = comdat any

$_ZSt27__uninitialized_default_n_aIPfmfET_S1_T0_RSaIT1_E = comdat any

$_ZNKSt6vectorIfSaIfEE12_M_check_lenEmPKc = comdat any

$_ZNSt12_Vector_baseIfSaIfEE11_M_allocateEm = comdat any

$_ZSt34__uninitialized_move_if_noexcept_aIPfS0_SaIfEET0_T_S3_S2_RT1_ = comdat any

$_ZSt25__uninitialized_default_nIPfmET_S1_T0_ = comdat any

$_ZNSt27__uninitialized_default_n_1ILb1EE18__uninit_default_nIPfmEET_S3_T0_ = comdat any

$_ZSt6fill_nIPfmfET_S1_T0_RKT1_ = comdat any

$_ZSt10__fill_n_aIPfmfEN9__gnu_cxx11__enable_ifIXsr11__is_scalarIT1_EE7__valueET_E6__typeES4_T0_RKS3_ = comdat any

$_ZSt12__niter_baseIPfENSt11_Niter_baseIT_E13iterator_typeES2_ = comdat any

$_ZNSt10_Iter_baseIPfLb0EE7_S_baseES0_ = comdat any

$_ZNKSt6vectorIfSaIfEE8max_sizeEv = comdat any

$_ZSt3maxImERKT_S2_S2_ = comdat any

$_ZNSt16allocator_traitsISaIfEE8max_sizeERKS0_ = comdat any

$_ZNKSt12_Vector_baseIfSaIfEE19_M_get_Tp_allocatorEv = comdat any

$_ZNK9__gnu_cxx13new_allocatorIfE8max_sizeEv = comdat any

$_ZNSt16allocator_traitsISaIfEE8allocateERS0_m = comdat any

$_ZN9__gnu_cxx13new_allocatorIfE8allocateEmPKv = comdat any

$_ZSt22__uninitialized_copy_aISt13move_iteratorIPfES1_fET0_T_S4_S3_RSaIT1_E = comdat any

$_ZSt32__make_move_if_noexcept_iteratorIPfSt13move_iteratorIS0_EET0_T_ = comdat any

$_ZSt18uninitialized_copyISt13move_iteratorIPfES1_ET0_T_S4_S3_ = comdat any

$_ZNSt20__uninitialized_copyILb1EE13__uninit_copyISt13move_iteratorIPfES3_EET0_T_S6_S5_ = comdat any

$_ZSt4copyISt13move_iteratorIPfES1_ET0_T_S4_S3_ = comdat any

$_ZSt14__copy_move_a2ILb1EPfS0_ET1_T0_S2_S1_ = comdat any

$_ZSt12__miter_baseISt13move_iteratorIPfEENSt11_Miter_baseIT_E13iterator_typeES4_ = comdat any

$_ZSt13__copy_move_aILb1EPfS0_ET1_T0_S2_S1_ = comdat any

$_ZNSt11__copy_moveILb1ELb1ESt26random_access_iterator_tagE8__copy_mIfEEPT_PKS3_S6_S4_ = comdat any

$_ZNSt10_Iter_baseISt13move_iteratorIPfELb1EE7_S_baseES2_ = comdat any

$_ZNKSt13move_iteratorIPfE4baseEv = comdat any

$_ZNSt13move_iteratorIPfEC2ES0_ = comdat any

$_ZNKSt6vectorIfSaIfEE11_M_data_ptrIfEEPT_S4_ = comdat any

$_ZSt4swapIPPfEvRT_S3_ = comdat any

$_ZSt4moveIRPPfEONSt16remove_referenceIT_E4typeEOS4_ = comdat any

$_ZNKSt10unique_ptrIA_PfSt14default_deleteIS1_EE3getEv = comdat any

$_ZSt3getILm0EJPPfSt14default_deleteIA_S0_EEERKNSt13tuple_elementIXT_ESt5tupleIJDpT0_EEE4typeERKS9_ = comdat any

$_ZSt12__get_helperILm0EPPfJSt14default_deleteIA_S0_EEERKT0_RKSt11_Tuple_implIXT_EJS5_DpT1_EE = comdat any

$_ZNSt11_Tuple_implILm0EJPPfSt14default_deleteIA_S0_EEE7_M_headERKS5_ = comdat any

$_ZNSt10_Head_baseILm0EPPfLb0EE7_M_headERKS2_ = comdat any

$_ZNSt6vectorIfSaIfEE6insertEN9__gnu_cxx17__normal_iteratorIPKfS1_EEmRS4_ = comdat any

$_ZNSt6vectorIfSaIfEE3endEv = comdat any

$_ZN9__gnu_cxx17__normal_iteratorIPKfSt6vectorIfSaIfEEEC2IPfEERKNS0_IT_NS_11__enable_ifIXsr3std10__are_sameIS9_S8_EE7__valueES5_E6__typeEEE = comdat any

$_ZN9__gnu_cxxmiIPKfSt6vectorIfSaIfEEEENS_17__normal_iteratorIT_T0_E15difference_typeERKS9_SC_ = comdat any

$_ZNKSt6vectorIfSaIfEE6cbeginEv = comdat any

$_ZNSt6vectorIfSaIfEE14_M_fill_insertEN9__gnu_cxx17__normal_iteratorIPfS1_EEmRKf = comdat any

$_ZNSt6vectorIfSaIfEE5beginEv = comdat any

$_ZNK9__gnu_cxx17__normal_iteratorIPfSt6vectorIfSaIfEEEplEl = comdat any

$_ZNK9__gnu_cxx17__normal_iteratorIPKfSt6vectorIfSaIfEEE4baseEv = comdat any

$_ZN9__gnu_cxx17__normal_iteratorIPKfSt6vectorIfSaIfEEEC2ERKS2_ = comdat any

$_ZN9__gnu_cxxmiIPfSt6vectorIfSaIfEEEENS_17__normal_iteratorIT_T0_E15difference_typeERKS8_SB_ = comdat any

$_ZSt22__uninitialized_move_aIPfS0_SaIfEET0_T_S3_S2_RT1_ = comdat any

$_ZSt13move_backwardIPfS0_ET0_T_S2_S1_ = comdat any

$_ZNK9__gnu_cxx17__normal_iteratorIPfSt6vectorIfSaIfEEE4baseEv = comdat any

$_ZSt4fillIPffEvT_S1_RKT0_ = comdat any

$_ZSt24__uninitialized_fill_n_aIPfmffET_S1_T0_RKT1_RSaIT2_E = comdat any

$_ZSt18make_move_iteratorIPfESt13move_iteratorIT_ES2_ = comdat any

$_ZSt23__copy_move_backward_a2ILb1EPfS0_ET1_T0_S2_S1_ = comdat any

$_ZSt12__miter_baseIPfENSt11_Miter_baseIT_E13iterator_typeES2_ = comdat any

$_ZSt22__copy_move_backward_aILb1EPfS0_ET1_T0_S2_S1_ = comdat any

$_ZNSt20__copy_move_backwardILb1ELb1ESt26random_access_iterator_tagE13__copy_move_bIfEEPT_PKS3_S6_S4_ = comdat any

$_ZSt8__fill_aIPffEN9__gnu_cxx11__enable_ifIXsr11__is_scalarIT0_EE7__valueEvE6__typeET_S6_RKS3_ = comdat any

$_ZSt20uninitialized_fill_nIPfmfET_S1_T0_RKT1_ = comdat any

$_ZNSt22__uninitialized_fill_nILb1EE15__uninit_fill_nIPfmfEET_S3_T0_RKT1_ = comdat any

$_ZN9__gnu_cxx17__normal_iteratorIPfSt6vectorIfSaIfEEEC2ERKS1_ = comdat any

$_ZStorSt12_Ios_IostateS_ = comdat any

$_ZNSt12_Vector_baseIPN12ILLIXR_AUDIO5SoundESaIS2_EEC2Ev = comdat any

$_ZNSt12_Vector_baseIPN12ILLIXR_AUDIO5SoundESaIS2_EE12_Vector_implC2Ev = comdat any

$_ZNSaIPN12ILLIXR_AUDIO5SoundEEC2Ev = comdat any

$_ZN9__gnu_cxx13new_allocatorIPN12ILLIXR_AUDIO5SoundEEC2Ev = comdat any

$_ZNSt7__cxx1112basic_stringIcSt11char_traitsIcESaIcEE12_M_constructIPKcEEvT_S8_ = comdat any

$_ZNSt11char_traitsIcE6lengthEPKc = comdat any

$_ZNSt14pointer_traitsIPcE10pointer_toERc = comdat any

$_ZSt9addressofIcEPT_RS0_ = comdat any

$_ZSt11__addressofIcEPT_RS0_ = comdat any

$_ZN9__gnu_cxx13new_allocatorIcEC2ERKS1_ = comdat any

$_ZNSt7__cxx1112basic_stringIcSt11char_traitsIcESaIcEE16_M_construct_auxIPKcEEvT_S8_St12__false_type = comdat any

$_ZNSt7__cxx1112basic_stringIcSt11char_traitsIcESaIcEE12_M_constructIPKcEEvT_S8_St20forward_iterator_tag = comdat any

$_ZN9__gnu_cxx17__is_null_pointerIKcEEbPT_ = comdat any

$_ZSt8distanceIPKcENSt15iterator_traitsIT_E15difference_typeES3_S3_ = comdat any

$_ZSt10__distanceIPKcENSt15iterator_traitsIT_E15difference_typeES3_S3_St26random_access_iterator_tag = comdat any

$_ZSt19__iterator_categoryIPKcENSt15iterator_traitsIT_E17iterator_categoryERKS3_ = comdat any

$_ZNSt11char_traitsIcE6assignERcRKc = comdat any

$_ZNSt11char_traitsIcE4copyEPcPKcm = comdat any

$_ZNSt16allocator_traitsISaIPN12ILLIXR_AUDIO5SoundEEE9constructIS2_JRKS2_EEEvRS3_PT_DpOT0_ = comdat any

$_ZNSt6vectorIPN12ILLIXR_AUDIO5SoundESaIS2_EE19_M_emplace_back_auxIJRKS2_EEEvDpOT_ = comdat any

$_ZN9__gnu_cxx13new_allocatorIPN12ILLIXR_AUDIO5SoundEE9constructIS3_JRKS3_EEEvPT_DpOT0_ = comdat any

$_ZSt7forwardIRKPN12ILLIXR_AUDIO5SoundEEOT_RNSt16remove_referenceIS5_E4typeE = comdat any

$_ZNKSt6vectorIPN12ILLIXR_AUDIO5SoundESaIS2_EE12_M_check_lenEmPKc = comdat any

$_ZNSt12_Vector_baseIPN12ILLIXR_AUDIO5SoundESaIS2_EE11_M_allocateEm = comdat any

$_ZSt34__uninitialized_move_if_noexcept_aIPPN12ILLIXR_AUDIO5SoundES3_SaIS2_EET0_T_S6_S5_RT1_ = comdat any

$_ZNSt12_Vector_baseIPN12ILLIXR_AUDIO5SoundESaIS2_EE19_M_get_Tp_allocatorEv = comdat any

$_ZNSt16allocator_traitsISaIPN12ILLIXR_AUDIO5SoundEEE7destroyIS2_EEvRS3_PT_ = comdat any

$_ZSt8_DestroyIPPN12ILLIXR_AUDIO5SoundES2_EvT_S4_RSaIT0_E = comdat any

$_ZNSt12_Vector_baseIPN12ILLIXR_AUDIO5SoundESaIS2_EE13_M_deallocateEPS2_m = comdat any

$_ZNKSt6vectorIPN12ILLIXR_AUDIO5SoundESaIS2_EE8max_sizeEv = comdat any

$_ZNSt16allocator_traitsISaIPN12ILLIXR_AUDIO5SoundEEE8max_sizeERKS3_ = comdat any

$_ZNKSt12_Vector_baseIPN12ILLIXR_AUDIO5SoundESaIS2_EE19_M_get_Tp_allocatorEv = comdat any

$_ZNK9__gnu_cxx13new_allocatorIPN12ILLIXR_AUDIO5SoundEE8max_sizeEv = comdat any

$_ZNSt16allocator_traitsISaIPN12ILLIXR_AUDIO5SoundEEE8allocateERS3_m = comdat any

$_ZN9__gnu_cxx13new_allocatorIPN12ILLIXR_AUDIO5SoundEE8allocateEmPKv = comdat any

$_ZSt22__uninitialized_copy_aISt13move_iteratorIPPN12ILLIXR_AUDIO5SoundEES4_S3_ET0_T_S7_S6_RSaIT1_E = comdat any

$_ZSt32__make_move_if_noexcept_iteratorIPPN12ILLIXR_AUDIO5SoundESt13move_iteratorIS3_EET0_T_ = comdat any

$_ZSt18uninitialized_copyISt13move_iteratorIPPN12ILLIXR_AUDIO5SoundEES4_ET0_T_S7_S6_ = comdat any

$_ZNSt20__uninitialized_copyILb1EE13__uninit_copyISt13move_iteratorIPPN12ILLIXR_AUDIO5SoundEES6_EET0_T_S9_S8_ = comdat any

$_ZSt4copyISt13move_iteratorIPPN12ILLIXR_AUDIO5SoundEES4_ET0_T_S7_S6_ = comdat any

$_ZSt14__copy_move_a2ILb1EPPN12ILLIXR_AUDIO5SoundES3_ET1_T0_S5_S4_ = comdat any

$_ZSt12__miter_baseISt13move_iteratorIPPN12ILLIXR_AUDIO5SoundEEENSt11_Miter_baseIT_E13iterator_typeES7_ = comdat any

$_ZSt13__copy_move_aILb1EPPN12ILLIXR_AUDIO5SoundES3_ET1_T0_S5_S4_ = comdat any

$_ZSt12__niter_baseIPPN12ILLIXR_AUDIO5SoundEENSt11_Niter_baseIT_E13iterator_typeES5_ = comdat any

$_ZNSt11__copy_moveILb1ELb1ESt26random_access_iterator_tagE8__copy_mIPN12ILLIXR_AUDIO5SoundEEEPT_PKS6_S9_S7_ = comdat any

$_ZNSt10_Iter_baseIPPN12ILLIXR_AUDIO5SoundELb0EE7_S_baseES3_ = comdat any

$_ZNSt10_Iter_baseISt13move_iteratorIPPN12ILLIXR_AUDIO5SoundEELb1EE7_S_baseES5_ = comdat any

$_ZNKSt13move_iteratorIPPN12ILLIXR_AUDIO5SoundEE4baseEv = comdat any

$_ZNSt13move_iteratorIPPN12ILLIXR_AUDIO5SoundEEC2ES3_ = comdat any

$_ZN9__gnu_cxx13new_allocatorIPN12ILLIXR_AUDIO5SoundEE7destroyIS3_EEvPT_ = comdat any

$_ZSt8_DestroyIPPN12ILLIXR_AUDIO5SoundEEvT_S4_ = comdat any

$_ZNSt12_Destroy_auxILb1EE9__destroyIPPN12ILLIXR_AUDIO5SoundEEEvT_S6_ = comdat any

$_ZNSt16allocator_traitsISaIPN12ILLIXR_AUDIO5SoundEEE10deallocateERS3_PS2_m = comdat any

$_ZN9__gnu_cxx13new_allocatorIPN12ILLIXR_AUDIO5SoundEE10deallocateEPS3_m = comdat any

@_ZStL8__ioinit = internal global %"class.std::ios_base::Init" zeroinitializer, align 1, !dbg !0
@__dso_handle = external hidden global i8
@_ZTV14CAmbisonicBase = unnamed_addr constant { [7 x i8*] } { [7 x i8*] [i8* null, i8* bitcast ({ i8*, i8* }* @_ZTI14CAmbisonicBase to i8*), i8* bitcast (void (%class.CAmbisonicBase*)* @_ZN14CAmbisonicBaseD2Ev to i8*), i8* bitcast (void (%class.CAmbisonicBase*)* @_ZN14CAmbisonicBaseD0Ev to i8*), i8* bitcast (i1 (%class.CAmbisonicBase*, i32, i1, i32)* @_ZN14CAmbisonicBase9ConfigureEjbj to i8*), i8* bitcast (void ()* @__cxa_pure_virtual to i8*), i8* bitcast (void ()* @__cxa_pure_virtual to i8*)] }, align 8
@_ZTV8CBFormat = unnamed_addr constant { [7 x i8*] } { [7 x i8*] [i8* null, i8* bitcast ({ i8*, i8*, i8* }* @_ZTI8CBFormat to i8*), i8* bitcast (void (%class.CBFormat*)* @_ZN8CBFormatD2Ev to i8*), i8* bitcast (void (%class.CBFormat*)* @_ZN8CBFormatD0Ev to i8*), i8* bitcast (i1 (%class.CBFormat*, i32, i1, i32)* @_ZN8CBFormat9ConfigureEjbj to i8*), i8* bitcast (void (%class.CBFormat*)* @_ZN8CBFormat5ResetEv to i8*), i8* bitcast (void (%class.CBFormat*)* @_ZN8CBFormat7RefreshEv to i8*)] }, align 8
@_ZTV16CAmbisonicSource = unnamed_addr constant { [16 x i8*] } { [16 x i8*] [i8* null, i8* bitcast ({ i8*, i8*, i8* }* @_ZTI16CAmbisonicSource to i8*), i8* bitcast (void (%class.CAmbisonicSource*)* @_ZN16CAmbisonicSourceD2Ev to i8*), i8* bitcast (void (%class.CAmbisonicSource*)* @_ZN16CAmbisonicSourceD0Ev to i8*), i8* bitcast (i1 (%class.CAmbisonicSource*, i32, i1, i32)* @_ZN16CAmbisonicSource9ConfigureEjbj to i8*), i8* bitcast (void (%class.CAmbisonicSource*)* @_ZN16CAmbisonicSource5ResetEv to i8*), i8* bitcast (void (%class.CAmbisonicSource*)* @_ZN16CAmbisonicSource7RefreshEv to i8*), i8* bitcast (void (%class.CAmbisonicSource*, <2 x float>, float)* @_ZN16CAmbisonicSource11SetPositionE10PolarPoint to i8*), i8* bitcast ({ <2 x float>, float } (%class.CAmbisonicSource*)* @_ZN16CAmbisonicSource11GetPositionEv to i8*), i8* bitcast (void (%class.CAmbisonicSource*, i32, float)* @_ZN16CAmbisonicSource14SetOrderWeightEjf to i8*), i8* bitcast (void (%class.CAmbisonicSource*, float)* @_ZN16CAmbisonicSource17SetOrderWeightAllEf to i8*), i8* bitcast (void (%class.CAmbisonicSource*, i32, float)* @_ZN16CAmbisonicSource14SetCoefficientEjf to i8*), i8* bitcast (float (%class.CAmbisonicSource*, i32)* @_ZN16CAmbisonicSource14GetOrderWeightEj to i8*), i8* bitcast (float (%class.CAmbisonicSource*, i32)* @_ZN16CAmbisonicSource14GetCoefficientEj to i8*), i8* bitcast (void (%class.CAmbisonicSource*, float)* @_ZN16CAmbisonicSource7SetGainEf to i8*), i8* bitcast (float (%class.CAmbisonicSource*)* @_ZN16CAmbisonicSource7GetGainEv to i8*)] }, align 8
@_ZTV17CAmbisonicEncoder = unnamed_addr constant { [16 x i8*] } { [16 x i8*] [i8* null, i8* bitcast ({ i8*, i8*, i8* }* @_ZTI17CAmbisonicEncoder to i8*), i8* bitcast (void (%class.CAmbisonicEncoder*)* @_ZN17CAmbisonicEncoderD2Ev to i8*), i8* bitcast (void (%class.CAmbisonicEncoder*)* @_ZN17CAmbisonicEncoderD0Ev to i8*), i8* bitcast (i1 (%class.CAmbisonicEncoder*, i32, i1, i32)* @_ZN17CAmbisonicEncoder9ConfigureEjbj to i8*), i8* bitcast (void (%class.CAmbisonicSource*)* @_ZN16CAmbisonicSource5ResetEv to i8*), i8* bitcast (void (%class.CAmbisonicEncoder*)* @_ZN17CAmbisonicEncoder7RefreshEv to i8*), i8* bitcast (void (%class.CAmbisonicSource*, <2 x float>, float)* @_ZN16CAmbisonicSource11SetPositionE10PolarPoint to i8*), i8* bitcast ({ <2 x float>, float } (%class.CAmbisonicSource*)* @_ZN16CAmbisonicSource11GetPositionEv to i8*), i8* bitcast (void (%class.CAmbisonicSource*, i32, float)* @_ZN16CAmbisonicSource14SetOrderWeightEjf to i8*), i8* bitcast (void (%class.CAmbisonicSource*, float)* @_ZN16CAmbisonicSource17SetOrderWeightAllEf to i8*), i8* bitcast (void (%class.CAmbisonicSource*, i32, float)* @_ZN16CAmbisonicSource14SetCoefficientEjf to i8*), i8* bitcast (float (%class.CAmbisonicSource*, i32)* @_ZN16CAmbisonicSource14GetOrderWeightEj to i8*), i8* bitcast (float (%class.CAmbisonicSource*, i32)* @_ZN16CAmbisonicSource14GetCoefficientEj to i8*), i8* bitcast (void (%class.CAmbisonicSource*, float)* @_ZN16CAmbisonicSource7SetGainEf to i8*), i8* bitcast (float (%class.CAmbisonicSource*)* @_ZN16CAmbisonicSource7GetGainEv to i8*)] }, align 8
@_ZTV21CAmbisonicEncoderDist = unnamed_addr constant { [16 x i8*] } { [16 x i8*] [i8* null, i8* bitcast ({ i8*, i8*, i8* }* @_ZTI21CAmbisonicEncoderDist to i8*), i8* bitcast (void (%class.CAmbisonicEncoderDist*)* @_ZN21CAmbisonicEncoderDistD2Ev to i8*), i8* bitcast (void (%class.CAmbisonicEncoderDist*)* @_ZN21CAmbisonicEncoderDistD0Ev to i8*), i8* bitcast (i1 (%class.CAmbisonicEncoderDist*, i32, i1, i32)* @_ZN21CAmbisonicEncoderDist9ConfigureEjbj to i8*), i8* bitcast (void (%class.CAmbisonicEncoderDist*)* @_ZN21CAmbisonicEncoderDist5ResetEv to i8*), i8* bitcast (void (%class.CAmbisonicEncoderDist*)* @_ZN21CAmbisonicEncoderDist7RefreshEv to i8*), i8* bitcast (void (%class.CAmbisonicSource*, <2 x float>, float)* @_ZN16CAmbisonicSource11SetPositionE10PolarPoint to i8*), i8* bitcast ({ <2 x float>, float } (%class.CAmbisonicSource*)* @_ZN16CAmbisonicSource11GetPositionEv to i8*), i8* bitcast (void (%class.CAmbisonicSource*, i32, float)* @_ZN16CAmbisonicSource14SetOrderWeightEjf to i8*), i8* bitcast (void (%class.CAmbisonicSource*, float)* @_ZN16CAmbisonicSource17SetOrderWeightAllEf to i8*), i8* bitcast (void (%class.CAmbisonicSource*, i32, float)* @_ZN16CAmbisonicSource14SetCoefficientEjf to i8*), i8* bitcast (float (%class.CAmbisonicSource*, i32)* @_ZN16CAmbisonicSource14GetOrderWeightEj to i8*), i8* bitcast (float (%class.CAmbisonicSource*, i32)* @_ZN16CAmbisonicSource14GetCoefficientEj to i8*), i8* bitcast (void (%class.CAmbisonicSource*, float)* @_ZN16CAmbisonicSource7SetGainEf to i8*), i8* bitcast (float (%class.CAmbisonicSource*)* @_ZN16CAmbisonicSource7GetGainEv to i8*)] }, align 8
@.str = private unnamed_addr constant [26 x i8] c"samples/lectureSample.wav\00", align 1
@.str.1 = private unnamed_addr constant [29 x i8] c"samples/radioMusicSample.wav\00", align 1
@_ZSt4cout = external global %"class.std::basic_ostream", align 8
@.str.6 = private unnamed_addr constant [8 x i8] c"Usage: \00", align 1
@.str.7 = private unnamed_addr constant [42 x i8] c" <number of size 1024 blocks to process> \00", align 1
@.str.8 = private unnamed_addr constant [27 x i8] c"<optional: encode/decode>\0A\00", align 1
@.str.9 = private unnamed_addr constant [122 x i8] c"Note: If you want to hear the output sound, limit the process sample blocks so that the output is not longer than input!\0A\00", align 1
@.str.10 = private unnamed_addr constant [7 x i8] c"encode\00", align 1
@.str.11 = private unnamed_addr constant [11 x i8] c"output.wav\00", align 1
@_ZTVN10__cxxabiv117__class_type_infoE = external global i8*
@_ZTS14CAmbisonicBase = constant [17 x i8] c"14CAmbisonicBase\00", align 1
@_ZTI14CAmbisonicBase = constant { i8*, i8* } { i8* bitcast (i8** getelementptr inbounds (i8*, i8** @_ZTVN10__cxxabiv117__class_type_infoE, i64 2) to i8*), i8* getelementptr inbounds ([17 x i8], [17 x i8]* @_ZTS14CAmbisonicBase, i32 0, i32 0) }, align 8
@_ZTVN10__cxxabiv120__si_class_type_infoE = external global i8*
@_ZTS8CBFormat = constant [10 x i8] c"8CBFormat\00", align 1
@_ZTI8CBFormat = constant { i8*, i8*, i8* } { i8* bitcast (i8** getelementptr inbounds (i8*, i8** @_ZTVN10__cxxabiv120__si_class_type_infoE, i64 2) to i8*), i8* getelementptr inbounds ([10 x i8], [10 x i8]* @_ZTS8CBFormat, i32 0, i32 0), i8* bitcast ({ i8*, i8* }* @_ZTI14CAmbisonicBase to i8*) }, align 8
@_ZTS16CAmbisonicSource = constant [19 x i8] c"16CAmbisonicSource\00", align 1
@_ZTI16CAmbisonicSource = constant { i8*, i8*, i8* } { i8* bitcast (i8** getelementptr inbounds (i8*, i8** @_ZTVN10__cxxabiv120__si_class_type_infoE, i64 2) to i8*), i8* getelementptr inbounds ([19 x i8], [19 x i8]* @_ZTS16CAmbisonicSource, i32 0, i32 0), i8* bitcast ({ i8*, i8* }* @_ZTI14CAmbisonicBase to i8*) }, align 8
@_ZTS17CAmbisonicEncoder = constant [20 x i8] c"17CAmbisonicEncoder\00", align 1
@_ZTI17CAmbisonicEncoder = constant { i8*, i8*, i8* } { i8* bitcast (i8** getelementptr inbounds (i8*, i8** @_ZTVN10__cxxabiv120__si_class_type_infoE, i64 2) to i8*), i8* getelementptr inbounds ([20 x i8], [20 x i8]* @_ZTS17CAmbisonicEncoder, i32 0, i32 0), i8* bitcast ({ i8*, i8*, i8* }* @_ZTI16CAmbisonicSource to i8*) }, align 8
@_ZTS21CAmbisonicEncoderDist = constant [24 x i8] c"21CAmbisonicEncoderDist\00", align 1
@_ZTI21CAmbisonicEncoderDist = constant { i8*, i8*, i8* } { i8* bitcast (i8** getelementptr inbounds (i8*, i8** @_ZTVN10__cxxabiv120__si_class_type_infoE, i64 2) to i8*), i8* getelementptr inbounds ([24 x i8], [24 x i8]* @_ZTS21CAmbisonicEncoderDist, i32 0, i32 0), i8* bitcast ({ i8*, i8*, i8* }* @_ZTI17CAmbisonicEncoder to i8*) }, align 8
@.str.12 = private unnamed_addr constant [26 x i8] c"vector::_M_default_append\00", align 1
@.str.13 = private unnamed_addr constant [23 x i8] c"vector::_M_fill_insert\00", align 1
@_ZTVSt13basic_fstreamIcSt11char_traitsIcEE = external unnamed_addr constant { [5 x i8*], [5 x i8*], [5 x i8*] }, align 8
@_ZTTSt13basic_fstreamIcSt11char_traitsIcEE = external unnamed_addr constant [10 x i8*], align 8
@_ZTVSt9basic_iosIcSt11char_traitsIcEE = external unnamed_addr constant { [4 x i8*] }, align 8
@_ZTVSt13basic_filebufIcSt11char_traitsIcEE = external unnamed_addr constant { [16 x i8*] }, align 8
@_ZTVSt15basic_streambufIcSt11char_traitsIcEE = external unnamed_addr constant { [16 x i8*] }, align 8
@_ZTVSt14basic_ofstreamIcSt11char_traitsIcEE = external unnamed_addr constant { [5 x i8*], [5 x i8*] }, align 8
@_ZTTSt14basic_ofstreamIcSt11char_traitsIcEE = external unnamed_addr constant [4 x i8*], align 8
@.str.14 = private unnamed_addr constant [42 x i8] c"basic_string::_M_construct null not valid\00", align 1
@.str.15 = private unnamed_addr constant [28 x i8] c"vector::_M_emplace_back_aux\00", align 1
@llvm.global_ctors = appending global [1 x { i32, void ()*, i8* }] [{ i32, void ()*, i8* } { i32 65535, void ()* @_GLOBAL__sub_I_main.cpp, i8* null }]
@str = private unnamed_addr constant [37 x i8] c"\0A\0ALaunching audio encoding pipeline!\00", align 1
@str.16 = private unnamed_addr constant [32 x i8] c"\0A\0APipeline execution completed!\00", align 1
@str.17 = private unnamed_addr constant [21 x i8] c"\0A\0ARequesting memory!\00", align 1
@str.18 = private unnamed_addr constant [26 x i8] c"\0A\0ADone requesting memory!\00", align 1

@_ZN8CBFormatC1Ev = unnamed_addr alias void (%class.CBFormat*), void (%class.CBFormat*)* @_ZN8CBFormatC2Ev
@_ZN16CAmbisonicSourceC1Ev = unnamed_addr alias void (%class.CAmbisonicSource*), void (%class.CAmbisonicSource*)* @_ZN16CAmbisonicSourceC2Ev
@_ZN17CAmbisonicEncoderC1Ev = unnamed_addr alias void (%class.CAmbisonicEncoder*), void (%class.CAmbisonicEncoder*)* @_ZN17CAmbisonicEncoderC2Ev
@_ZN17CAmbisonicEncoderD1Ev = unnamed_addr alias void (%class.CAmbisonicEncoder*), void (%class.CAmbisonicEncoder*)* @_ZN17CAmbisonicEncoderD2Ev
@_ZN21CAmbisonicEncoderDistC1Ev = unnamed_addr alias void (%class.CAmbisonicEncoderDist*), void (%class.CAmbisonicEncoderDist*)* @_ZN21CAmbisonicEncoderDistC2Ev
@_ZN21CAmbisonicEncoderDistD1Ev = unnamed_addr alias void (%class.CAmbisonicEncoderDist*), void (%class.CAmbisonicEncoderDist*)* @_ZN21CAmbisonicEncoderDistD2Ev
@_ZN12ILLIXR_AUDIO5SoundC1ENSt7__cxx1112basic_stringIcSt11char_traitsIcESaIcEEEjb = unnamed_addr alias void (%"class.ILLIXR_AUDIO::Sound"*, %"class.std::__cxx11::basic_string"*, i32, i1), void (%"class.ILLIXR_AUDIO::Sound"*, %"class.std::__cxx11::basic_string"*, i32, i1)* @_ZN12ILLIXR_AUDIO5SoundC2ENSt7__cxx1112basic_stringIcSt11char_traitsIcESaIcEEEjb
@_ZN12ILLIXR_AUDIO5SoundD1Ev = unnamed_addr alias void (%"class.ILLIXR_AUDIO::Sound"*), void (%"class.ILLIXR_AUDIO::Sound"*)* @_ZN12ILLIXR_AUDIO5SoundD2Ev
@_ZN12ILLIXR_AUDIO7ABAudioC1ENSt7__cxx1112basic_stringIcSt11char_traitsIcESaIcEEENS0_11ProcessTypeE = unnamed_addr alias void (%"class.ILLIXR_AUDIO::ABAudio"*, %"class.std::__cxx11::basic_string"*, i32), void (%"class.ILLIXR_AUDIO::ABAudio"*, %"class.std::__cxx11::basic_string"*, i32)* @_ZN12ILLIXR_AUDIO7ABAudioC2ENSt7__cxx1112basic_stringIcSt11char_traitsIcESaIcEEENS0_11ProcessTypeE
@_ZN12ILLIXR_AUDIO7ABAudioD1Ev = unnamed_addr alias void (%"class.ILLIXR_AUDIO::ABAudio"*), void (%"class.ILLIXR_AUDIO::ABAudio"*)* @_ZN12ILLIXR_AUDIO7ABAudioD2Ev

; Function Attrs: uwtable
define internal fastcc void @__cxx_global_var_init() unnamed_addr #0 section ".text.startup" !dbg !3026 {
entry:
  tail call void @_ZNSt8ios_base4InitC1Ev(%"class.std::ios_base::Init"* nonnull @_ZStL8__ioinit), !dbg !3027
  %0 = tail call i32 @__cxa_atexit(void (i8*)* bitcast (void (%"class.std::ios_base::Init"*)* @_ZNSt8ios_base4InitD1Ev to void (i8*)*), i8* getelementptr inbounds (%"class.std::ios_base::Init", %"class.std::ios_base::Init"* @_ZStL8__ioinit, i64 0, i32 0), i8* nonnull @__dso_handle) #23, !dbg !3027
  ret void, !dbg !3027
}

declare void @_ZNSt8ios_base4InitC1Ev(%"class.std::ios_base::Init"*) unnamed_addr #1

; Function Attrs: nounwind
declare void @_ZNSt8ios_base4InitD1Ev(%"class.std::ios_base::Init"*) unnamed_addr #2

; Function Attrs: nofree nounwind
declare i32 @__cxa_atexit(void (i8*)*, i8*, i8*) local_unnamed_addr #3

; Function Attrs: nofree norecurse nounwind uwtable writeonly
define void @_ZN14CAmbisonicBaseC2Ev(%class.CAmbisonicBase* nocapture %this) unnamed_addr #4 align 2 !dbg !3028 {
entry:
  call void @llvm.dbg.value(metadata %class.CAmbisonicBase* %this, metadata !3030, metadata !DIExpression()), !dbg !3032
  %0 = getelementptr inbounds %class.CAmbisonicBase, %class.CAmbisonicBase* %this, i64 0, i32 0, !dbg !3033
  store i32 (...)** bitcast (i8** getelementptr inbounds ({ [7 x i8*] }, { [7 x i8*] }* @_ZTV14CAmbisonicBase, i64 0, inrange i32 0, i64 2) to i32 (...)**), i32 (...)*** %0, align 8, !dbg !3033, !tbaa !3034
  %m_nOrder = getelementptr inbounds %class.CAmbisonicBase, %class.CAmbisonicBase* %this, i64 0, i32 1, !dbg !3037
  store i32 0, i32* %m_nOrder, align 8, !dbg !3037, !tbaa !3038
  %m_b3D = getelementptr inbounds %class.CAmbisonicBase, %class.CAmbisonicBase* %this, i64 0, i32 2, !dbg !3043
  store i8 0, i8* %m_b3D, align 4, !dbg !3043, !tbaa !3044
  %m_nChannelCount = getelementptr inbounds %class.CAmbisonicBase, %class.CAmbisonicBase* %this, i64 0, i32 4, !dbg !3045
  store i32 0, i32* %m_nChannelCount, align 8, !dbg !3045, !tbaa !3046
  %m_bOpt = getelementptr inbounds %class.CAmbisonicBase, %class.CAmbisonicBase* %this, i64 0, i32 5, !dbg !3047
  store i8 0, i8* %m_bOpt, align 4, !dbg !3047, !tbaa !3048
  ret void, !dbg !3049
}

; Function Attrs: nounwind readnone speculatable
declare void @llvm.dbg.declare(metadata, metadata, metadata) #5

; Function Attrs: norecurse nounwind readonly uwtable
define i32 @_ZN14CAmbisonicBase8GetOrderEv(%class.CAmbisonicBase* nocapture readonly %this) local_unnamed_addr #6 align 2 !dbg !3050 {
entry:
  call void @llvm.dbg.value(metadata %class.CAmbisonicBase* %this, metadata !3052, metadata !DIExpression()), !dbg !3053
  %m_nOrder = getelementptr inbounds %class.CAmbisonicBase, %class.CAmbisonicBase* %this, i64 0, i32 1, !dbg !3054
  %0 = load i32, i32* %m_nOrder, align 8, !dbg !3054, !tbaa !3038
  ret i32 %0, !dbg !3055
}

; Function Attrs: norecurse nounwind readonly uwtable
define zeroext i1 @_ZN14CAmbisonicBase9GetHeightEv(%class.CAmbisonicBase* nocapture readonly %this) local_unnamed_addr #6 align 2 !dbg !3056 {
entry:
  call void @llvm.dbg.value(metadata %class.CAmbisonicBase* %this, metadata !3058, metadata !DIExpression()), !dbg !3059
  %m_b3D = getelementptr inbounds %class.CAmbisonicBase, %class.CAmbisonicBase* %this, i64 0, i32 2, !dbg !3060
  %0 = load i8, i8* %m_b3D, align 4, !dbg !3060, !tbaa !3044, !range !3061
  %tobool = icmp ne i8 %0, 0, !dbg !3060
  ret i1 %tobool, !dbg !3062
}

; Function Attrs: norecurse nounwind readonly uwtable
define i32 @_ZN14CAmbisonicBase15GetChannelCountEv(%class.CAmbisonicBase* nocapture readonly %this) local_unnamed_addr #6 align 2 !dbg !3063 {
entry:
  call void @llvm.dbg.value(metadata %class.CAmbisonicBase* %this, metadata !3065, metadata !DIExpression()), !dbg !3066
  %m_nChannelCount = getelementptr inbounds %class.CAmbisonicBase, %class.CAmbisonicBase* %this, i64 0, i32 4, !dbg !3067
  %0 = load i32, i32* %m_nChannelCount, align 8, !dbg !3067, !tbaa !3046
  ret i32 %0, !dbg !3068
}

; Function Attrs: uwtable
define zeroext i1 @_ZN14CAmbisonicBase9ConfigureEjbj(%class.CAmbisonicBase* nocapture %this, i32 %nOrder, i1 zeroext %b3D, i32 %nMisc) unnamed_addr #0 align 2 !dbg !3069 {
entry:
  call void @llvm.dbg.value(metadata %class.CAmbisonicBase* %this, metadata !3071, metadata !DIExpression()), !dbg !3075
  call void @llvm.dbg.value(metadata i32 %nOrder, metadata !3072, metadata !DIExpression()), !dbg !3075
  %frombool = zext i1 %b3D to i8
  call void @llvm.dbg.value(metadata i8 %frombool, metadata !3073, metadata !DIExpression()), !dbg !3075
  call void @llvm.dbg.value(metadata i32 undef, metadata !3074, metadata !DIExpression()), !dbg !3075
  %m_nOrder = getelementptr inbounds %class.CAmbisonicBase, %class.CAmbisonicBase* %this, i64 0, i32 1, !dbg !3076
  store i32 %nOrder, i32* %m_nOrder, align 8, !dbg !3077, !tbaa !3038
  %m_b3D = getelementptr inbounds %class.CAmbisonicBase, %class.CAmbisonicBase* %this, i64 0, i32 2, !dbg !3078
  store i8 %frombool, i8* %m_b3D, align 4, !dbg !3079, !tbaa !3044
  %call = tail call i32 @_Z17OrderToComponentsjb(i32 %nOrder, i1 zeroext %b3D), !dbg !3080
  %m_nChannelCount = getelementptr inbounds %class.CAmbisonicBase, %class.CAmbisonicBase* %this, i64 0, i32 4, !dbg !3081
  store i32 %call, i32* %m_nChannelCount, align 8, !dbg !3082, !tbaa !3046
  ret i1 true, !dbg !3083
}

declare i32 @_Z17OrderToComponentsjb(i32, i1 zeroext) local_unnamed_addr #1

; Function Attrs: nounwind uwtable
define void @_ZN8CBFormatC2Ev(%class.CBFormat* %this) unnamed_addr #7 align 2 !dbg !3084 {
entry:
  call void @llvm.dbg.value(metadata %class.CBFormat* %this, metadata !3086, metadata !DIExpression()), !dbg !3087
  %0 = bitcast %class.CBFormat* %this to %class.CAmbisonicBase*, !dbg !3088
  tail call void @_ZN14CAmbisonicBaseC2Ev(%class.CAmbisonicBase* %0), !dbg !3089
  %1 = getelementptr inbounds %class.CBFormat, %class.CBFormat* %this, i64 0, i32 0, i32 0, !dbg !3088
  store i32 (...)** bitcast (i8** getelementptr inbounds ({ [7 x i8*] }, { [7 x i8*] }* @_ZTV8CBFormat, i64 0, inrange i32 0, i64 2) to i32 (...)**), i32 (...)*** %1, align 8, !dbg !3088, !tbaa !3034
  %m_pfData = getelementptr inbounds %class.CBFormat, %class.CBFormat* %this, i64 0, i32 3, !dbg !3089
  tail call void @_ZNSt6vectorIfSaIfEEC2Ev(%"class.std::vector"* nonnull %m_pfData) #23, !dbg !3089
  %m_ppfChannels = getelementptr inbounds %class.CBFormat, %class.CBFormat* %this, i64 0, i32 4, !dbg !3089
  tail call void @_ZNSt10unique_ptrIA_PfSt14default_deleteIS1_EEC2Ev(%"class.std::unique_ptr"* nonnull %m_ppfChannels) #23, !dbg !3089
  %m_nSamples = getelementptr inbounds %class.CBFormat, %class.CBFormat* %this, i64 0, i32 1, !dbg !3090
  store i32 0, i32* %m_nSamples, align 8, !dbg !3092, !tbaa !3093
  %m_nDataLength = getelementptr inbounds %class.CBFormat, %class.CBFormat* %this, i64 0, i32 2, !dbg !3098
  store i32 0, i32* %m_nDataLength, align 4, !dbg !3099, !tbaa !3100
  ret void, !dbg !3101
}

; Function Attrs: nounwind uwtable
define linkonce_odr void @_ZNSt6vectorIfSaIfEEC2Ev(%"class.std::vector"* %this) unnamed_addr #7 comdat align 2 personality i8* bitcast (i32 (...)* @__gxx_personality_v0 to i8*) !dbg !3102 {
entry:
  call void @llvm.dbg.value(metadata %"class.std::vector"* %this, metadata !3104, metadata !DIExpression()), !dbg !3106
  %0 = getelementptr inbounds %"class.std::vector", %"class.std::vector"* %this, i64 0, i32 0, !dbg !3107
  invoke void @_ZNSt12_Vector_baseIfSaIfEEC2Ev(%"struct.std::_Vector_base"* %0)
          to label %invoke.cont unwind label %terminate.lpad, !dbg !3108

invoke.cont:                                      ; preds = %entry
  ret void, !dbg !3109

terminate.lpad:                                   ; preds = %entry
  %1 = landingpad { i8*, i32 }
          catch i8* null, !dbg !3108
  %2 = extractvalue { i8*, i32 } %1, 0, !dbg !3108
  tail call void @__clang_call_terminate(i8* %2) #24, !dbg !3108
  unreachable, !dbg !3108
}

; Function Attrs: nounwind uwtable
define linkonce_odr void @_ZNSt10unique_ptrIA_PfSt14default_deleteIS1_EEC2Ev(%"class.std::unique_ptr"* %this) unnamed_addr #7 comdat align 2 personality i8* bitcast (i32 (...)* @__gxx_personality_v0 to i8*) !dbg !3110 {
entry:
  call void @llvm.dbg.value(metadata %"class.std::unique_ptr"* %this, metadata !3112, metadata !DIExpression()), !dbg !3114
  %_M_t = getelementptr inbounds %"class.std::unique_ptr", %"class.std::unique_ptr"* %this, i64 0, i32 0, !dbg !3115
  invoke void @_ZNSt5tupleIJPPfSt14default_deleteIA_S0_EEEC2Ev(%"class.std::tuple"* %_M_t)
          to label %invoke.cont unwind label %terminate.lpad, !dbg !3115

invoke.cont:                                      ; preds = %entry
  ret void, !dbg !3116

terminate.lpad:                                   ; preds = %entry
  %0 = landingpad { i8*, i32 }
          catch i8* null, !dbg !3115
  %1 = extractvalue { i8*, i32 } %0, 0, !dbg !3115
  tail call void @__clang_call_terminate(i8* %1) #24, !dbg !3115
  unreachable, !dbg !3115
}

; Function Attrs: norecurse nounwind readonly uwtable
define i32 @_ZN8CBFormat14GetSampleCountEv(%class.CBFormat* nocapture readonly %this) local_unnamed_addr #6 align 2 !dbg !3117 {
entry:
  call void @llvm.dbg.value(metadata %class.CBFormat* %this, metadata !3119, metadata !DIExpression()), !dbg !3120
  %m_nSamples = getelementptr inbounds %class.CBFormat, %class.CBFormat* %this, i64 0, i32 1, !dbg !3121
  %0 = load i32, i32* %m_nSamples, align 8, !dbg !3121, !tbaa !3093
  ret i32 %0, !dbg !3122
}

; Function Attrs: uwtable
define zeroext i1 @_ZN8CBFormat9ConfigureEjbj(%class.CBFormat* %this, i32 %nOrder, i1 zeroext %b3D, i32 %nSampleCount) unnamed_addr #0 align 2 !dbg !3123 {
entry:
  call void @llvm.dbg.value(metadata %class.CBFormat* %this, metadata !3125, metadata !DIExpression()), !dbg !3132
  call void @llvm.dbg.value(metadata i32 %nOrder, metadata !3126, metadata !DIExpression()), !dbg !3132
  call void @llvm.dbg.value(metadata i1 %b3D, metadata !3127, metadata !DIExpression()), !dbg !3132
  call void @llvm.dbg.value(metadata i32 %nSampleCount, metadata !3128, metadata !DIExpression()), !dbg !3132
  %0 = bitcast %class.CBFormat* %this to %class.CAmbisonicBase*, !dbg !3133
  %call = tail call zeroext i1 @_ZN14CAmbisonicBase9ConfigureEjbj(%class.CAmbisonicBase* %0, i32 %nOrder, i1 zeroext %b3D, i32 undef), !dbg !3133
  call void @llvm.dbg.value(metadata i8 1, metadata !3129, metadata !DIExpression()), !dbg !3132
  %m_nSamples = getelementptr inbounds %class.CBFormat, %class.CBFormat* %this, i64 0, i32 1, !dbg !3134
  store i32 %nSampleCount, i32* %m_nSamples, align 8, !dbg !3135, !tbaa !3093
  %1 = getelementptr inbounds %class.CBFormat, %class.CBFormat* %this, i64 0, i32 0, i32 4, !dbg !3136
  %2 = load i32, i32* %1, align 8, !dbg !3136, !tbaa !3046
  %mul = mul i32 %2, %nSampleCount, !dbg !3137
  %m_nDataLength = getelementptr inbounds %class.CBFormat, %class.CBFormat* %this, i64 0, i32 2, !dbg !3138
  store i32 %mul, i32* %m_nDataLength, align 4, !dbg !3139, !tbaa !3100
  %m_pfData = getelementptr inbounds %class.CBFormat, %class.CBFormat* %this, i64 0, i32 3, !dbg !3140
  %conv = zext i32 %mul to i64, !dbg !3141
  tail call void @_ZNSt6vectorIfSaIfEE6resizeEm(%"class.std::vector"* nonnull %m_pfData, i64 %conv), !dbg !3142
  %call7 = tail call float* @_ZNSt6vectorIfSaIfEE4dataEv(%"class.std::vector"* nonnull %m_pfData) #23, !dbg !3143
  %3 = bitcast float* %call7 to i8*, !dbg !3144
  %4 = load i32, i32* %m_nDataLength, align 4, !dbg !3145, !tbaa !3100
  %conv9 = zext i32 %4 to i64, !dbg !3145
  %mul10 = shl nuw nsw i64 %conv9, 2, !dbg !3146
  tail call void @llvm.memset.p0i8.i64(i8* align 4 %3, i8 0, i64 %mul10, i1 false), !dbg !3144
  %m_ppfChannels = getelementptr inbounds %class.CBFormat, %class.CBFormat* %this, i64 0, i32 4, !dbg !3147
  %5 = load i32, i32* %1, align 8, !dbg !3148, !tbaa !3046
  %conv12 = zext i32 %5 to i64, !dbg !3148
  %6 = shl nuw nsw i64 %conv12, 3, !dbg !3149
  %call13 = tail call i8* @_Znam(i64 %6) #25, !dbg !3149
  %7 = bitcast i8* %call13 to float**, !dbg !3149
  tail call void @_ZNSt10unique_ptrIA_PfSt14default_deleteIS1_EE5resetEPS0_(%"class.std::unique_ptr"* nonnull %m_ppfChannels, float** nonnull %7) #23, !dbg !3150
  call void @llvm.dbg.value(metadata i32 0, metadata !3130, metadata !DIExpression()), !dbg !3151
  %8 = load i32, i32* %1, align 8, !dbg !3152, !tbaa !3046
  %cmp28 = icmp eq i32 %8, 0, !dbg !3154
  br i1 %cmp28, label %cleanup, label %for.body, !dbg !3155

for.body:                                         ; preds = %entry, %for.body
  %indvars.iv = phi i64 [ %indvars.iv.next, %for.body ], [ 0, %entry ]
  call void @llvm.dbg.value(metadata i64 %indvars.iv, metadata !3130, metadata !DIExpression()), !dbg !3151
  %9 = load i32, i32* %m_nSamples, align 8, !dbg !3156, !tbaa !3093
  %10 = trunc i64 %indvars.iv to i32, !dbg !3158
  %mul17 = mul i32 %9, %10, !dbg !3158
  %conv18 = zext i32 %mul17 to i64, !dbg !3159
  %call19 = tail call dereferenceable(4) float* @_ZNSt6vectorIfSaIfEEixEm(%"class.std::vector"* nonnull %m_pfData, i64 %conv18) #23, !dbg !3160
  %call22 = tail call dereferenceable(8) float** @_ZNKSt10unique_ptrIA_PfSt14default_deleteIS1_EEixEm(%"class.std::unique_ptr"* nonnull %m_ppfChannels, i64 %indvars.iv), !dbg !3161
  store float* %call19, float** %call22, align 8, !dbg !3162, !tbaa !3163
  %indvars.iv.next = add nuw nsw i64 %indvars.iv, 1, !dbg !3165
  call void @llvm.dbg.value(metadata i32 undef, metadata !3130, metadata !DIExpression(DW_OP_plus_uconst, 1, DW_OP_stack_value)), !dbg !3151
  %11 = load i32, i32* %1, align 8, !dbg !3152, !tbaa !3046
  %12 = zext i32 %11 to i64, !dbg !3154
  %cmp = icmp ult i64 %indvars.iv.next, %12, !dbg !3154
  br i1 %cmp, label %for.body, label %cleanup, !dbg !3155, !llvm.loop !3166

cleanup:                                          ; preds = %for.body, %entry
  ret i1 true, !dbg !3168
}

; Function Attrs: argmemonly nounwind
declare void @llvm.lifetime.start.p0i8(i64 immarg, i8* nocapture) #8

; Function Attrs: uwtable
define linkonce_odr void @_ZNSt6vectorIfSaIfEE6resizeEm(%"class.std::vector"* %this, i64 %__new_size) local_unnamed_addr #0 comdat align 2 !dbg !3169 {
entry:
  call void @llvm.dbg.value(metadata %"class.std::vector"* %this, metadata !3171, metadata !DIExpression()), !dbg !3173
  call void @llvm.dbg.value(metadata i64 %__new_size, metadata !3172, metadata !DIExpression()), !dbg !3173
  %call = tail call i64 @_ZNKSt6vectorIfSaIfEE4sizeEv(%"class.std::vector"* %this) #23, !dbg !3174
  %cmp = icmp ult i64 %call, %__new_size, !dbg !3176
  %call2 = tail call i64 @_ZNKSt6vectorIfSaIfEE4sizeEv(%"class.std::vector"* %this) #23, !dbg !3177
  br i1 %cmp, label %if.then, label %if.else, !dbg !3178

if.then:                                          ; preds = %entry
  %sub = sub i64 %__new_size, %call2, !dbg !3179
  tail call void @_ZNSt6vectorIfSaIfEE17_M_default_appendEm(%"class.std::vector"* %this, i64 %sub), !dbg !3180
  br label %if.end6, !dbg !3180

if.else:                                          ; preds = %entry
  %cmp4 = icmp ugt i64 %call2, %__new_size, !dbg !3181
  br i1 %cmp4, label %if.then5, label %if.end6, !dbg !3183

if.then5:                                         ; preds = %if.else
  %_M_start = getelementptr inbounds %"class.std::vector", %"class.std::vector"* %this, i64 0, i32 0, i32 0, i32 0, !dbg !3184
  %0 = load float*, float** %_M_start, align 8, !dbg !3184, !tbaa !3185
  %add.ptr = getelementptr inbounds float, float* %0, i64 %__new_size, !dbg !3188
  tail call void @_ZNSt6vectorIfSaIfEE15_M_erase_at_endEPf(%"class.std::vector"* %this, float* %add.ptr) #23, !dbg !3189
  br label %if.end6, !dbg !3189

if.end6:                                          ; preds = %if.else, %if.then5, %if.then
  ret void, !dbg !3190
}

; Function Attrs: nounwind uwtable
define linkonce_odr float* @_ZNSt6vectorIfSaIfEE4dataEv(%"class.std::vector"* %this) local_unnamed_addr #7 comdat align 2 personality i8* bitcast (i32 (...)* @__gxx_personality_v0 to i8*) !dbg !3191 {
entry:
  call void @llvm.dbg.value(metadata %"class.std::vector"* %this, metadata !3193, metadata !DIExpression()), !dbg !3194
  %_M_start = getelementptr inbounds %"class.std::vector", %"class.std::vector"* %this, i64 0, i32 0, i32 0, i32 0, !dbg !3195
  %0 = load float*, float** %_M_start, align 8, !dbg !3195, !tbaa !3185
  %call = tail call float* @_ZNKSt6vectorIfSaIfEE11_M_data_ptrIfEEPT_S4_(%"class.std::vector"* %this, float* %0), !dbg !3196
  ret float* %call, !dbg !3197
}

; Function Attrs: argmemonly nounwind
declare void @llvm.memset.p0i8.i64(i8* nocapture writeonly, i8, i64, i1 immarg) #8

; Function Attrs: nounwind uwtable
define linkonce_odr void @_ZNSt10unique_ptrIA_PfSt14default_deleteIS1_EE5resetEPS0_(%"class.std::unique_ptr"* %this, float** %__p) local_unnamed_addr #7 comdat align 2 personality i8* bitcast (i32 (...)* @__gxx_personality_v0 to i8*) !dbg !3198 {
entry:
  %__p.addr = alloca float**, align 8
  call void @llvm.dbg.value(metadata %"class.std::unique_ptr"* %this, metadata !3200, metadata !DIExpression()), !dbg !3202
  call void @llvm.dbg.value(metadata float** %__p, metadata !3201, metadata !DIExpression()), !dbg !3202
  store float** %__p, float*** %__p.addr, align 8, !tbaa !3163
  %_M_t = getelementptr inbounds %"class.std::unique_ptr", %"class.std::unique_ptr"* %this, i64 0, i32 0, !dbg !3203
  %call = tail call dereferenceable(8) float*** @_ZSt3getILm0EJPPfSt14default_deleteIA_S0_EEERNSt13tuple_elementIXT_ESt5tupleIJDpT0_EEE4typeERS9_(%"class.std::tuple"* dereferenceable(8) %_M_t) #23, !dbg !3204
  call void @llvm.dbg.value(metadata float*** %__p.addr, metadata !3201, metadata !DIExpression(DW_OP_deref)), !dbg !3202
  call void @_ZSt4swapIPPfEvRT_S3_(float*** nonnull dereferenceable(8) %call, float*** nonnull dereferenceable(8) %__p.addr) #23, !dbg !3205
  %0 = load float**, float*** %__p.addr, align 8, !dbg !3206, !tbaa !3163
  call void @llvm.dbg.value(metadata float** %0, metadata !3201, metadata !DIExpression()), !dbg !3202
  %cmp = icmp eq float** %0, null, !dbg !3208
  br i1 %cmp, label %if.end, label %if.then, !dbg !3209

if.then:                                          ; preds = %entry
  %call2 = call dereferenceable(1) %"struct.std::default_delete"* @_ZNSt10unique_ptrIA_PfSt14default_deleteIS1_EE11get_deleterEv(%"class.std::unique_ptr"* %this) #23, !dbg !3210
  %1 = load float**, float*** %__p.addr, align 8, !dbg !3211, !tbaa !3163
  call void @llvm.dbg.value(metadata float** %1, metadata !3201, metadata !DIExpression()), !dbg !3202
  call void @_ZNKSt14default_deleteIA_PfEclEPS0_(%"struct.std::default_delete"* nonnull %call2, float** %1), !dbg !3210
  br label %if.end, !dbg !3210

if.end:                                           ; preds = %entry, %if.then
  ret void, !dbg !3212
}

; Function Attrs: nobuiltin nofree
declare noalias nonnull i8* @_Znam(i64) local_unnamed_addr #9

; Function Attrs: nounwind uwtable
define linkonce_odr dereferenceable(4) float* @_ZNSt6vectorIfSaIfEEixEm(%"class.std::vector"* %this, i64 %__n) local_unnamed_addr #7 comdat align 2 !dbg !3213 {
entry:
  call void @llvm.dbg.value(metadata %"class.std::vector"* %this, metadata !3215, metadata !DIExpression()), !dbg !3217
  call void @llvm.dbg.value(metadata i64 %__n, metadata !3216, metadata !DIExpression()), !dbg !3217
  %_M_start = getelementptr inbounds %"class.std::vector", %"class.std::vector"* %this, i64 0, i32 0, i32 0, i32 0, !dbg !3218
  %0 = load float*, float** %_M_start, align 8, !dbg !3218, !tbaa !3185
  %add.ptr = getelementptr inbounds float, float* %0, i64 %__n, !dbg !3219
  ret float* %add.ptr, !dbg !3220
}

; Function Attrs: nounwind uwtable
define linkonce_odr dereferenceable(8) float** @_ZNKSt10unique_ptrIA_PfSt14default_deleteIS1_EEixEm(%"class.std::unique_ptr"* %this, i64 %__i) local_unnamed_addr #7 comdat align 2 !dbg !3221 {
entry:
  call void @llvm.dbg.value(metadata %"class.std::unique_ptr"* %this, metadata !3223, metadata !DIExpression()), !dbg !3226
  call void @llvm.dbg.value(metadata i64 %__i, metadata !3225, metadata !DIExpression()), !dbg !3226
  %call = tail call float** @_ZNKSt10unique_ptrIA_PfSt14default_deleteIS1_EE3getEv(%"class.std::unique_ptr"* %this) #23, !dbg !3227
  %arrayidx = getelementptr inbounds float*, float** %call, i64 %__i, !dbg !3227
  ret float** %arrayidx, !dbg !3228
}

; Function Attrs: argmemonly nounwind
declare void @llvm.lifetime.end.p0i8(i64 immarg, i8* nocapture) #8

; Function Attrs: nounwind uwtable
define void @_ZN8CBFormat5ResetEv(%class.CBFormat* %this) unnamed_addr #7 align 2 !dbg !3229 {
entry:
  call void @llvm.dbg.value(metadata %class.CBFormat* %this, metadata !3231, metadata !DIExpression()), !dbg !3232
  %m_pfData = getelementptr inbounds %class.CBFormat, %class.CBFormat* %this, i64 0, i32 3, !dbg !3233
  %call = tail call float* @_ZNSt6vectorIfSaIfEE4dataEv(%"class.std::vector"* nonnull %m_pfData) #23, !dbg !3234
  %0 = bitcast float* %call to i8*, !dbg !3235
  %m_nDataLength = getelementptr inbounds %class.CBFormat, %class.CBFormat* %this, i64 0, i32 2, !dbg !3236
  %1 = load i32, i32* %m_nDataLength, align 4, !dbg !3236, !tbaa !3100
  %conv = zext i32 %1 to i64, !dbg !3236
  %mul = shl nuw nsw i64 %conv, 2, !dbg !3237
  tail call void @llvm.memset.p0i8.i64(i8* align 4 %0, i8 0, i64 %mul, i1 false), !dbg !3235
  ret void, !dbg !3238
}

; Function Attrs: norecurse nounwind readnone uwtable
define void @_ZN8CBFormat7RefreshEv(%class.CBFormat* nocapture %this) unnamed_addr #10 align 2 !dbg !3239 {
entry:
  call void @llvm.dbg.value(metadata %class.CBFormat* undef, metadata !3241, metadata !DIExpression()), !dbg !3242
  ret void, !dbg !3243
}

; Function Attrs: nounwind uwtable
define void @_ZN8CBFormat12InsertStreamEPfjj(%class.CBFormat* %this, float* nocapture readonly %pfData, i32 %nChannel, i32 %nSamples) local_unnamed_addr #7 align 2 !dbg !3244 {
entry:
  call void @llvm.dbg.value(metadata %class.CBFormat* %this, metadata !3246, metadata !DIExpression()), !dbg !3250
  call void @llvm.dbg.value(metadata float* %pfData, metadata !3247, metadata !DIExpression()), !dbg !3250
  call void @llvm.dbg.value(metadata i32 %nChannel, metadata !3248, metadata !DIExpression()), !dbg !3250
  call void @llvm.dbg.value(metadata i32 %nSamples, metadata !3249, metadata !DIExpression()), !dbg !3250
  %m_ppfChannels = getelementptr inbounds %class.CBFormat, %class.CBFormat* %this, i64 0, i32 4, !dbg !3251
  %conv = zext i32 %nChannel to i64, !dbg !3252
  %call = tail call dereferenceable(8) float** @_ZNKSt10unique_ptrIA_PfSt14default_deleteIS1_EEixEm(%"class.std::unique_ptr"* nonnull %m_ppfChannels, i64 %conv), !dbg !3251
  %0 = bitcast float** %call to i8**, !dbg !3251
  %1 = load i8*, i8** %0, align 8, !dbg !3251, !tbaa !3163
  %2 = bitcast float* %pfData to i8*, !dbg !3253
  %conv2 = zext i32 %nSamples to i64, !dbg !3254
  %mul = shl nuw nsw i64 %conv2, 2, !dbg !3255
  tail call void @llvm.memcpy.p0i8.p0i8.i64(i8* align 4 %1, i8* align 4 %2, i64 %mul, i1 false), !dbg !3253
  ret void, !dbg !3256
}

; Function Attrs: argmemonly nounwind
declare void @llvm.memcpy.p0i8.p0i8.i64(i8* nocapture writeonly, i8* nocapture readonly, i64, i1 immarg) #8

; Function Attrs: nounwind uwtable
define void @_ZN8CBFormat13ExtractStreamEPfjj(%class.CBFormat* %this, float* nocapture %pfData, i32 %nChannel, i32 %nSamples) local_unnamed_addr #7 align 2 !dbg !3257 {
entry:
  call void @llvm.dbg.value(metadata %class.CBFormat* %this, metadata !3259, metadata !DIExpression()), !dbg !3263
  call void @llvm.dbg.value(metadata float* %pfData, metadata !3260, metadata !DIExpression()), !dbg !3263
  call void @llvm.dbg.value(metadata i32 %nChannel, metadata !3261, metadata !DIExpression()), !dbg !3263
  call void @llvm.dbg.value(metadata i32 %nSamples, metadata !3262, metadata !DIExpression()), !dbg !3263
  %0 = bitcast float* %pfData to i8*, !dbg !3264
  %m_ppfChannels = getelementptr inbounds %class.CBFormat, %class.CBFormat* %this, i64 0, i32 4, !dbg !3265
  %conv = zext i32 %nChannel to i64, !dbg !3266
  %call = tail call dereferenceable(8) float** @_ZNKSt10unique_ptrIA_PfSt14default_deleteIS1_EEixEm(%"class.std::unique_ptr"* nonnull %m_ppfChannels, i64 %conv), !dbg !3265
  %1 = bitcast float** %call to i8**, !dbg !3265
  %2 = load i8*, i8** %1, align 8, !dbg !3265, !tbaa !3163
  %conv2 = zext i32 %nSamples to i64, !dbg !3267
  %mul = shl nuw nsw i64 %conv2, 2, !dbg !3268
  tail call void @llvm.memcpy.p0i8.p0i8.i64(i8* align 4 %0, i8* align 4 %2, i64 %mul, i1 false), !dbg !3264
  ret void, !dbg !3269
}

; Function Attrs: nounwind uwtable
define void @_ZN8CBFormataSERKS_(%class.CBFormat* %this, %class.CBFormat* dereferenceable(64) %bf) local_unnamed_addr #7 align 2 !dbg !3270 {
entry:
  call void @llvm.dbg.value(metadata %class.CBFormat* %this, metadata !3272, metadata !DIExpression()), !dbg !3274
  call void @llvm.dbg.value(metadata %class.CBFormat* %bf, metadata !3273, metadata !DIExpression()), !dbg !3274
  %m_pfData = getelementptr inbounds %class.CBFormat, %class.CBFormat* %this, i64 0, i32 3, !dbg !3275
  %call = tail call float* @_ZNSt6vectorIfSaIfEE4dataEv(%"class.std::vector"* nonnull %m_pfData) #23, !dbg !3276
  %0 = bitcast float* %call to i8*, !dbg !3277
  %m_pfData2 = getelementptr inbounds %class.CBFormat, %class.CBFormat* %bf, i64 0, i32 3, !dbg !3278
  %call3 = tail call float* @_ZNKSt6vectorIfSaIfEE4dataEv(%"class.std::vector"* nonnull %m_pfData2) #23, !dbg !3279
  %1 = bitcast float* %call3 to i8*, !dbg !3277
  %m_nDataLength = getelementptr inbounds %class.CBFormat, %class.CBFormat* %this, i64 0, i32 2, !dbg !3280
  %2 = load i32, i32* %m_nDataLength, align 4, !dbg !3280, !tbaa !3100
  %conv = zext i32 %2 to i64, !dbg !3280
  %mul = shl nuw nsw i64 %conv, 2, !dbg !3281
  tail call void @llvm.memcpy.p0i8.p0i8.i64(i8* align 4 %0, i8* align 4 %1, i64 %mul, i1 false), !dbg !3277
  ret void, !dbg !3282
}

; Function Attrs: nounwind uwtable
define linkonce_odr float* @_ZNKSt6vectorIfSaIfEE4dataEv(%"class.std::vector"* %this) local_unnamed_addr #7 comdat align 2 personality i8* bitcast (i32 (...)* @__gxx_personality_v0 to i8*) !dbg !3283 {
entry:
  call void @llvm.dbg.value(metadata %"class.std::vector"* %this, metadata !3285, metadata !DIExpression()), !dbg !3287
  %_M_start = getelementptr inbounds %"class.std::vector", %"class.std::vector"* %this, i64 0, i32 0, i32 0, i32 0, !dbg !3288
  %0 = load float*, float** %_M_start, align 8, !dbg !3288, !tbaa !3185
  %call = tail call float* @_ZNKSt6vectorIfSaIfEE11_M_data_ptrIfEEPT_S4_(%"class.std::vector"* %this, float* %0), !dbg !3289
  ret float* %call, !dbg !3290
}

; Function Attrs: norecurse nounwind readonly uwtable
define zeroext i1 @_ZN8CBFormateqERKS_(%class.CBFormat* nocapture readonly %this, %class.CBFormat* nocapture readonly dereferenceable(64) %bf) local_unnamed_addr #6 align 2 !dbg !3291 {
entry:
  call void @llvm.dbg.value(metadata %class.CBFormat* %this, metadata !3293, metadata !DIExpression()), !dbg !3295
  call void @llvm.dbg.value(metadata %class.CBFormat* %bf, metadata !3294, metadata !DIExpression()), !dbg !3295
  %0 = getelementptr inbounds %class.CBFormat, %class.CBFormat* %this, i64 0, i32 0, i32 2, !dbg !3296
  %1 = load i8, i8* %0, align 4, !dbg !3296, !tbaa !3044, !range !3061
  %2 = getelementptr inbounds %class.CBFormat, %class.CBFormat* %bf, i64 0, i32 0, i32 2, !dbg !3298
  %3 = load i8, i8* %2, align 4, !dbg !3298, !tbaa !3044, !range !3061
  %cmp = icmp eq i8 %1, %3, !dbg !3299
  br i1 %cmp, label %land.lhs.true, label %if.else, !dbg !3300

land.lhs.true:                                    ; preds = %entry
  %4 = getelementptr inbounds %class.CBFormat, %class.CBFormat* %this, i64 0, i32 0, i32 1, !dbg !3301
  %5 = load i32, i32* %4, align 8, !dbg !3301, !tbaa !3038
  %6 = getelementptr inbounds %class.CBFormat, %class.CBFormat* %bf, i64 0, i32 0, i32 1, !dbg !3302
  %7 = load i32, i32* %6, align 8, !dbg !3302, !tbaa !3038
  %cmp6 = icmp eq i32 %5, %7, !dbg !3303
  br i1 %cmp6, label %land.lhs.true7, label %if.else, !dbg !3304

land.lhs.true7:                                   ; preds = %land.lhs.true
  %m_nDataLength = getelementptr inbounds %class.CBFormat, %class.CBFormat* %this, i64 0, i32 2, !dbg !3305
  %8 = load i32, i32* %m_nDataLength, align 4, !dbg !3305, !tbaa !3100
  %m_nDataLength8 = getelementptr inbounds %class.CBFormat, %class.CBFormat* %bf, i64 0, i32 2, !dbg !3306
  %9 = load i32, i32* %m_nDataLength8, align 4, !dbg !3306, !tbaa !3100
  %cmp9 = icmp eq i32 %8, %9, !dbg !3307
  br i1 %cmp9, label %return, label %if.else, !dbg !3308

if.else:                                          ; preds = %land.lhs.true7, %land.lhs.true, %entry
  br label %return, !dbg !3309

return:                                           ; preds = %land.lhs.true7, %if.else
  %retval.0 = phi i1 [ false, %if.else ], [ true, %land.lhs.true7 ], !dbg !3310
  ret i1 %retval.0, !dbg !3311
}

; Function Attrs: norecurse nounwind readonly uwtable
define zeroext i1 @_ZN8CBFormatneERKS_(%class.CBFormat* nocapture readonly %this, %class.CBFormat* nocapture readonly dereferenceable(64) %bf) local_unnamed_addr #6 align 2 !dbg !3312 {
entry:
  call void @llvm.dbg.value(metadata %class.CBFormat* %this, metadata !3314, metadata !DIExpression()), !dbg !3316
  call void @llvm.dbg.value(metadata %class.CBFormat* %bf, metadata !3315, metadata !DIExpression()), !dbg !3316
  %0 = getelementptr inbounds %class.CBFormat, %class.CBFormat* %this, i64 0, i32 0, i32 2, !dbg !3317
  %1 = load i8, i8* %0, align 4, !dbg !3317, !tbaa !3044, !range !3061
  %2 = getelementptr inbounds %class.CBFormat, %class.CBFormat* %bf, i64 0, i32 0, i32 2, !dbg !3319
  %3 = load i8, i8* %2, align 4, !dbg !3319, !tbaa !3044, !range !3061
  %cmp = icmp eq i8 %1, %3, !dbg !3320
  br i1 %cmp, label %lor.lhs.false, label %return, !dbg !3321

lor.lhs.false:                                    ; preds = %entry
  %4 = getelementptr inbounds %class.CBFormat, %class.CBFormat* %this, i64 0, i32 0, i32 1, !dbg !3322
  %5 = load i32, i32* %4, align 8, !dbg !3322, !tbaa !3038
  %6 = getelementptr inbounds %class.CBFormat, %class.CBFormat* %bf, i64 0, i32 0, i32 1, !dbg !3323
  %7 = load i32, i32* %6, align 8, !dbg !3323, !tbaa !3038
  %cmp6 = icmp eq i32 %5, %7, !dbg !3324
  br i1 %cmp6, label %lor.lhs.false7, label %return, !dbg !3325

lor.lhs.false7:                                   ; preds = %lor.lhs.false
  %m_nDataLength = getelementptr inbounds %class.CBFormat, %class.CBFormat* %this, i64 0, i32 2, !dbg !3326
  %8 = load i32, i32* %m_nDataLength, align 4, !dbg !3326, !tbaa !3100
  %m_nDataLength8 = getelementptr inbounds %class.CBFormat, %class.CBFormat* %bf, i64 0, i32 2, !dbg !3327
  %9 = load i32, i32* %m_nDataLength8, align 4, !dbg !3327, !tbaa !3100
  %cmp9 = icmp ne i32 %8, %9, !dbg !3328
  ret i1 %cmp9, !dbg !3329

return:                                           ; preds = %entry, %lor.lhs.false
  ret i1 true, !dbg !3330
}

; Function Attrs: nounwind uwtable
define dereferenceable(64) %class.CBFormat* @_ZN8CBFormatpLERKS_(%class.CBFormat* returned %this, %class.CBFormat* dereferenceable(64) %bf) local_unnamed_addr #7 align 2 !dbg !3331 {
entry:
  call void @llvm.dbg.value(metadata %class.CBFormat* %this, metadata !3333, metadata !DIExpression()), !dbg !3337
  call void @llvm.dbg.value(metadata %class.CBFormat* %bf, metadata !3334, metadata !DIExpression()), !dbg !3337
  call void @llvm.dbg.value(metadata i32 0, metadata !3335, metadata !DIExpression()), !dbg !3337
  call void @llvm.dbg.value(metadata i32 0, metadata !3336, metadata !DIExpression()), !dbg !3337
  call void @llvm.dbg.value(metadata i32 0, metadata !3335, metadata !DIExpression()), !dbg !3337
  %0 = getelementptr inbounds %class.CBFormat, %class.CBFormat* %this, i64 0, i32 0, i32 4, !dbg !3338
  %1 = load i32, i32* %0, align 8, !dbg !3338, !tbaa !3046
  %cmp23 = icmp eq i32 %1, 0, !dbg !3341
  br i1 %cmp23, label %for.end12, label %for.cond2.preheader.lr.ph, !dbg !3342

for.cond2.preheader.lr.ph:                        ; preds = %entry
  %m_nSamples = getelementptr inbounds %class.CBFormat, %class.CBFormat* %this, i64 0, i32 1, !dbg !3343
  %m_ppfChannels = getelementptr inbounds %class.CBFormat, %class.CBFormat* %bf, i64 0, i32 4, !dbg !3347
  %m_ppfChannels5 = getelementptr inbounds %class.CBFormat, %class.CBFormat* %this, i64 0, i32 4, !dbg !3347
  br label %for.cond2.preheader, !dbg !3342

for.cond2.preheader:                              ; preds = %for.cond2.preheader.lr.ph, %for.inc10
  %indvars.iv26 = phi i64 [ 0, %for.cond2.preheader.lr.ph ], [ %indvars.iv.next27, %for.inc10 ]
  call void @llvm.dbg.value(metadata i64 %indvars.iv26, metadata !3335, metadata !DIExpression()), !dbg !3337
  call void @llvm.dbg.value(metadata i32 0, metadata !3336, metadata !DIExpression()), !dbg !3337
  %2 = load i32, i32* %m_nSamples, align 8, !dbg !3349, !tbaa !3093
  %cmp321 = icmp eq i32 %2, 0, !dbg !3350
  br i1 %cmp321, label %for.inc10, label %for.body4, !dbg !3351

for.body4:                                        ; preds = %for.cond2.preheader, %for.body4
  %indvars.iv = phi i64 [ %indvars.iv.next, %for.body4 ], [ 0, %for.cond2.preheader ]
  call void @llvm.dbg.value(metadata i64 %indvars.iv, metadata !3336, metadata !DIExpression()), !dbg !3337
  %call = tail call dereferenceable(8) float** @_ZNKSt10unique_ptrIA_PfSt14default_deleteIS1_EEixEm(%"class.std::unique_ptr"* nonnull %m_ppfChannels, i64 %indvars.iv26), !dbg !3352
  %3 = load float*, float** %call, align 8, !dbg !3352, !tbaa !3163
  %arrayidx = getelementptr inbounds float, float* %3, i64 %indvars.iv, !dbg !3352
  %4 = load float, float* %arrayidx, align 4, !dbg !3352, !tbaa !3353
  %call7 = tail call dereferenceable(8) float** @_ZNKSt10unique_ptrIA_PfSt14default_deleteIS1_EEixEm(%"class.std::unique_ptr"* nonnull %m_ppfChannels5, i64 %indvars.iv26), !dbg !3355
  %5 = load float*, float** %call7, align 8, !dbg !3355, !tbaa !3163
  %arrayidx9 = getelementptr inbounds float, float* %5, i64 %indvars.iv, !dbg !3355
  %6 = load float, float* %arrayidx9, align 4, !dbg !3356, !tbaa !3353
  %add = fadd float %4, %6, !dbg !3356
  store float %add, float* %arrayidx9, align 4, !dbg !3356, !tbaa !3353
  %indvars.iv.next = add nuw nsw i64 %indvars.iv, 1, !dbg !3357
  call void @llvm.dbg.value(metadata i32 undef, metadata !3336, metadata !DIExpression(DW_OP_plus_uconst, 1, DW_OP_stack_value)), !dbg !3337
  %7 = load i32, i32* %m_nSamples, align 8, !dbg !3349, !tbaa !3093
  %8 = zext i32 %7 to i64, !dbg !3350
  %cmp3 = icmp ult i64 %indvars.iv.next, %8, !dbg !3350
  br i1 %cmp3, label %for.body4, label %for.inc10, !dbg !3351, !llvm.loop !3358

for.inc10:                                        ; preds = %for.body4, %for.cond2.preheader
  %indvars.iv.next27 = add nuw nsw i64 %indvars.iv26, 1, !dbg !3360
  call void @llvm.dbg.value(metadata i32 undef, metadata !3335, metadata !DIExpression(DW_OP_plus_uconst, 1, DW_OP_stack_value)), !dbg !3337
  %9 = load i32, i32* %0, align 8, !dbg !3338, !tbaa !3046
  %10 = zext i32 %9 to i64, !dbg !3341
  %cmp = icmp ult i64 %indvars.iv.next27, %10, !dbg !3341
  br i1 %cmp, label %for.cond2.preheader, label %for.end12, !dbg !3342, !llvm.loop !3361

for.end12:                                        ; preds = %for.inc10, %entry
  ret %class.CBFormat* %this, !dbg !3363
}

; Function Attrs: nounwind uwtable
define dereferenceable(64) %class.CBFormat* @_ZN8CBFormatmIERKS_(%class.CBFormat* returned %this, %class.CBFormat* dereferenceable(64) %bf) local_unnamed_addr #7 align 2 !dbg !3364 {
entry:
  call void @llvm.dbg.value(metadata %class.CBFormat* %this, metadata !3366, metadata !DIExpression()), !dbg !3370
  call void @llvm.dbg.value(metadata %class.CBFormat* %bf, metadata !3367, metadata !DIExpression()), !dbg !3370
  call void @llvm.dbg.value(metadata i32 0, metadata !3368, metadata !DIExpression()), !dbg !3370
  call void @llvm.dbg.value(metadata i32 0, metadata !3369, metadata !DIExpression()), !dbg !3370
  call void @llvm.dbg.value(metadata i32 0, metadata !3368, metadata !DIExpression()), !dbg !3370
  %0 = getelementptr inbounds %class.CBFormat, %class.CBFormat* %this, i64 0, i32 0, i32 4, !dbg !3371
  %1 = load i32, i32* %0, align 8, !dbg !3371, !tbaa !3046
  %cmp23 = icmp eq i32 %1, 0, !dbg !3374
  br i1 %cmp23, label %for.end12, label %for.cond2.preheader.lr.ph, !dbg !3375

for.cond2.preheader.lr.ph:                        ; preds = %entry
  %m_nSamples = getelementptr inbounds %class.CBFormat, %class.CBFormat* %this, i64 0, i32 1, !dbg !3376
  %m_ppfChannels = getelementptr inbounds %class.CBFormat, %class.CBFormat* %bf, i64 0, i32 4, !dbg !3380
  %m_ppfChannels5 = getelementptr inbounds %class.CBFormat, %class.CBFormat* %this, i64 0, i32 4, !dbg !3380
  br label %for.cond2.preheader, !dbg !3375

for.cond2.preheader:                              ; preds = %for.cond2.preheader.lr.ph, %for.inc10
  %indvars.iv26 = phi i64 [ 0, %for.cond2.preheader.lr.ph ], [ %indvars.iv.next27, %for.inc10 ]
  call void @llvm.dbg.value(metadata i64 %indvars.iv26, metadata !3368, metadata !DIExpression()), !dbg !3370
  call void @llvm.dbg.value(metadata i32 0, metadata !3369, metadata !DIExpression()), !dbg !3370
  %2 = load i32, i32* %m_nSamples, align 8, !dbg !3382, !tbaa !3093
  %cmp321 = icmp eq i32 %2, 0, !dbg !3383
  br i1 %cmp321, label %for.inc10, label %for.body4, !dbg !3384

for.body4:                                        ; preds = %for.cond2.preheader, %for.body4
  %indvars.iv = phi i64 [ %indvars.iv.next, %for.body4 ], [ 0, %for.cond2.preheader ]
  call void @llvm.dbg.value(metadata i64 %indvars.iv, metadata !3369, metadata !DIExpression()), !dbg !3370
  %call = tail call dereferenceable(8) float** @_ZNKSt10unique_ptrIA_PfSt14default_deleteIS1_EEixEm(%"class.std::unique_ptr"* nonnull %m_ppfChannels, i64 %indvars.iv26), !dbg !3385
  %3 = load float*, float** %call, align 8, !dbg !3385, !tbaa !3163
  %arrayidx = getelementptr inbounds float, float* %3, i64 %indvars.iv, !dbg !3385
  %4 = load float, float* %arrayidx, align 4, !dbg !3385, !tbaa !3353
  %call7 = tail call dereferenceable(8) float** @_ZNKSt10unique_ptrIA_PfSt14default_deleteIS1_EEixEm(%"class.std::unique_ptr"* nonnull %m_ppfChannels5, i64 %indvars.iv26), !dbg !3386
  %5 = load float*, float** %call7, align 8, !dbg !3386, !tbaa !3163
  %arrayidx9 = getelementptr inbounds float, float* %5, i64 %indvars.iv, !dbg !3386
  %6 = load float, float* %arrayidx9, align 4, !dbg !3387, !tbaa !3353
  %sub = fsub float %6, %4, !dbg !3387
  store float %sub, float* %arrayidx9, align 4, !dbg !3387, !tbaa !3353
  %indvars.iv.next = add nuw nsw i64 %indvars.iv, 1, !dbg !3388
  call void @llvm.dbg.value(metadata i32 undef, metadata !3369, metadata !DIExpression(DW_OP_plus_uconst, 1, DW_OP_stack_value)), !dbg !3370
  %7 = load i32, i32* %m_nSamples, align 8, !dbg !3382, !tbaa !3093
  %8 = zext i32 %7 to i64, !dbg !3383
  %cmp3 = icmp ult i64 %indvars.iv.next, %8, !dbg !3383
  br i1 %cmp3, label %for.body4, label %for.inc10, !dbg !3384, !llvm.loop !3389

for.inc10:                                        ; preds = %for.body4, %for.cond2.preheader
  %indvars.iv.next27 = add nuw nsw i64 %indvars.iv26, 1, !dbg !3391
  call void @llvm.dbg.value(metadata i32 undef, metadata !3368, metadata !DIExpression(DW_OP_plus_uconst, 1, DW_OP_stack_value)), !dbg !3370
  %9 = load i32, i32* %0, align 8, !dbg !3371, !tbaa !3046
  %10 = zext i32 %9 to i64, !dbg !3374
  %cmp = icmp ult i64 %indvars.iv.next27, %10, !dbg !3374
  br i1 %cmp, label %for.cond2.preheader, label %for.end12, !dbg !3375, !llvm.loop !3392

for.end12:                                        ; preds = %for.inc10, %entry
  ret %class.CBFormat* %this, !dbg !3394
}

; Function Attrs: nounwind uwtable
define dereferenceable(64) %class.CBFormat* @_ZN8CBFormatmLERKS_(%class.CBFormat* returned %this, %class.CBFormat* dereferenceable(64) %bf) local_unnamed_addr #7 align 2 !dbg !3395 {
entry:
  call void @llvm.dbg.value(metadata %class.CBFormat* %this, metadata !3397, metadata !DIExpression()), !dbg !3401
  call void @llvm.dbg.value(metadata %class.CBFormat* %bf, metadata !3398, metadata !DIExpression()), !dbg !3401
  call void @llvm.dbg.value(metadata i32 0, metadata !3399, metadata !DIExpression()), !dbg !3401
  call void @llvm.dbg.value(metadata i32 0, metadata !3400, metadata !DIExpression()), !dbg !3401
  call void @llvm.dbg.value(metadata i32 0, metadata !3399, metadata !DIExpression()), !dbg !3401
  %0 = getelementptr inbounds %class.CBFormat, %class.CBFormat* %this, i64 0, i32 0, i32 4, !dbg !3402
  %1 = load i32, i32* %0, align 8, !dbg !3402, !tbaa !3046
  %cmp23 = icmp eq i32 %1, 0, !dbg !3405
  br i1 %cmp23, label %for.end12, label %for.cond2.preheader.lr.ph, !dbg !3406

for.cond2.preheader.lr.ph:                        ; preds = %entry
  %m_nSamples = getelementptr inbounds %class.CBFormat, %class.CBFormat* %this, i64 0, i32 1, !dbg !3407
  %m_ppfChannels = getelementptr inbounds %class.CBFormat, %class.CBFormat* %bf, i64 0, i32 4, !dbg !3411
  %m_ppfChannels5 = getelementptr inbounds %class.CBFormat, %class.CBFormat* %this, i64 0, i32 4, !dbg !3411
  br label %for.cond2.preheader, !dbg !3406

for.cond2.preheader:                              ; preds = %for.cond2.preheader.lr.ph, %for.inc10
  %indvars.iv26 = phi i64 [ 0, %for.cond2.preheader.lr.ph ], [ %indvars.iv.next27, %for.inc10 ]
  call void @llvm.dbg.value(metadata i64 %indvars.iv26, metadata !3399, metadata !DIExpression()), !dbg !3401
  call void @llvm.dbg.value(metadata i32 0, metadata !3400, metadata !DIExpression()), !dbg !3401
  %2 = load i32, i32* %m_nSamples, align 8, !dbg !3413, !tbaa !3093
  %cmp321 = icmp eq i32 %2, 0, !dbg !3414
  br i1 %cmp321, label %for.inc10, label %for.body4, !dbg !3415

for.body4:                                        ; preds = %for.cond2.preheader, %for.body4
  %indvars.iv = phi i64 [ %indvars.iv.next, %for.body4 ], [ 0, %for.cond2.preheader ]
  call void @llvm.dbg.value(metadata i64 %indvars.iv, metadata !3400, metadata !DIExpression()), !dbg !3401
  %call = tail call dereferenceable(8) float** @_ZNKSt10unique_ptrIA_PfSt14default_deleteIS1_EEixEm(%"class.std::unique_ptr"* nonnull %m_ppfChannels, i64 %indvars.iv26), !dbg !3416
  %3 = load float*, float** %call, align 8, !dbg !3416, !tbaa !3163
  %arrayidx = getelementptr inbounds float, float* %3, i64 %indvars.iv, !dbg !3416
  %4 = load float, float* %arrayidx, align 4, !dbg !3416, !tbaa !3353
  %call7 = tail call dereferenceable(8) float** @_ZNKSt10unique_ptrIA_PfSt14default_deleteIS1_EEixEm(%"class.std::unique_ptr"* nonnull %m_ppfChannels5, i64 %indvars.iv26), !dbg !3417
  %5 = load float*, float** %call7, align 8, !dbg !3417, !tbaa !3163
  %arrayidx9 = getelementptr inbounds float, float* %5, i64 %indvars.iv, !dbg !3417
  %6 = load float, float* %arrayidx9, align 4, !dbg !3418, !tbaa !3353
  %mul = fmul float %4, %6, !dbg !3418
  store float %mul, float* %arrayidx9, align 4, !dbg !3418, !tbaa !3353
  %indvars.iv.next = add nuw nsw i64 %indvars.iv, 1, !dbg !3419
  call void @llvm.dbg.value(metadata i32 undef, metadata !3400, metadata !DIExpression(DW_OP_plus_uconst, 1, DW_OP_stack_value)), !dbg !3401
  %7 = load i32, i32* %m_nSamples, align 8, !dbg !3413, !tbaa !3093
  %8 = zext i32 %7 to i64, !dbg !3414
  %cmp3 = icmp ult i64 %indvars.iv.next, %8, !dbg !3414
  br i1 %cmp3, label %for.body4, label %for.inc10, !dbg !3415, !llvm.loop !3420

for.inc10:                                        ; preds = %for.body4, %for.cond2.preheader
  %indvars.iv.next27 = add nuw nsw i64 %indvars.iv26, 1, !dbg !3422
  call void @llvm.dbg.value(metadata i32 undef, metadata !3399, metadata !DIExpression(DW_OP_plus_uconst, 1, DW_OP_stack_value)), !dbg !3401
  %9 = load i32, i32* %0, align 8, !dbg !3402, !tbaa !3046
  %10 = zext i32 %9 to i64, !dbg !3405
  %cmp = icmp ult i64 %indvars.iv.next27, %10, !dbg !3405
  br i1 %cmp, label %for.cond2.preheader, label %for.end12, !dbg !3406, !llvm.loop !3423

for.end12:                                        ; preds = %for.inc10, %entry
  ret %class.CBFormat* %this, !dbg !3425
}

; Function Attrs: nounwind uwtable
define dereferenceable(64) %class.CBFormat* @_ZN8CBFormatdVERKS_(%class.CBFormat* returned %this, %class.CBFormat* dereferenceable(64) %bf) local_unnamed_addr #7 align 2 !dbg !3426 {
entry:
  call void @llvm.dbg.value(metadata %class.CBFormat* %this, metadata !3428, metadata !DIExpression()), !dbg !3432
  call void @llvm.dbg.value(metadata %class.CBFormat* %bf, metadata !3429, metadata !DIExpression()), !dbg !3432
  call void @llvm.dbg.value(metadata i32 0, metadata !3430, metadata !DIExpression()), !dbg !3432
  call void @llvm.dbg.value(metadata i32 0, metadata !3431, metadata !DIExpression()), !dbg !3432
  call void @llvm.dbg.value(metadata i32 0, metadata !3430, metadata !DIExpression()), !dbg !3432
  %0 = getelementptr inbounds %class.CBFormat, %class.CBFormat* %this, i64 0, i32 0, i32 4, !dbg !3433
  %1 = load i32, i32* %0, align 8, !dbg !3433, !tbaa !3046
  %cmp23 = icmp eq i32 %1, 0, !dbg !3436
  br i1 %cmp23, label %for.end12, label %for.cond2.preheader.lr.ph, !dbg !3437

for.cond2.preheader.lr.ph:                        ; preds = %entry
  %m_nSamples = getelementptr inbounds %class.CBFormat, %class.CBFormat* %this, i64 0, i32 1, !dbg !3438
  %m_ppfChannels = getelementptr inbounds %class.CBFormat, %class.CBFormat* %bf, i64 0, i32 4, !dbg !3442
  %m_ppfChannels5 = getelementptr inbounds %class.CBFormat, %class.CBFormat* %this, i64 0, i32 4, !dbg !3442
  br label %for.cond2.preheader, !dbg !3437

for.cond2.preheader:                              ; preds = %for.cond2.preheader.lr.ph, %for.inc10
  %indvars.iv26 = phi i64 [ 0, %for.cond2.preheader.lr.ph ], [ %indvars.iv.next27, %for.inc10 ]
  call void @llvm.dbg.value(metadata i64 %indvars.iv26, metadata !3430, metadata !DIExpression()), !dbg !3432
  call void @llvm.dbg.value(metadata i32 0, metadata !3431, metadata !DIExpression()), !dbg !3432
  %2 = load i32, i32* %m_nSamples, align 8, !dbg !3444, !tbaa !3093
  %cmp321 = icmp eq i32 %2, 0, !dbg !3445
  br i1 %cmp321, label %for.inc10, label %for.body4, !dbg !3446

for.body4:                                        ; preds = %for.cond2.preheader, %for.body4
  %indvars.iv = phi i64 [ %indvars.iv.next, %for.body4 ], [ 0, %for.cond2.preheader ]
  call void @llvm.dbg.value(metadata i64 %indvars.iv, metadata !3431, metadata !DIExpression()), !dbg !3432
  %call = tail call dereferenceable(8) float** @_ZNKSt10unique_ptrIA_PfSt14default_deleteIS1_EEixEm(%"class.std::unique_ptr"* nonnull %m_ppfChannels, i64 %indvars.iv26), !dbg !3447
  %3 = load float*, float** %call, align 8, !dbg !3447, !tbaa !3163
  %arrayidx = getelementptr inbounds float, float* %3, i64 %indvars.iv, !dbg !3447
  %4 = load float, float* %arrayidx, align 4, !dbg !3447, !tbaa !3353
  %call7 = tail call dereferenceable(8) float** @_ZNKSt10unique_ptrIA_PfSt14default_deleteIS1_EEixEm(%"class.std::unique_ptr"* nonnull %m_ppfChannels5, i64 %indvars.iv26), !dbg !3448
  %5 = load float*, float** %call7, align 8, !dbg !3448, !tbaa !3163
  %arrayidx9 = getelementptr inbounds float, float* %5, i64 %indvars.iv, !dbg !3448
  %6 = load float, float* %arrayidx9, align 4, !dbg !3449, !tbaa !3353
  %div = fdiv float %6, %4, !dbg !3449
  store float %div, float* %arrayidx9, align 4, !dbg !3449, !tbaa !3353
  %indvars.iv.next = add nuw nsw i64 %indvars.iv, 1, !dbg !3450
  call void @llvm.dbg.value(metadata i32 undef, metadata !3431, metadata !DIExpression(DW_OP_plus_uconst, 1, DW_OP_stack_value)), !dbg !3432
  %7 = load i32, i32* %m_nSamples, align 8, !dbg !3444, !tbaa !3093
  %8 = zext i32 %7 to i64, !dbg !3445
  %cmp3 = icmp ult i64 %indvars.iv.next, %8, !dbg !3445
  br i1 %cmp3, label %for.body4, label %for.inc10, !dbg !3446, !llvm.loop !3451

for.inc10:                                        ; preds = %for.body4, %for.cond2.preheader
  %indvars.iv.next27 = add nuw nsw i64 %indvars.iv26, 1, !dbg !3453
  call void @llvm.dbg.value(metadata i32 undef, metadata !3430, metadata !DIExpression(DW_OP_plus_uconst, 1, DW_OP_stack_value)), !dbg !3432
  %9 = load i32, i32* %0, align 8, !dbg !3433, !tbaa !3046
  %10 = zext i32 %9 to i64, !dbg !3436
  %cmp = icmp ult i64 %indvars.iv.next27, %10, !dbg !3436
  br i1 %cmp, label %for.cond2.preheader, label %for.end12, !dbg !3437, !llvm.loop !3454

for.end12:                                        ; preds = %for.inc10, %entry
  ret %class.CBFormat* %this, !dbg !3456
}

; Function Attrs: nounwind uwtable
define dereferenceable(64) %class.CBFormat* @_ZN8CBFormatpLERKf(%class.CBFormat* returned %this, float* nocapture readonly dereferenceable(4) %fValue) local_unnamed_addr #7 align 2 !dbg !3457 {
entry:
  call void @llvm.dbg.value(metadata %class.CBFormat* %this, metadata !3459, metadata !DIExpression()), !dbg !3463
  call void @llvm.dbg.value(metadata float* %fValue, metadata !3460, metadata !DIExpression()), !dbg !3463
  call void @llvm.dbg.value(metadata i32 0, metadata !3461, metadata !DIExpression()), !dbg !3463
  call void @llvm.dbg.value(metadata i32 0, metadata !3462, metadata !DIExpression()), !dbg !3463
  call void @llvm.dbg.value(metadata i32 0, metadata !3461, metadata !DIExpression()), !dbg !3463
  %0 = getelementptr inbounds %class.CBFormat, %class.CBFormat* %this, i64 0, i32 0, i32 4, !dbg !3464
  %1 = load i32, i32* %0, align 8, !dbg !3464, !tbaa !3046
  %cmp16 = icmp eq i32 %1, 0, !dbg !3467
  br i1 %cmp16, label %for.end7, label %for.cond2.preheader.lr.ph, !dbg !3468

for.cond2.preheader.lr.ph:                        ; preds = %entry
  %m_nSamples = getelementptr inbounds %class.CBFormat, %class.CBFormat* %this, i64 0, i32 1, !dbg !3469
  %m_ppfChannels = getelementptr inbounds %class.CBFormat, %class.CBFormat* %this, i64 0, i32 4, !dbg !3473
  br label %for.cond2.preheader, !dbg !3468

for.cond2.preheader:                              ; preds = %for.cond2.preheader.lr.ph, %for.inc5
  %indvars.iv19 = phi i64 [ 0, %for.cond2.preheader.lr.ph ], [ %indvars.iv.next20, %for.inc5 ]
  call void @llvm.dbg.value(metadata i64 %indvars.iv19, metadata !3461, metadata !DIExpression()), !dbg !3463
  call void @llvm.dbg.value(metadata i32 0, metadata !3462, metadata !DIExpression()), !dbg !3463
  %2 = load i32, i32* %m_nSamples, align 8, !dbg !3475, !tbaa !3093
  %cmp314 = icmp eq i32 %2, 0, !dbg !3476
  br i1 %cmp314, label %for.inc5, label %for.body4, !dbg !3477

for.body4:                                        ; preds = %for.cond2.preheader, %for.body4
  %indvars.iv = phi i64 [ %indvars.iv.next, %for.body4 ], [ 0, %for.cond2.preheader ]
  call void @llvm.dbg.value(metadata i64 %indvars.iv, metadata !3462, metadata !DIExpression()), !dbg !3463
  %3 = load float, float* %fValue, align 4, !dbg !3478, !tbaa !3353
  %call = tail call dereferenceable(8) float** @_ZNKSt10unique_ptrIA_PfSt14default_deleteIS1_EEixEm(%"class.std::unique_ptr"* nonnull %m_ppfChannels, i64 %indvars.iv19), !dbg !3479
  %4 = load float*, float** %call, align 8, !dbg !3479, !tbaa !3163
  %arrayidx = getelementptr inbounds float, float* %4, i64 %indvars.iv, !dbg !3479
  %5 = load float, float* %arrayidx, align 4, !dbg !3480, !tbaa !3353
  %add = fadd float %3, %5, !dbg !3480
  store float %add, float* %arrayidx, align 4, !dbg !3480, !tbaa !3353
  %indvars.iv.next = add nuw nsw i64 %indvars.iv, 1, !dbg !3481
  call void @llvm.dbg.value(metadata i32 undef, metadata !3462, metadata !DIExpression(DW_OP_plus_uconst, 1, DW_OP_stack_value)), !dbg !3463
  %6 = load i32, i32* %m_nSamples, align 8, !dbg !3475, !tbaa !3093
  %7 = zext i32 %6 to i64, !dbg !3476
  %cmp3 = icmp ult i64 %indvars.iv.next, %7, !dbg !3476
  br i1 %cmp3, label %for.body4, label %for.inc5, !dbg !3477, !llvm.loop !3482

for.inc5:                                         ; preds = %for.body4, %for.cond2.preheader
  %indvars.iv.next20 = add nuw nsw i64 %indvars.iv19, 1, !dbg !3484
  call void @llvm.dbg.value(metadata i32 undef, metadata !3461, metadata !DIExpression(DW_OP_plus_uconst, 1, DW_OP_stack_value)), !dbg !3463
  %8 = load i32, i32* %0, align 8, !dbg !3464, !tbaa !3046
  %9 = zext i32 %8 to i64, !dbg !3467
  %cmp = icmp ult i64 %indvars.iv.next20, %9, !dbg !3467
  br i1 %cmp, label %for.cond2.preheader, label %for.end7, !dbg !3468, !llvm.loop !3485

for.end7:                                         ; preds = %for.inc5, %entry
  ret %class.CBFormat* %this, !dbg !3487
}

; Function Attrs: nounwind uwtable
define dereferenceable(64) %class.CBFormat* @_ZN8CBFormatmIERKf(%class.CBFormat* returned %this, float* nocapture readonly dereferenceable(4) %fValue) local_unnamed_addr #7 align 2 !dbg !3488 {
entry:
  call void @llvm.dbg.value(metadata %class.CBFormat* %this, metadata !3490, metadata !DIExpression()), !dbg !3494
  call void @llvm.dbg.value(metadata float* %fValue, metadata !3491, metadata !DIExpression()), !dbg !3494
  call void @llvm.dbg.value(metadata i32 0, metadata !3492, metadata !DIExpression()), !dbg !3494
  call void @llvm.dbg.value(metadata i32 0, metadata !3493, metadata !DIExpression()), !dbg !3494
  call void @llvm.dbg.value(metadata i32 0, metadata !3492, metadata !DIExpression()), !dbg !3494
  %0 = getelementptr inbounds %class.CBFormat, %class.CBFormat* %this, i64 0, i32 0, i32 4, !dbg !3495
  %1 = load i32, i32* %0, align 8, !dbg !3495, !tbaa !3046
  %cmp16 = icmp eq i32 %1, 0, !dbg !3498
  br i1 %cmp16, label %for.end7, label %for.cond2.preheader.lr.ph, !dbg !3499

for.cond2.preheader.lr.ph:                        ; preds = %entry
  %m_nSamples = getelementptr inbounds %class.CBFormat, %class.CBFormat* %this, i64 0, i32 1, !dbg !3500
  %m_ppfChannels = getelementptr inbounds %class.CBFormat, %class.CBFormat* %this, i64 0, i32 4, !dbg !3504
  br label %for.cond2.preheader, !dbg !3499

for.cond2.preheader:                              ; preds = %for.cond2.preheader.lr.ph, %for.inc5
  %indvars.iv19 = phi i64 [ 0, %for.cond2.preheader.lr.ph ], [ %indvars.iv.next20, %for.inc5 ]
  call void @llvm.dbg.value(metadata i64 %indvars.iv19, metadata !3492, metadata !DIExpression()), !dbg !3494
  call void @llvm.dbg.value(metadata i32 0, metadata !3493, metadata !DIExpression()), !dbg !3494
  %2 = load i32, i32* %m_nSamples, align 8, !dbg !3506, !tbaa !3093
  %cmp314 = icmp eq i32 %2, 0, !dbg !3507
  br i1 %cmp314, label %for.inc5, label %for.body4, !dbg !3508

for.body4:                                        ; preds = %for.cond2.preheader, %for.body4
  %indvars.iv = phi i64 [ %indvars.iv.next, %for.body4 ], [ 0, %for.cond2.preheader ]
  call void @llvm.dbg.value(metadata i64 %indvars.iv, metadata !3493, metadata !DIExpression()), !dbg !3494
  %3 = load float, float* %fValue, align 4, !dbg !3509, !tbaa !3353
  %call = tail call dereferenceable(8) float** @_ZNKSt10unique_ptrIA_PfSt14default_deleteIS1_EEixEm(%"class.std::unique_ptr"* nonnull %m_ppfChannels, i64 %indvars.iv19), !dbg !3510
  %4 = load float*, float** %call, align 8, !dbg !3510, !tbaa !3163
  %arrayidx = getelementptr inbounds float, float* %4, i64 %indvars.iv, !dbg !3510
  %5 = load float, float* %arrayidx, align 4, !dbg !3511, !tbaa !3353
  %sub = fsub float %5, %3, !dbg !3511
  store float %sub, float* %arrayidx, align 4, !dbg !3511, !tbaa !3353
  %indvars.iv.next = add nuw nsw i64 %indvars.iv, 1, !dbg !3512
  call void @llvm.dbg.value(metadata i32 undef, metadata !3493, metadata !DIExpression(DW_OP_plus_uconst, 1, DW_OP_stack_value)), !dbg !3494
  %6 = load i32, i32* %m_nSamples, align 8, !dbg !3506, !tbaa !3093
  %7 = zext i32 %6 to i64, !dbg !3507
  %cmp3 = icmp ult i64 %indvars.iv.next, %7, !dbg !3507
  br i1 %cmp3, label %for.body4, label %for.inc5, !dbg !3508, !llvm.loop !3513

for.inc5:                                         ; preds = %for.body4, %for.cond2.preheader
  %indvars.iv.next20 = add nuw nsw i64 %indvars.iv19, 1, !dbg !3515
  call void @llvm.dbg.value(metadata i32 undef, metadata !3492, metadata !DIExpression(DW_OP_plus_uconst, 1, DW_OP_stack_value)), !dbg !3494
  %8 = load i32, i32* %0, align 8, !dbg !3495, !tbaa !3046
  %9 = zext i32 %8 to i64, !dbg !3498
  %cmp = icmp ult i64 %indvars.iv.next20, %9, !dbg !3498
  br i1 %cmp, label %for.cond2.preheader, label %for.end7, !dbg !3499, !llvm.loop !3516

for.end7:                                         ; preds = %for.inc5, %entry
  ret %class.CBFormat* %this, !dbg !3518
}

; Function Attrs: nounwind uwtable
define dereferenceable(64) %class.CBFormat* @_ZN8CBFormatmLERKf(%class.CBFormat* returned %this, float* nocapture readonly dereferenceable(4) %fValue) local_unnamed_addr #7 align 2 !dbg !3519 {
entry:
  call void @llvm.dbg.value(metadata %class.CBFormat* %this, metadata !3521, metadata !DIExpression()), !dbg !3525
  call void @llvm.dbg.value(metadata float* %fValue, metadata !3522, metadata !DIExpression()), !dbg !3525
  call void @llvm.dbg.value(metadata i32 0, metadata !3523, metadata !DIExpression()), !dbg !3525
  call void @llvm.dbg.value(metadata i32 0, metadata !3524, metadata !DIExpression()), !dbg !3525
  call void @llvm.dbg.value(metadata i32 0, metadata !3523, metadata !DIExpression()), !dbg !3525
  %0 = getelementptr inbounds %class.CBFormat, %class.CBFormat* %this, i64 0, i32 0, i32 4, !dbg !3526
  %1 = load i32, i32* %0, align 8, !dbg !3526, !tbaa !3046
  %cmp16 = icmp eq i32 %1, 0, !dbg !3529
  br i1 %cmp16, label %for.end7, label %for.cond2.preheader.lr.ph, !dbg !3530

for.cond2.preheader.lr.ph:                        ; preds = %entry
  %m_nSamples = getelementptr inbounds %class.CBFormat, %class.CBFormat* %this, i64 0, i32 1, !dbg !3531
  %m_ppfChannels = getelementptr inbounds %class.CBFormat, %class.CBFormat* %this, i64 0, i32 4, !dbg !3535
  br label %for.cond2.preheader, !dbg !3530

for.cond2.preheader:                              ; preds = %for.cond2.preheader.lr.ph, %for.inc5
  %indvars.iv19 = phi i64 [ 0, %for.cond2.preheader.lr.ph ], [ %indvars.iv.next20, %for.inc5 ]
  call void @llvm.dbg.value(metadata i64 %indvars.iv19, metadata !3523, metadata !DIExpression()), !dbg !3525
  call void @llvm.dbg.value(metadata i32 0, metadata !3524, metadata !DIExpression()), !dbg !3525
  %2 = load i32, i32* %m_nSamples, align 8, !dbg !3537, !tbaa !3093
  %cmp314 = icmp eq i32 %2, 0, !dbg !3538
  br i1 %cmp314, label %for.inc5, label %for.body4, !dbg !3539

for.body4:                                        ; preds = %for.cond2.preheader, %for.body4
  %indvars.iv = phi i64 [ %indvars.iv.next, %for.body4 ], [ 0, %for.cond2.preheader ]
  call void @llvm.dbg.value(metadata i64 %indvars.iv, metadata !3524, metadata !DIExpression()), !dbg !3525
  %3 = load float, float* %fValue, align 4, !dbg !3540, !tbaa !3353
  %call = tail call dereferenceable(8) float** @_ZNKSt10unique_ptrIA_PfSt14default_deleteIS1_EEixEm(%"class.std::unique_ptr"* nonnull %m_ppfChannels, i64 %indvars.iv19), !dbg !3541
  %4 = load float*, float** %call, align 8, !dbg !3541, !tbaa !3163
  %arrayidx = getelementptr inbounds float, float* %4, i64 %indvars.iv, !dbg !3541
  %5 = load float, float* %arrayidx, align 4, !dbg !3542, !tbaa !3353
  %mul = fmul float %3, %5, !dbg !3542
  store float %mul, float* %arrayidx, align 4, !dbg !3542, !tbaa !3353
  %indvars.iv.next = add nuw nsw i64 %indvars.iv, 1, !dbg !3543
  call void @llvm.dbg.value(metadata i32 undef, metadata !3524, metadata !DIExpression(DW_OP_plus_uconst, 1, DW_OP_stack_value)), !dbg !3525
  %6 = load i32, i32* %m_nSamples, align 8, !dbg !3537, !tbaa !3093
  %7 = zext i32 %6 to i64, !dbg !3538
  %cmp3 = icmp ult i64 %indvars.iv.next, %7, !dbg !3538
  br i1 %cmp3, label %for.body4, label %for.inc5, !dbg !3539, !llvm.loop !3544

for.inc5:                                         ; preds = %for.body4, %for.cond2.preheader
  %indvars.iv.next20 = add nuw nsw i64 %indvars.iv19, 1, !dbg !3546
  call void @llvm.dbg.value(metadata i32 undef, metadata !3523, metadata !DIExpression(DW_OP_plus_uconst, 1, DW_OP_stack_value)), !dbg !3525
  %8 = load i32, i32* %0, align 8, !dbg !3526, !tbaa !3046
  %9 = zext i32 %8 to i64, !dbg !3529
  %cmp = icmp ult i64 %indvars.iv.next20, %9, !dbg !3529
  br i1 %cmp, label %for.cond2.preheader, label %for.end7, !dbg !3530, !llvm.loop !3547

for.end7:                                         ; preds = %for.inc5, %entry
  ret %class.CBFormat* %this, !dbg !3549
}

; Function Attrs: nounwind uwtable
define dereferenceable(64) %class.CBFormat* @_ZN8CBFormatdVERKf(%class.CBFormat* returned %this, float* nocapture readonly dereferenceable(4) %fValue) local_unnamed_addr #7 align 2 !dbg !3550 {
entry:
  call void @llvm.dbg.value(metadata %class.CBFormat* %this, metadata !3552, metadata !DIExpression()), !dbg !3556
  call void @llvm.dbg.value(metadata float* %fValue, metadata !3553, metadata !DIExpression()), !dbg !3556
  call void @llvm.dbg.value(metadata i32 0, metadata !3554, metadata !DIExpression()), !dbg !3556
  call void @llvm.dbg.value(metadata i32 0, metadata !3555, metadata !DIExpression()), !dbg !3556
  call void @llvm.dbg.value(metadata i32 0, metadata !3554, metadata !DIExpression()), !dbg !3556
  %0 = getelementptr inbounds %class.CBFormat, %class.CBFormat* %this, i64 0, i32 0, i32 4, !dbg !3557
  %1 = load i32, i32* %0, align 8, !dbg !3557, !tbaa !3046
  %cmp16 = icmp eq i32 %1, 0, !dbg !3560
  br i1 %cmp16, label %for.end7, label %for.cond2.preheader.lr.ph, !dbg !3561

for.cond2.preheader.lr.ph:                        ; preds = %entry
  %m_nSamples = getelementptr inbounds %class.CBFormat, %class.CBFormat* %this, i64 0, i32 1, !dbg !3562
  %m_ppfChannels = getelementptr inbounds %class.CBFormat, %class.CBFormat* %this, i64 0, i32 4, !dbg !3566
  br label %for.cond2.preheader, !dbg !3561

for.cond2.preheader:                              ; preds = %for.cond2.preheader.lr.ph, %for.inc5
  %indvars.iv19 = phi i64 [ 0, %for.cond2.preheader.lr.ph ], [ %indvars.iv.next20, %for.inc5 ]
  call void @llvm.dbg.value(metadata i64 %indvars.iv19, metadata !3554, metadata !DIExpression()), !dbg !3556
  call void @llvm.dbg.value(metadata i32 0, metadata !3555, metadata !DIExpression()), !dbg !3556
  %2 = load i32, i32* %m_nSamples, align 8, !dbg !3568, !tbaa !3093
  %cmp314 = icmp eq i32 %2, 0, !dbg !3569
  br i1 %cmp314, label %for.inc5, label %for.body4, !dbg !3570

for.body4:                                        ; preds = %for.cond2.preheader, %for.body4
  %indvars.iv = phi i64 [ %indvars.iv.next, %for.body4 ], [ 0, %for.cond2.preheader ]
  call void @llvm.dbg.value(metadata i64 %indvars.iv, metadata !3555, metadata !DIExpression()), !dbg !3556
  %3 = load float, float* %fValue, align 4, !dbg !3571, !tbaa !3353
  %call = tail call dereferenceable(8) float** @_ZNKSt10unique_ptrIA_PfSt14default_deleteIS1_EEixEm(%"class.std::unique_ptr"* nonnull %m_ppfChannels, i64 %indvars.iv19), !dbg !3572
  %4 = load float*, float** %call, align 8, !dbg !3572, !tbaa !3163
  %arrayidx = getelementptr inbounds float, float* %4, i64 %indvars.iv, !dbg !3572
  %5 = load float, float* %arrayidx, align 4, !dbg !3573, !tbaa !3353
  %div = fdiv float %5, %3, !dbg !3573
  store float %div, float* %arrayidx, align 4, !dbg !3573, !tbaa !3353
  %indvars.iv.next = add nuw nsw i64 %indvars.iv, 1, !dbg !3574
  call void @llvm.dbg.value(metadata i32 undef, metadata !3555, metadata !DIExpression(DW_OP_plus_uconst, 1, DW_OP_stack_value)), !dbg !3556
  %6 = load i32, i32* %m_nSamples, align 8, !dbg !3568, !tbaa !3093
  %7 = zext i32 %6 to i64, !dbg !3569
  %cmp3 = icmp ult i64 %indvars.iv.next, %7, !dbg !3569
  br i1 %cmp3, label %for.body4, label %for.inc5, !dbg !3570, !llvm.loop !3575

for.inc5:                                         ; preds = %for.body4, %for.cond2.preheader
  %indvars.iv.next20 = add nuw nsw i64 %indvars.iv19, 1, !dbg !3577
  call void @llvm.dbg.value(metadata i32 undef, metadata !3554, metadata !DIExpression(DW_OP_plus_uconst, 1, DW_OP_stack_value)), !dbg !3556
  %8 = load i32, i32* %0, align 8, !dbg !3557, !tbaa !3046
  %9 = zext i32 %8 to i64, !dbg !3560
  %cmp = icmp ult i64 %indvars.iv.next20, %9, !dbg !3560
  br i1 %cmp, label %for.cond2.preheader, label %for.end7, !dbg !3561, !llvm.loop !3578

for.end7:                                         ; preds = %for.inc5, %entry
  ret %class.CBFormat* %this, !dbg !3580
}

; Function Attrs: nounwind uwtable
define void @_ZN16CAmbisonicSourceC2Ev(%class.CAmbisonicSource* %this) unnamed_addr #7 align 2 !dbg !3581 {
entry:
  call void @llvm.dbg.value(metadata %class.CAmbisonicSource* %this, metadata !3583, metadata !DIExpression()), !dbg !3585
  %0 = bitcast %class.CAmbisonicSource* %this to %class.CAmbisonicBase*, !dbg !3586
  tail call void @_ZN14CAmbisonicBaseC2Ev(%class.CAmbisonicBase* %0), !dbg !3587
  %1 = getelementptr inbounds %class.CAmbisonicSource, %class.CAmbisonicSource* %this, i64 0, i32 0, i32 0, !dbg !3586
  store i32 (...)** bitcast (i8** getelementptr inbounds ({ [16 x i8*] }, { [16 x i8*] }* @_ZTV16CAmbisonicSource, i64 0, inrange i32 0, i64 2) to i32 (...)**), i32 (...)*** %1, align 8, !dbg !3586, !tbaa !3034
  %m_pfCoeff = getelementptr inbounds %class.CAmbisonicSource, %class.CAmbisonicSource* %this, i64 0, i32 1, !dbg !3587
  tail call void @_ZNSt6vectorIfSaIfEEC2Ev(%"class.std::vector"* nonnull %m_pfCoeff) #23, !dbg !3587
  %m_pfOrderWeights = getelementptr inbounds %class.CAmbisonicSource, %class.CAmbisonicSource* %this, i64 0, i32 2, !dbg !3587
  tail call void @_ZNSt6vectorIfSaIfEEC2Ev(%"class.std::vector"* nonnull %m_pfOrderWeights) #23, !dbg !3587
  %fAzimuth = getelementptr inbounds %class.CAmbisonicSource, %class.CAmbisonicSource* %this, i64 0, i32 3, i32 0, !dbg !3588
  store float 0.000000e+00, float* %fAzimuth, align 8, !dbg !3590, !tbaa !3591
  %fElevation = getelementptr inbounds %class.CAmbisonicSource, %class.CAmbisonicSource* %this, i64 0, i32 3, i32 1, !dbg !3594
  store float 0.000000e+00, float* %fElevation, align 4, !dbg !3595, !tbaa !3596
  %fDistance = getelementptr inbounds %class.CAmbisonicSource, %class.CAmbisonicSource* %this, i64 0, i32 3, i32 2, !dbg !3597
  store float 1.000000e+00, float* %fDistance, align 8, !dbg !3598, !tbaa !3599
  %m_fGain = getelementptr inbounds %class.CAmbisonicSource, %class.CAmbisonicSource* %this, i64 0, i32 4, !dbg !3600
  store float 1.000000e+00, float* %m_fGain, align 4, !dbg !3601, !tbaa !3602
  ret void, !dbg !3603
}

; Function Attrs: uwtable
define zeroext i1 @_ZN16CAmbisonicSource9ConfigureEjbj(%class.CAmbisonicSource* %this, i32 %nOrder, i1 zeroext %b3D, i32 %nMisc) unnamed_addr #0 align 2 !dbg !3604 {
entry:
  %ref.tmp = alloca float, align 4
  %ref.tmp5 = alloca float, align 4
  call void @llvm.dbg.value(metadata %class.CAmbisonicSource* %this, metadata !3606, metadata !DIExpression()), !dbg !3611
  call void @llvm.dbg.value(metadata i32 %nOrder, metadata !3607, metadata !DIExpression()), !dbg !3611
  call void @llvm.dbg.value(metadata i1 %b3D, metadata !3608, metadata !DIExpression()), !dbg !3611
  call void @llvm.dbg.value(metadata i32 undef, metadata !3609, metadata !DIExpression()), !dbg !3611
  %0 = bitcast %class.CAmbisonicSource* %this to %class.CAmbisonicBase*, !dbg !3612
  %call = tail call zeroext i1 @_ZN14CAmbisonicBase9ConfigureEjbj(%class.CAmbisonicBase* %0, i32 %nOrder, i1 zeroext %b3D, i32 undef), !dbg !3612
  call void @llvm.dbg.value(metadata i8 1, metadata !3610, metadata !DIExpression()), !dbg !3611
  %m_pfCoeff = getelementptr inbounds %class.CAmbisonicSource, %class.CAmbisonicSource* %this, i64 0, i32 1, !dbg !3613
  %1 = getelementptr inbounds %class.CAmbisonicSource, %class.CAmbisonicSource* %this, i64 0, i32 0, i32 4, !dbg !3614
  %2 = load i32, i32* %1, align 8, !dbg !3614, !tbaa !3046
  %conv = zext i32 %2 to i64, !dbg !3614
  %3 = bitcast float* %ref.tmp to i8*, !dbg !3615
  call void @llvm.lifetime.start.p0i8(i64 4, i8* nonnull %3) #23, !dbg !3615
  store float 0.000000e+00, float* %ref.tmp, align 4, !dbg !3615, !tbaa !3353
  call void @_ZNSt6vectorIfSaIfEE6resizeEmRKf(%"class.std::vector"* nonnull %m_pfCoeff, i64 %conv, float* nonnull dereferenceable(4) %ref.tmp), !dbg !3616
  call void @llvm.lifetime.end.p0i8(i64 4, i8* nonnull %3) #23, !dbg !3613
  %m_pfOrderWeights = getelementptr inbounds %class.CAmbisonicSource, %class.CAmbisonicSource* %this, i64 0, i32 2, !dbg !3617
  %4 = getelementptr inbounds %class.CAmbisonicSource, %class.CAmbisonicSource* %this, i64 0, i32 0, i32 1, !dbg !3618
  %5 = load i32, i32* %4, align 8, !dbg !3618, !tbaa !3038
  %add = add i32 %5, 1, !dbg !3619
  %conv4 = zext i32 %add to i64, !dbg !3618
  %6 = bitcast float* %ref.tmp5 to i8*, !dbg !3620
  call void @llvm.lifetime.start.p0i8(i64 4, i8* nonnull %6) #23, !dbg !3620
  store float 1.000000e+00, float* %ref.tmp5, align 4, !dbg !3620, !tbaa !3353
  call void @_ZNSt6vectorIfSaIfEE6resizeEmRKf(%"class.std::vector"* nonnull %m_pfOrderWeights, i64 %conv4, float* nonnull dereferenceable(4) %ref.tmp5), !dbg !3621
  call void @llvm.lifetime.end.p0i8(i64 4, i8* nonnull %6) #23, !dbg !3617
  ret i1 true, !dbg !3622
}

; Function Attrs: uwtable
define linkonce_odr void @_ZNSt6vectorIfSaIfEE6resizeEmRKf(%"class.std::vector"* %this, i64 %__new_size, float* dereferenceable(4) %__x) local_unnamed_addr #0 comdat align 2 !dbg !3623 {
entry:
  %agg.tmp = alloca %"class.__gnu_cxx::__normal_iterator.11", align 8
  %ref.tmp = alloca %"class.__gnu_cxx::__normal_iterator", align 8
  call void @llvm.dbg.value(metadata %"class.std::vector"* %this, metadata !3625, metadata !DIExpression()), !dbg !3628
  call void @llvm.dbg.value(metadata i64 %__new_size, metadata !3626, metadata !DIExpression()), !dbg !3628
  call void @llvm.dbg.value(metadata float* %__x, metadata !3627, metadata !DIExpression()), !dbg !3628
  %call = tail call i64 @_ZNKSt6vectorIfSaIfEE4sizeEv(%"class.std::vector"* %this) #23, !dbg !3629
  %cmp = icmp ult i64 %call, %__new_size, !dbg !3631
  br i1 %cmp, label %if.then, label %if.else, !dbg !3632

if.then:                                          ; preds = %entry
  %0 = bitcast %"class.__gnu_cxx::__normal_iterator"* %ref.tmp to i8*, !dbg !3633
  call void @llvm.lifetime.start.p0i8(i64 8, i8* nonnull %0) #23, !dbg !3633
  %call2 = tail call float* @_ZNSt6vectorIfSaIfEE3endEv(%"class.std::vector"* %this) #23, !dbg !3633
  %coerce.dive = getelementptr inbounds %"class.__gnu_cxx::__normal_iterator", %"class.__gnu_cxx::__normal_iterator"* %ref.tmp, i64 0, i32 0, !dbg !3633
  store float* %call2, float** %coerce.dive, align 8, !dbg !3633
  call void @_ZN9__gnu_cxx17__normal_iteratorIPKfSt6vectorIfSaIfEEEC2IPfEERKNS0_IT_NS_11__enable_ifIXsr3std10__are_sameIS9_S8_EE7__valueES5_E6__typeEEE(%"class.__gnu_cxx::__normal_iterator.11"* nonnull %agg.tmp, %"class.__gnu_cxx::__normal_iterator"* nonnull dereferenceable(8) %ref.tmp) #23, !dbg !3633
  %call3 = call i64 @_ZNKSt6vectorIfSaIfEE4sizeEv(%"class.std::vector"* %this) #23, !dbg !3634
  %sub = sub i64 %__new_size, %call3, !dbg !3635
  %coerce.dive4 = getelementptr inbounds %"class.__gnu_cxx::__normal_iterator.11", %"class.__gnu_cxx::__normal_iterator.11"* %agg.tmp, i64 0, i32 0, !dbg !3636
  %1 = load float*, float** %coerce.dive4, align 8, !dbg !3636
  %call5 = call float* @_ZNSt6vectorIfSaIfEE6insertEN9__gnu_cxx17__normal_iteratorIPKfS1_EEmRS4_(%"class.std::vector"* %this, float* %1, i64 %sub, float* nonnull dereferenceable(4) %__x), !dbg !3636
  call void @llvm.lifetime.end.p0i8(i64 8, i8* nonnull %0) #23, !dbg !3636
  br label %if.end10, !dbg !3636

if.else:                                          ; preds = %entry
  %call7 = tail call i64 @_ZNKSt6vectorIfSaIfEE4sizeEv(%"class.std::vector"* %this) #23, !dbg !3637
  %cmp8 = icmp ugt i64 %call7, %__new_size, !dbg !3639
  br i1 %cmp8, label %if.then9, label %if.end10, !dbg !3640

if.then9:                                         ; preds = %if.else
  %_M_start = getelementptr inbounds %"class.std::vector", %"class.std::vector"* %this, i64 0, i32 0, i32 0, i32 0, !dbg !3641
  %2 = load float*, float** %_M_start, align 8, !dbg !3641, !tbaa !3185
  %add.ptr = getelementptr inbounds float, float* %2, i64 %__new_size, !dbg !3642
  tail call void @_ZNSt6vectorIfSaIfEE15_M_erase_at_endEPf(%"class.std::vector"* %this, float* %add.ptr) #23, !dbg !3643
  br label %if.end10, !dbg !3643

if.end10:                                         ; preds = %if.else, %if.then9, %if.then
  ret void, !dbg !3644
}

; Function Attrs: norecurse nounwind readnone uwtable
define void @_ZN16CAmbisonicSource5ResetEv(%class.CAmbisonicSource* nocapture %this) unnamed_addr #10 align 2 !dbg !3645 {
entry:
  call void @llvm.dbg.value(metadata %class.CAmbisonicSource* undef, metadata !3647, metadata !DIExpression()), !dbg !3648
  ret void, !dbg !3649
}

; Function Attrs: nounwind uwtable
define void @_ZN16CAmbisonicSource7RefreshEv(%class.CAmbisonicSource* %this) unnamed_addr #7 align 2 !dbg !3650 {
entry:
  call void @llvm.dbg.value(metadata %class.CAmbisonicSource* %this, metadata !3652, metadata !DIExpression()), !dbg !3662
  %fAzimuth = getelementptr inbounds %class.CAmbisonicSource, %class.CAmbisonicSource* %this, i64 0, i32 3, i32 0, !dbg !3663
  %0 = load float, float* %fAzimuth, align 8, !dbg !3663, !tbaa !3591
  %call = tail call float @cosf(float %0) #23, !dbg !3664
  call void @llvm.dbg.value(metadata float %call, metadata !3653, metadata !DIExpression()), !dbg !3662
  %1 = load float, float* %fAzimuth, align 8, !dbg !3665, !tbaa !3591
  %call4 = tail call float @sinf(float %1) #23, !dbg !3666
  call void @llvm.dbg.value(metadata float %call4, metadata !3654, metadata !DIExpression()), !dbg !3662
  %fElevation = getelementptr inbounds %class.CAmbisonicSource, %class.CAmbisonicSource* %this, i64 0, i32 3, i32 1, !dbg !3667
  %2 = load float, float* %fElevation, align 4, !dbg !3667, !tbaa !3596
  %call6 = tail call float @cosf(float %2) #23, !dbg !3668
  call void @llvm.dbg.value(metadata float %call6, metadata !3655, metadata !DIExpression()), !dbg !3662
  %3 = load float, float* %fElevation, align 4, !dbg !3669, !tbaa !3596
  %call9 = tail call float @sinf(float %3) #23, !dbg !3670
  call void @llvm.dbg.value(metadata float %call9, metadata !3656, metadata !DIExpression()), !dbg !3662
  %4 = load float, float* %fAzimuth, align 8, !dbg !3671, !tbaa !3591
  %mul = fmul float %4, 2.000000e+00, !dbg !3672
  %call12 = tail call float @cosf(float %mul) #23, !dbg !3673
  call void @llvm.dbg.value(metadata float %call12, metadata !3657, metadata !DIExpression()), !dbg !3662
  %5 = load float, float* %fAzimuth, align 8, !dbg !3674, !tbaa !3591
  %mul15 = fmul float %5, 2.000000e+00, !dbg !3675
  %call16 = tail call float @sinf(float %mul15) #23, !dbg !3676
  call void @llvm.dbg.value(metadata float %call16, metadata !3658, metadata !DIExpression()), !dbg !3662
  %6 = load float, float* %fElevation, align 4, !dbg !3677, !tbaa !3596
  %mul19 = fmul float %6, 2.000000e+00, !dbg !3678
  %call20 = tail call float @sinf(float %mul19) #23, !dbg !3679
  call void @llvm.dbg.value(metadata float %call20, metadata !3659, metadata !DIExpression()), !dbg !3662
  %7 = getelementptr inbounds %class.CAmbisonicSource, %class.CAmbisonicSource* %this, i64 0, i32 0, i32 2, !dbg !3680
  %8 = load i8, i8* %7, align 4, !dbg !3680, !tbaa !3044, !range !3061
  %tobool = icmp eq i8 %8, 0, !dbg !3680
  %9 = getelementptr inbounds %class.CAmbisonicSource, %class.CAmbisonicSource* %this, i64 0, i32 0, i32 1, !dbg !3682
  %m_pfOrderWeights212 = getelementptr inbounds %class.CAmbisonicSource, %class.CAmbisonicSource* %this, i64 0, i32 2, !dbg !3682
  %call213 = tail call dereferenceable(4) float* @_ZNSt6vectorIfSaIfEEixEm(%"class.std::vector"* nonnull %m_pfOrderWeights212, i64 0) #23, !dbg !3682
  %10 = bitcast float* %call213 to i32*, !dbg !3682
  %11 = load i32, i32* %10, align 4, !dbg !3682, !tbaa !3353
  %m_pfCoeff214 = getelementptr inbounds %class.CAmbisonicSource, %class.CAmbisonicSource* %this, i64 0, i32 1, !dbg !3682
  %call215 = tail call dereferenceable(4) float* @_ZNSt6vectorIfSaIfEEixEm(%"class.std::vector"* nonnull %m_pfCoeff214, i64 0) #23, !dbg !3682
  %12 = bitcast float* %call215 to i32*, !dbg !3682
  store i32 %11, i32* %12, align 4, !dbg !3682, !tbaa !3353
  %13 = load i32, i32* %9, align 8, !dbg !3682, !tbaa !3038
  %cmp218 = icmp eq i32 %13, 0, !dbg !3682
  br i1 %tobool, label %if.then211, label %if.then21, !dbg !3683

if.then21:                                        ; preds = %entry
  br i1 %cmp218, label %if.end277, label %if.end45, !dbg !3684

if.end45:                                         ; preds = %if.then21
  %mul28 = fmul float %call4, %call6, !dbg !3686
  %call30 = tail call dereferenceable(4) float* @_ZNSt6vectorIfSaIfEEixEm(%"class.std::vector"* nonnull %m_pfOrderWeights212, i64 1) #23, !dbg !3689
  %14 = load float, float* %call30, align 4, !dbg !3689, !tbaa !3353
  %mul31 = fmul float %mul28, %14, !dbg !3690
  %call33 = tail call dereferenceable(4) float* @_ZNSt6vectorIfSaIfEEixEm(%"class.std::vector"* nonnull %m_pfCoeff214, i64 1) #23, !dbg !3691
  store float %mul31, float* %call33, align 4, !dbg !3692, !tbaa !3353
  %call35 = tail call dereferenceable(4) float* @_ZNSt6vectorIfSaIfEEixEm(%"class.std::vector"* nonnull %m_pfOrderWeights212, i64 1) #23, !dbg !3693
  %15 = load float, float* %call35, align 4, !dbg !3693, !tbaa !3353
  %mul36 = fmul float %call9, %15, !dbg !3694
  %call38 = tail call dereferenceable(4) float* @_ZNSt6vectorIfSaIfEEixEm(%"class.std::vector"* nonnull %m_pfCoeff214, i64 2) #23, !dbg !3695
  store float %mul36, float* %call38, align 4, !dbg !3696, !tbaa !3353
  %mul39 = fmul float %call, %call6, !dbg !3697
  %call41 = tail call dereferenceable(4) float* @_ZNSt6vectorIfSaIfEEixEm(%"class.std::vector"* nonnull %m_pfOrderWeights212, i64 1) #23, !dbg !3698
  %16 = load float, float* %call41, align 4, !dbg !3698, !tbaa !3353
  %mul42 = fmul float %mul39, %16, !dbg !3699
  %call44 = tail call dereferenceable(4) float* @_ZNSt6vectorIfSaIfEEixEm(%"class.std::vector"* nonnull %m_pfCoeff214, i64 3) #23, !dbg !3700
  store float %mul42, float* %call44, align 4, !dbg !3701, !tbaa !3353
  %.pr = load i32, i32* %9, align 8, !dbg !3702, !tbaa !3038
  %cmp47 = icmp ugt i32 %.pr, 1, !dbg !3704
  br i1 %cmp47, label %if.end104, label %if.end277, !dbg !3705

if.end104:                                        ; preds = %if.end45
  %square332 = fmul float %call6, %call6, !dbg !3706
  %mul51 = fmul float %square332, %call16, !dbg !3708
  %conv = fpext float %mul51 to double, !dbg !3709
  %mul52 = fmul double %conv, 0x3FEBB67AE8584CAA, !dbg !3710
  %call54 = tail call dereferenceable(4) float* @_ZNSt6vectorIfSaIfEEixEm(%"class.std::vector"* nonnull %m_pfOrderWeights212, i64 2) #23, !dbg !3711
  %17 = load float, float* %call54, align 4, !dbg !3711, !tbaa !3353
  %conv55 = fpext float %17 to double, !dbg !3711
  %mul56 = fmul double %mul52, %conv55, !dbg !3712
  %conv57 = fptrunc double %mul56 to float, !dbg !3713
  %call59 = tail call dereferenceable(4) float* @_ZNSt6vectorIfSaIfEEixEm(%"class.std::vector"* nonnull %m_pfCoeff214, i64 4) #23, !dbg !3714
  store float %conv57, float* %call59, align 4, !dbg !3715, !tbaa !3353
  %mul62 = fmul float %call4, %call20, !dbg !3716
  %conv63 = fpext float %mul62 to double, !dbg !3717
  %mul64 = fmul double %conv63, 0x3FEBB67AE8584CAA, !dbg !3718
  %call66 = tail call dereferenceable(4) float* @_ZNSt6vectorIfSaIfEEixEm(%"class.std::vector"* nonnull %m_pfOrderWeights212, i64 2) #23, !dbg !3719
  %18 = load float, float* %call66, align 4, !dbg !3719, !tbaa !3353
  %conv67 = fpext float %18 to double, !dbg !3719
  %mul68 = fmul double %mul64, %conv67, !dbg !3720
  %conv69 = fptrunc double %mul68 to float, !dbg !3721
  %call71 = tail call dereferenceable(4) float* @_ZNSt6vectorIfSaIfEEixEm(%"class.std::vector"* nonnull %m_pfCoeff214, i64 5) #23, !dbg !3722
  store float %conv69, float* %call71, align 4, !dbg !3723, !tbaa !3353
  %square333 = fmul float %call9, %call9, !dbg !3724
  %mul73 = fmul float %square333, 1.500000e+00, !dbg !3725
  %sub = fadd float %mul73, -5.000000e-01, !dbg !3726
  %call75 = tail call dereferenceable(4) float* @_ZNSt6vectorIfSaIfEEixEm(%"class.std::vector"* nonnull %m_pfOrderWeights212, i64 2) #23, !dbg !3727
  %19 = load float, float* %call75, align 4, !dbg !3727, !tbaa !3353
  %mul76 = fmul float %sub, %19, !dbg !3728
  %call78 = tail call dereferenceable(4) float* @_ZNSt6vectorIfSaIfEEixEm(%"class.std::vector"* nonnull %m_pfCoeff214, i64 6) #23, !dbg !3729
  store float %mul76, float* %call78, align 4, !dbg !3730, !tbaa !3353
  %mul81 = fmul float %call, %call20, !dbg !3731
  %conv82 = fpext float %mul81 to double, !dbg !3732
  %mul83 = fmul double %conv82, 0x3FEBB67AE8584CAA, !dbg !3733
  %call85 = tail call dereferenceable(4) float* @_ZNSt6vectorIfSaIfEEixEm(%"class.std::vector"* nonnull %m_pfOrderWeights212, i64 2) #23, !dbg !3734
  %20 = load float, float* %call85, align 4, !dbg !3734, !tbaa !3353
  %conv86 = fpext float %20 to double, !dbg !3734
  %mul87 = fmul double %mul83, %conv86, !dbg !3735
  %conv88 = fptrunc double %mul87 to float, !dbg !3736
  %call90 = tail call dereferenceable(4) float* @_ZNSt6vectorIfSaIfEEixEm(%"class.std::vector"* nonnull %m_pfCoeff214, i64 7) #23, !dbg !3737
  store float %conv88, float* %call90, align 4, !dbg !3738, !tbaa !3353
  %mul94 = fmul float %square332, %call12, !dbg !3739
  %conv95 = fpext float %mul94 to double, !dbg !3740
  %mul96 = fmul double %conv95, 0x3FEBB67AE8584CAA, !dbg !3741
  %call98 = tail call dereferenceable(4) float* @_ZNSt6vectorIfSaIfEEixEm(%"class.std::vector"* nonnull %m_pfOrderWeights212, i64 2) #23, !dbg !3742
  %21 = load float, float* %call98, align 4, !dbg !3742, !tbaa !3353
  %conv99 = fpext float %21 to double, !dbg !3742
  %mul100 = fmul double %mul96, %conv99, !dbg !3743
  %conv101 = fptrunc double %mul100 to float, !dbg !3744
  %call103 = tail call dereferenceable(4) float* @_ZNSt6vectorIfSaIfEEixEm(%"class.std::vector"* nonnull %m_pfCoeff214, i64 8) #23, !dbg !3745
  store float %conv101, float* %call103, align 4, !dbg !3746, !tbaa !3353
  %.pr336 = load i32, i32* %9, align 8, !dbg !3747, !tbaa !3038
  %cmp106 = icmp ugt i32 %.pr336, 2, !dbg !3749
  br i1 %cmp106, label %if.then107, label %if.end277, !dbg !3750

if.then107:                                       ; preds = %if.end104
  %22 = load float, float* %fAzimuth, align 8, !dbg !3751, !tbaa !3591
  %mul111 = fmul float %22, 3.000000e+00, !dbg !3753
  %call112 = tail call float @sinf(float %mul111) #23, !dbg !3754
  %call113 = tail call float @powf(float %call6, float 3.000000e+00) #23, !dbg !3755
  %mul114 = fmul float %call112, %call113, !dbg !3756
  %conv115 = fpext float %mul114 to double, !dbg !3757
  %mul116 = fmul double %conv115, 0x3FE94C583ADA5B53, !dbg !3758
  %call118 = tail call dereferenceable(4) float* @_ZNSt6vectorIfSaIfEEixEm(%"class.std::vector"* nonnull %m_pfOrderWeights212, i64 3) #23, !dbg !3759
  %23 = load float, float* %call118, align 4, !dbg !3759, !tbaa !3353
  %conv119 = fpext float %23 to double, !dbg !3759
  %mul120 = fmul double %mul116, %conv119, !dbg !3760
  %conv121 = fptrunc double %mul120 to float, !dbg !3761
  %call123 = tail call dereferenceable(4) float* @_ZNSt6vectorIfSaIfEEixEm(%"class.std::vector"* nonnull %m_pfCoeff214, i64 9) #23, !dbg !3762
  store float %conv121, float* %call123, align 4, !dbg !3763, !tbaa !3353
  %mul126 = fmul float %call9, %call16, !dbg !3764
  %square327 = fmul float %call6, %call6, !dbg !3765
  %mul128 = fmul float %square327, %mul126, !dbg !3766
  %conv129 = fpext float %mul128 to double, !dbg !3767
  %mul130 = fmul double %conv129, 0x3FFEFBDEB14F4EDA, !dbg !3768
  %call132 = tail call dereferenceable(4) float* @_ZNSt6vectorIfSaIfEEixEm(%"class.std::vector"* nonnull %m_pfOrderWeights212, i64 3) #23, !dbg !3769
  %24 = load float, float* %call132, align 4, !dbg !3769, !tbaa !3353
  %conv133 = fpext float %24 to double, !dbg !3769
  %mul134 = fmul double %mul130, %conv133, !dbg !3770
  %conv135 = fptrunc double %mul134 to float, !dbg !3771
  %call137 = tail call dereferenceable(4) float* @_ZNSt6vectorIfSaIfEEixEm(%"class.std::vector"* nonnull %m_pfCoeff214, i64 10) #23, !dbg !3772
  store float %conv135, float* %call137, align 4, !dbg !3773, !tbaa !3353
  %mul139 = fmul float %call4, %call6, !dbg !3774
  %square328 = fmul float %call9, %call9, !dbg !3775
  %mul141 = fmul float %square328, 5.000000e+00, !dbg !3776
  %sub142 = fadd float %mul141, -1.000000e+00, !dbg !3777
  %mul143 = fmul float %mul139, %sub142, !dbg !3778
  %conv144 = fpext float %mul143 to double, !dbg !3779
  %mul145 = fmul double %conv144, 0x3FE3988E1409212E, !dbg !3780
  %call147 = tail call dereferenceable(4) float* @_ZNSt6vectorIfSaIfEEixEm(%"class.std::vector"* nonnull %m_pfOrderWeights212, i64 3) #23, !dbg !3781
  %25 = load float, float* %call147, align 4, !dbg !3781, !tbaa !3353
  %conv148 = fpext float %25 to double, !dbg !3781
  %mul149 = fmul double %mul145, %conv148, !dbg !3782
  %conv150 = fptrunc double %mul149 to float, !dbg !3783
  %call152 = tail call dereferenceable(4) float* @_ZNSt6vectorIfSaIfEEixEm(%"class.std::vector"* nonnull %m_pfCoeff214, i64 11) #23, !dbg !3784
  store float %conv150, float* %call152, align 4, !dbg !3785, !tbaa !3353
  %sub155 = fadd float %mul141, -3.000000e+00, !dbg !3786
  %mul156 = fmul float %call9, %sub155, !dbg !3787
  %mul157 = fmul float %mul156, 5.000000e-01, !dbg !3788
  %call159 = tail call dereferenceable(4) float* @_ZNSt6vectorIfSaIfEEixEm(%"class.std::vector"* nonnull %m_pfOrderWeights212, i64 3) #23, !dbg !3789
  %26 = load float, float* %call159, align 4, !dbg !3789, !tbaa !3353
  %mul160 = fmul float %mul157, %26, !dbg !3790
  %call162 = tail call dereferenceable(4) float* @_ZNSt6vectorIfSaIfEEixEm(%"class.std::vector"* nonnull %m_pfCoeff214, i64 12) #23, !dbg !3791
  store float %mul160, float* %call162, align 4, !dbg !3792, !tbaa !3353
  %mul164 = fmul float %call, %call6, !dbg !3793
  %mul168 = fmul float %mul164, %sub142, !dbg !3794
  %conv169 = fpext float %mul168 to double, !dbg !3795
  %mul170 = fmul double %conv169, 0x3FE3988E1409212E, !dbg !3796
  %call172 = tail call dereferenceable(4) float* @_ZNSt6vectorIfSaIfEEixEm(%"class.std::vector"* nonnull %m_pfOrderWeights212, i64 3) #23, !dbg !3797
  %27 = load float, float* %call172, align 4, !dbg !3797, !tbaa !3353
  %conv173 = fpext float %27 to double, !dbg !3797
  %mul174 = fmul double %mul170, %conv173, !dbg !3798
  %conv175 = fptrunc double %mul174 to float, !dbg !3799
  %call177 = tail call dereferenceable(4) float* @_ZNSt6vectorIfSaIfEEixEm(%"class.std::vector"* nonnull %m_pfCoeff214, i64 13) #23, !dbg !3800
  store float %conv175, float* %call177, align 4, !dbg !3801, !tbaa !3353
  %mul180 = fmul float %call9, %call12, !dbg !3802
  %mul182 = fmul float %square327, %mul180, !dbg !3803
  %conv183 = fpext float %mul182 to double, !dbg !3804
  %mul184 = fmul double %conv183, 0x3FFEFBDEB14F4EDA, !dbg !3805
  %call186 = tail call dereferenceable(4) float* @_ZNSt6vectorIfSaIfEEixEm(%"class.std::vector"* nonnull %m_pfOrderWeights212, i64 3) #23, !dbg !3806
  %28 = load float, float* %call186, align 4, !dbg !3806, !tbaa !3353
  %conv187 = fpext float %28 to double, !dbg !3806
  %mul188 = fmul double %mul184, %conv187, !dbg !3807
  %conv189 = fptrunc double %mul188 to float, !dbg !3808
  %call191 = tail call dereferenceable(4) float* @_ZNSt6vectorIfSaIfEEixEm(%"class.std::vector"* nonnull %m_pfCoeff214, i64 14) #23, !dbg !3809
  store float %conv189, float* %call191, align 4, !dbg !3810, !tbaa !3353
  %29 = load float, float* %fAzimuth, align 8, !dbg !3811, !tbaa !3591
  %mul195 = fmul float %29, 3.000000e+00, !dbg !3812
  %call196 = tail call float @cosf(float %mul195) #23, !dbg !3813
  %call197 = tail call float @powf(float %call6, float 3.000000e+00) #23, !dbg !3814
  %mul198 = fmul float %call196, %call197, !dbg !3815
  %conv199 = fpext float %mul198 to double, !dbg !3816
  %mul200 = fmul double %conv199, 0x3FE94C583ADA5B53, !dbg !3817
  %call202 = tail call dereferenceable(4) float* @_ZNSt6vectorIfSaIfEEixEm(%"class.std::vector"* nonnull %m_pfOrderWeights212, i64 3) #23, !dbg !3818
  %30 = load float, float* %call202, align 4, !dbg !3818, !tbaa !3353
  %conv203 = fpext float %30 to double, !dbg !3818
  %mul204 = fmul double %mul200, %conv203, !dbg !3819
  %conv205 = fptrunc double %mul204 to float, !dbg !3820
  %call207 = tail call dereferenceable(4) float* @_ZNSt6vectorIfSaIfEEixEm(%"class.std::vector"* nonnull %m_pfCoeff214, i64 15) #23, !dbg !3821
  store float %conv205, float* %call207, align 4, !dbg !3822, !tbaa !3353
  br label %if.end277, !dbg !3823

if.then211:                                       ; preds = %entry
  br i1 %cmp218, label %if.end277, label %if.end232, !dbg !3824

if.end232:                                        ; preds = %if.then211
  %mul220 = fmul float %call, %call6, !dbg !3826
  %call222 = tail call dereferenceable(4) float* @_ZNSt6vectorIfSaIfEEixEm(%"class.std::vector"* nonnull %m_pfOrderWeights212, i64 1) #23, !dbg !3829
  %31 = load float, float* %call222, align 4, !dbg !3829, !tbaa !3353
  %mul223 = fmul float %mul220, %31, !dbg !3830
  %call225 = tail call dereferenceable(4) float* @_ZNSt6vectorIfSaIfEEixEm(%"class.std::vector"* nonnull %m_pfCoeff214, i64 1) #23, !dbg !3831
  store float %mul223, float* %call225, align 4, !dbg !3832, !tbaa !3353
  %mul226 = fmul float %call4, %call6, !dbg !3833
  %call228 = tail call dereferenceable(4) float* @_ZNSt6vectorIfSaIfEEixEm(%"class.std::vector"* nonnull %m_pfOrderWeights212, i64 1) #23, !dbg !3834
  %32 = load float, float* %call228, align 4, !dbg !3834, !tbaa !3353
  %mul229 = fmul float %mul226, %32, !dbg !3835
  %call231 = tail call dereferenceable(4) float* @_ZNSt6vectorIfSaIfEEixEm(%"class.std::vector"* nonnull %m_pfCoeff214, i64 2) #23, !dbg !3836
  store float %mul229, float* %call231, align 4, !dbg !3837, !tbaa !3353
  %.pr338 = load i32, i32* %9, align 8, !dbg !3838, !tbaa !3038
  %cmp234 = icmp ugt i32 %.pr338, 1, !dbg !3840
  br i1 %cmp234, label %if.end250, label %if.end277, !dbg !3841

if.end250:                                        ; preds = %if.end232
  %square = fmul float %call6, %call6, !dbg !3842
  %mul237 = fmul float %square, %call12, !dbg !3844
  %call239 = tail call dereferenceable(4) float* @_ZNSt6vectorIfSaIfEEixEm(%"class.std::vector"* nonnull %m_pfOrderWeights212, i64 2) #23, !dbg !3845
  %33 = load float, float* %call239, align 4, !dbg !3845, !tbaa !3353
  %mul240 = fmul float %mul237, %33, !dbg !3846
  %call242 = tail call dereferenceable(4) float* @_ZNSt6vectorIfSaIfEEixEm(%"class.std::vector"* nonnull %m_pfCoeff214, i64 3) #23, !dbg !3847
  store float %mul240, float* %call242, align 4, !dbg !3848, !tbaa !3353
  %mul244 = fmul float %square, %call16, !dbg !3849
  %call246 = tail call dereferenceable(4) float* @_ZNSt6vectorIfSaIfEEixEm(%"class.std::vector"* nonnull %m_pfOrderWeights212, i64 2) #23, !dbg !3850
  %34 = load float, float* %call246, align 4, !dbg !3850, !tbaa !3353
  %mul247 = fmul float %mul244, %34, !dbg !3851
  %call249 = tail call dereferenceable(4) float* @_ZNSt6vectorIfSaIfEEixEm(%"class.std::vector"* nonnull %m_pfCoeff214, i64 4) #23, !dbg !3852
  store float %mul247, float* %call249, align 4, !dbg !3853, !tbaa !3353
  %.pr340 = load i32, i32* %9, align 8, !dbg !3854, !tbaa !3038
  %cmp252 = icmp ugt i32 %.pr340, 2, !dbg !3856
  br i1 %cmp252, label %if.then253, label %if.end277, !dbg !3857

if.then253:                                       ; preds = %if.end250
  %35 = load float, float* %fAzimuth, align 8, !dbg !3858, !tbaa !3591
  %mul256 = fmul float %35, 3.000000e+00, !dbg !3860
  %call257 = tail call float @cosf(float %mul256) #23, !dbg !3861
  %call258 = tail call float @powf(float %call6, float 3.000000e+00) #23, !dbg !3862
  %mul259 = fmul float %call257, %call258, !dbg !3863
  %call261 = tail call dereferenceable(4) float* @_ZNSt6vectorIfSaIfEEixEm(%"class.std::vector"* nonnull %m_pfOrderWeights212, i64 3) #23, !dbg !3864
  %36 = load float, float* %call261, align 4, !dbg !3864, !tbaa !3353
  %mul262 = fmul float %mul259, %36, !dbg !3865
  %call264 = tail call dereferenceable(4) float* @_ZNSt6vectorIfSaIfEEixEm(%"class.std::vector"* nonnull %m_pfCoeff214, i64 5) #23, !dbg !3866
  store float %mul262, float* %call264, align 4, !dbg !3867, !tbaa !3353
  %37 = load float, float* %fAzimuth, align 8, !dbg !3868, !tbaa !3591
  %mul267 = fmul float %37, 3.000000e+00, !dbg !3869
  %call268 = tail call float @sinf(float %mul267) #23, !dbg !3870
  %call269 = tail call float @powf(float %call6, float 3.000000e+00) #23, !dbg !3871
  %mul270 = fmul float %call268, %call269, !dbg !3872
  %call272 = tail call dereferenceable(4) float* @_ZNSt6vectorIfSaIfEEixEm(%"class.std::vector"* nonnull %m_pfOrderWeights212, i64 3) #23, !dbg !3873
  %38 = load float, float* %call272, align 4, !dbg !3873, !tbaa !3353
  %mul273 = fmul float %mul270, %38, !dbg !3874
  %call275 = tail call dereferenceable(4) float* @_ZNSt6vectorIfSaIfEEixEm(%"class.std::vector"* nonnull %m_pfCoeff214, i64 6) #23, !dbg !3875
  store float %mul273, float* %call275, align 4, !dbg !3876, !tbaa !3353
  br label %if.end277, !dbg !3877

if.end277:                                        ; preds = %if.then211, %if.end232, %if.then21, %if.end45, %if.end250, %if.then253, %if.end104, %if.then107
  call void @llvm.dbg.value(metadata i32 0, metadata !3660, metadata !DIExpression()), !dbg !3878
  %39 = getelementptr inbounds %class.CAmbisonicSource, %class.CAmbisonicSource* %this, i64 0, i32 0, i32 4, !dbg !3879
  %40 = load i32, i32* %39, align 8, !dbg !3879, !tbaa !3046
  %cmp278342 = icmp eq i32 %40, 0, !dbg !3881
  br i1 %cmp278342, label %for.cond.cleanup, label %for.body.lr.ph, !dbg !3882

for.body.lr.ph:                                   ; preds = %if.end277
  %m_fGain = getelementptr inbounds %class.CAmbisonicSource, %class.CAmbisonicSource* %this, i64 0, i32 4, !dbg !3883
  br label %for.body, !dbg !3882

for.cond.cleanup:                                 ; preds = %for.body, %if.end277
  ret void, !dbg !3884

for.body:                                         ; preds = %for.body.lr.ph, %for.body
  %indvars.iv = phi i64 [ 0, %for.body.lr.ph ], [ %indvars.iv.next, %for.body ]
  call void @llvm.dbg.value(metadata i64 %indvars.iv, metadata !3660, metadata !DIExpression()), !dbg !3878
  %41 = load float, float* %m_fGain, align 4, !dbg !3885, !tbaa !3602
  %call281 = tail call dereferenceable(4) float* @_ZNSt6vectorIfSaIfEEixEm(%"class.std::vector"* nonnull %m_pfCoeff214, i64 %indvars.iv) #23, !dbg !3886
  %42 = load float, float* %call281, align 4, !dbg !3887, !tbaa !3353
  %mul282 = fmul float %41, %42, !dbg !3887
  store float %mul282, float* %call281, align 4, !dbg !3887, !tbaa !3353
  %indvars.iv.next = add nuw nsw i64 %indvars.iv, 1, !dbg !3888
  call void @llvm.dbg.value(metadata i32 undef, metadata !3660, metadata !DIExpression(DW_OP_plus_uconst, 1, DW_OP_stack_value)), !dbg !3878
  %43 = load i32, i32* %39, align 8, !dbg !3879, !tbaa !3046
  %44 = zext i32 %43 to i64, !dbg !3881
  %cmp278 = icmp ult i64 %indvars.iv.next, %44, !dbg !3881
  br i1 %cmp278, label %for.body, label %for.cond.cleanup, !dbg !3882, !llvm.loop !3889
}

; Function Attrs: nofree nounwind
declare float @cosf(float) local_unnamed_addr #11

; Function Attrs: nofree nounwind
declare float @sinf(float) local_unnamed_addr #11

; Function Attrs: nofree nounwind
declare float @powf(float, float) local_unnamed_addr #11

; Function Attrs: nofree norecurse nounwind uwtable writeonly
define void @_ZN16CAmbisonicSource11SetPositionE10PolarPoint(%class.CAmbisonicSource* nocapture %this, <2 x float> %polPosition.coerce0, float %polPosition.coerce1) unnamed_addr #12 align 2 !dbg !3891 {
entry:
  call void @llvm.dbg.value(metadata <2 x float> %polPosition.coerce0, metadata !3894, metadata !DIExpression(DW_OP_LLVM_fragment, 0, 64)), !dbg !3895
  call void @llvm.dbg.value(metadata float %polPosition.coerce1, metadata !3894, metadata !DIExpression(DW_OP_LLVM_fragment, 64, 32)), !dbg !3895
  call void @llvm.dbg.value(metadata %class.CAmbisonicSource* %this, metadata !3893, metadata !DIExpression()), !dbg !3895
  %polPosition.sroa.0.0..sroa_idx = getelementptr inbounds %class.CAmbisonicSource, %class.CAmbisonicSource* %this, i64 0, i32 3, !dbg !3896
  %polPosition.sroa.0.0..sroa_cast = bitcast %struct.PolarPoint* %polPosition.sroa.0.0..sroa_idx to <2 x float>*, !dbg !3896
  store <2 x float> %polPosition.coerce0, <2 x float>* %polPosition.sroa.0.0..sroa_cast, align 8, !dbg !3896
  %polPosition.sroa.2.0..sroa_idx3 = getelementptr inbounds %class.CAmbisonicSource, %class.CAmbisonicSource* %this, i64 0, i32 3, i32 2, !dbg !3896
  store float %polPosition.coerce1, float* %polPosition.sroa.2.0..sroa_idx3, align 8, !dbg !3896
  ret void, !dbg !3897
}

; Function Attrs: norecurse nounwind readonly uwtable
define { <2 x float>, float } @_ZN16CAmbisonicSource11GetPositionEv(%class.CAmbisonicSource* nocapture readonly %this) unnamed_addr #6 align 2 !dbg !3898 {
entry:
  call void @llvm.dbg.value(metadata %class.CAmbisonicSource* %this, metadata !3900, metadata !DIExpression()), !dbg !3901
  %retval.sroa.0.0..sroa_idx = getelementptr inbounds %class.CAmbisonicSource, %class.CAmbisonicSource* %this, i64 0, i32 3, !dbg !3902
  %retval.sroa.0.0..sroa_cast = bitcast %struct.PolarPoint* %retval.sroa.0.0..sroa_idx to <2 x float>*, !dbg !3902
  %retval.sroa.0.0.copyload = load <2 x float>, <2 x float>* %retval.sroa.0.0..sroa_cast, align 8, !dbg !3902
  %retval.sroa.2.0..sroa_idx3 = getelementptr inbounds %class.CAmbisonicSource, %class.CAmbisonicSource* %this, i64 0, i32 3, i32 2, !dbg !3902
  %retval.sroa.2.0.copyload = load float, float* %retval.sroa.2.0..sroa_idx3, align 8, !dbg !3902
  %.fca.0.insert = insertvalue { <2 x float>, float } undef, <2 x float> %retval.sroa.0.0.copyload, 0, !dbg !3903
  %.fca.1.insert = insertvalue { <2 x float>, float } %.fca.0.insert, float %retval.sroa.2.0.copyload, 1, !dbg !3903
  ret { <2 x float>, float } %.fca.1.insert, !dbg !3903
}

; Function Attrs: nounwind uwtable
define void @_ZN16CAmbisonicSource14SetOrderWeightEjf(%class.CAmbisonicSource* %this, i32 %nOrder, float %fWeight) unnamed_addr #7 align 2 !dbg !3904 {
entry:
  call void @llvm.dbg.value(metadata %class.CAmbisonicSource* %this, metadata !3906, metadata !DIExpression()), !dbg !3909
  call void @llvm.dbg.value(metadata i32 %nOrder, metadata !3907, metadata !DIExpression()), !dbg !3909
  call void @llvm.dbg.value(metadata float %fWeight, metadata !3908, metadata !DIExpression()), !dbg !3909
  %m_pfOrderWeights = getelementptr inbounds %class.CAmbisonicSource, %class.CAmbisonicSource* %this, i64 0, i32 2, !dbg !3910
  %conv = zext i32 %nOrder to i64, !dbg !3911
  %call = tail call dereferenceable(4) float* @_ZNSt6vectorIfSaIfEEixEm(%"class.std::vector"* nonnull %m_pfOrderWeights, i64 %conv) #23, !dbg !3910
  store float %fWeight, float* %call, align 4, !dbg !3912, !tbaa !3353
  ret void, !dbg !3913
}

; Function Attrs: nounwind uwtable
define void @_ZN16CAmbisonicSource17SetOrderWeightAllEf(%class.CAmbisonicSource* %this, float %fWeight) unnamed_addr #7 align 2 !dbg !3914 {
entry:
  call void @llvm.dbg.value(metadata %class.CAmbisonicSource* %this, metadata !3916, metadata !DIExpression()), !dbg !3920
  call void @llvm.dbg.value(metadata float %fWeight, metadata !3917, metadata !DIExpression()), !dbg !3920
  call void @llvm.dbg.value(metadata i32 0, metadata !3918, metadata !DIExpression()), !dbg !3921
  %0 = getelementptr inbounds %class.CAmbisonicSource, %class.CAmbisonicSource* %this, i64 0, i32 0, i32 1, !dbg !3922
  %1 = load i32, i32* %0, align 8, !dbg !3922, !tbaa !3038
  %cmp6 = icmp eq i32 %1, -1, !dbg !3924
  br i1 %cmp6, label %for.cond.cleanup, label %for.body.lr.ph, !dbg !3925

for.body.lr.ph:                                   ; preds = %entry
  %m_pfOrderWeights = getelementptr inbounds %class.CAmbisonicSource, %class.CAmbisonicSource* %this, i64 0, i32 2, !dbg !3926
  br label %for.body, !dbg !3925

for.cond.cleanup:                                 ; preds = %for.body, %entry
  ret void, !dbg !3928

for.body:                                         ; preds = %for.body.lr.ph, %for.body
  %indvars.iv = phi i64 [ 0, %for.body.lr.ph ], [ %indvars.iv.next, %for.body ]
  call void @llvm.dbg.value(metadata i64 %indvars.iv, metadata !3918, metadata !DIExpression()), !dbg !3921
  %call = tail call dereferenceable(4) float* @_ZNSt6vectorIfSaIfEEixEm(%"class.std::vector"* nonnull %m_pfOrderWeights, i64 %indvars.iv) #23, !dbg !3929
  store float %fWeight, float* %call, align 4, !dbg !3930, !tbaa !3353
  %indvars.iv.next = add nuw nsw i64 %indvars.iv, 1, !dbg !3931
  call void @llvm.dbg.value(metadata i32 undef, metadata !3918, metadata !DIExpression(DW_OP_plus_uconst, 1, DW_OP_stack_value)), !dbg !3921
  %2 = load i32, i32* %0, align 8, !dbg !3922, !tbaa !3038
  %add = add i32 %2, 1, !dbg !3932
  %3 = zext i32 %add to i64, !dbg !3924
  %cmp = icmp ult i64 %indvars.iv.next, %3, !dbg !3924
  br i1 %cmp, label %for.body, label %for.cond.cleanup, !dbg !3925, !llvm.loop !3933
}

; Function Attrs: nounwind uwtable
define void @_ZN16CAmbisonicSource14SetCoefficientEjf(%class.CAmbisonicSource* %this, i32 %nChannel, float %fCoeff) unnamed_addr #7 align 2 !dbg !3935 {
entry:
  call void @llvm.dbg.value(metadata %class.CAmbisonicSource* %this, metadata !3937, metadata !DIExpression()), !dbg !3940
  call void @llvm.dbg.value(metadata i32 %nChannel, metadata !3938, metadata !DIExpression()), !dbg !3940
  call void @llvm.dbg.value(metadata float %fCoeff, metadata !3939, metadata !DIExpression()), !dbg !3940
  %m_pfCoeff = getelementptr inbounds %class.CAmbisonicSource, %class.CAmbisonicSource* %this, i64 0, i32 1, !dbg !3941
  %conv = zext i32 %nChannel to i64, !dbg !3942
  %call = tail call dereferenceable(4) float* @_ZNSt6vectorIfSaIfEEixEm(%"class.std::vector"* nonnull %m_pfCoeff, i64 %conv) #23, !dbg !3941
  store float %fCoeff, float* %call, align 4, !dbg !3943, !tbaa !3353
  ret void, !dbg !3944
}

; Function Attrs: nounwind uwtable
define float @_ZN16CAmbisonicSource14GetOrderWeightEj(%class.CAmbisonicSource* %this, i32 %nOrder) unnamed_addr #7 align 2 !dbg !3945 {
entry:
  call void @llvm.dbg.value(metadata %class.CAmbisonicSource* %this, metadata !3947, metadata !DIExpression()), !dbg !3949
  call void @llvm.dbg.value(metadata i32 %nOrder, metadata !3948, metadata !DIExpression()), !dbg !3949
  %m_pfOrderWeights = getelementptr inbounds %class.CAmbisonicSource, %class.CAmbisonicSource* %this, i64 0, i32 2, !dbg !3950
  %conv = zext i32 %nOrder to i64, !dbg !3951
  %call = tail call dereferenceable(4) float* @_ZNSt6vectorIfSaIfEEixEm(%"class.std::vector"* nonnull %m_pfOrderWeights, i64 %conv) #23, !dbg !3950
  %0 = load float, float* %call, align 4, !dbg !3950, !tbaa !3353
  ret float %0, !dbg !3952
}

; Function Attrs: nounwind uwtable
define float @_ZN16CAmbisonicSource14GetCoefficientEj(%class.CAmbisonicSource* %this, i32 %nChannel) unnamed_addr #7 align 2 !dbg !3953 {
entry:
  call void @llvm.dbg.value(metadata %class.CAmbisonicSource* %this, metadata !3955, metadata !DIExpression()), !dbg !3957
  call void @llvm.dbg.value(metadata i32 %nChannel, metadata !3956, metadata !DIExpression()), !dbg !3957
  %m_pfCoeff = getelementptr inbounds %class.CAmbisonicSource, %class.CAmbisonicSource* %this, i64 0, i32 1, !dbg !3958
  %conv = zext i32 %nChannel to i64, !dbg !3959
  %call = tail call dereferenceable(4) float* @_ZNSt6vectorIfSaIfEEixEm(%"class.std::vector"* nonnull %m_pfCoeff, i64 %conv) #23, !dbg !3958
  %0 = load float, float* %call, align 4, !dbg !3958, !tbaa !3353
  ret float %0, !dbg !3960
}

; Function Attrs: nofree norecurse nounwind uwtable writeonly
define void @_ZN16CAmbisonicSource7SetGainEf(%class.CAmbisonicSource* nocapture %this, float %fGain) unnamed_addr #4 align 2 !dbg !3961 {
entry:
  call void @llvm.dbg.value(metadata %class.CAmbisonicSource* %this, metadata !3963, metadata !DIExpression()), !dbg !3965
  call void @llvm.dbg.value(metadata float %fGain, metadata !3964, metadata !DIExpression()), !dbg !3965
  %m_fGain = getelementptr inbounds %class.CAmbisonicSource, %class.CAmbisonicSource* %this, i64 0, i32 4, !dbg !3966
  store float %fGain, float* %m_fGain, align 4, !dbg !3967, !tbaa !3602
  ret void, !dbg !3968
}

; Function Attrs: norecurse nounwind readonly uwtable
define float @_ZN16CAmbisonicSource7GetGainEv(%class.CAmbisonicSource* nocapture readonly %this) unnamed_addr #6 align 2 !dbg !3969 {
entry:
  call void @llvm.dbg.value(metadata %class.CAmbisonicSource* %this, metadata !3971, metadata !DIExpression()), !dbg !3972
  %m_fGain = getelementptr inbounds %class.CAmbisonicSource, %class.CAmbisonicSource* %this, i64 0, i32 4, !dbg !3973
  %0 = load float, float* %m_fGain, align 4, !dbg !3973, !tbaa !3602
  ret float %0, !dbg !3974
}

; Function Attrs: nounwind uwtable
define void @_ZN17CAmbisonicEncoderC2Ev(%class.CAmbisonicEncoder* %this) unnamed_addr #7 align 2 !dbg !3975 {
entry:
  call void @llvm.dbg.value(metadata %class.CAmbisonicEncoder* %this, metadata !3977, metadata !DIExpression()), !dbg !3979
  %0 = getelementptr inbounds %class.CAmbisonicEncoder, %class.CAmbisonicEncoder* %this, i64 0, i32 0, !dbg !3980
  tail call void @_ZN16CAmbisonicSourceC2Ev(%class.CAmbisonicSource* %0), !dbg !3981
  %1 = getelementptr inbounds %class.CAmbisonicEncoder, %class.CAmbisonicEncoder* %this, i64 0, i32 0, i32 0, i32 0, !dbg !3980
  store i32 (...)** bitcast (i8** getelementptr inbounds ({ [16 x i8*] }, { [16 x i8*] }* @_ZTV17CAmbisonicEncoder, i64 0, inrange i32 0, i64 2) to i32 (...)**), i32 (...)*** %1, align 8, !dbg !3980, !tbaa !3034
  ret void, !dbg !3982
}

; Function Attrs: nounwind uwtable
define void @_ZN17CAmbisonicEncoderD2Ev(%class.CAmbisonicEncoder* %this) unnamed_addr #7 align 2 !dbg !3983 {
entry:
  call void @llvm.dbg.value(metadata %class.CAmbisonicEncoder* %this, metadata !3985, metadata !DIExpression()), !dbg !3986
  %0 = getelementptr inbounds %class.CAmbisonicEncoder, %class.CAmbisonicEncoder* %this, i64 0, i32 0, !dbg !3987
  tail call void @_ZN16CAmbisonicSourceD2Ev(%class.CAmbisonicSource* %0) #23, !dbg !3987
  ret void, !dbg !3989
}

; Function Attrs: nounwind uwtable
define void @_ZN17CAmbisonicEncoderD0Ev(%class.CAmbisonicEncoder* %this) unnamed_addr #7 align 2 !dbg !3990 {
entry:
  call void @llvm.dbg.value(metadata %class.CAmbisonicEncoder* %this, metadata !3992, metadata !DIExpression()), !dbg !3993
  tail call void @_ZN17CAmbisonicEncoderD2Ev(%class.CAmbisonicEncoder* %this) #23, !dbg !3994
  %0 = bitcast %class.CAmbisonicEncoder* %this to i8*, !dbg !3994
  tail call void @_ZdlPv(i8* %0) #26, !dbg !3994
  ret void, !dbg !3995
}

; Function Attrs: nobuiltin nounwind
declare void @_ZdlPv(i8*) local_unnamed_addr #13

; Function Attrs: uwtable
define zeroext i1 @_ZN17CAmbisonicEncoder9ConfigureEjbj(%class.CAmbisonicEncoder* %this, i32 %nOrder, i1 zeroext %b3D, i32 %nMisc) unnamed_addr #0 align 2 !dbg !3996 {
entry:
  call void @llvm.dbg.value(metadata %class.CAmbisonicEncoder* %this, metadata !3998, metadata !DIExpression()), !dbg !4003
  call void @llvm.dbg.value(metadata i32 %nOrder, metadata !3999, metadata !DIExpression()), !dbg !4003
  call void @llvm.dbg.value(metadata i1 %b3D, metadata !4000, metadata !DIExpression()), !dbg !4003
  call void @llvm.dbg.value(metadata i32 undef, metadata !4001, metadata !DIExpression()), !dbg !4003
  %0 = getelementptr inbounds %class.CAmbisonicEncoder, %class.CAmbisonicEncoder* %this, i64 0, i32 0, !dbg !4004
  %call = tail call zeroext i1 @_ZN16CAmbisonicSource9ConfigureEjbj(%class.CAmbisonicSource* %0, i32 %nOrder, i1 zeroext %b3D, i32 undef), !dbg !4004
  call void @llvm.dbg.value(metadata i8 1, metadata !4002, metadata !DIExpression()), !dbg !4003
  ret i1 true, !dbg !4005
}

; Function Attrs: nounwind uwtable
define void @_ZN17CAmbisonicEncoder7RefreshEv(%class.CAmbisonicEncoder* %this) unnamed_addr #7 align 2 !dbg !4006 {
entry:
  call void @llvm.dbg.value(metadata %class.CAmbisonicEncoder* %this, metadata !4008, metadata !DIExpression()), !dbg !4009
  %0 = getelementptr inbounds %class.CAmbisonicEncoder, %class.CAmbisonicEncoder* %this, i64 0, i32 0, !dbg !4010
  tail call void @_ZN16CAmbisonicSource7RefreshEv(%class.CAmbisonicSource* %0), !dbg !4010
  ret void, !dbg !4011
}

; Function Attrs: nounwind uwtable
define void @_ZN17CAmbisonicEncoder7ProcessEPfjP8CBFormat(%class.CAmbisonicEncoder* %this, float* nocapture readonly %pfSrc, i32 %nSamples, %class.CBFormat* %pfDst) local_unnamed_addr #7 align 2 !dbg !4012 {
entry:
  call void @llvm.dbg.value(metadata %class.CAmbisonicEncoder* %this, metadata !4014, metadata !DIExpression()), !dbg !4020
  call void @llvm.dbg.value(metadata float* %pfSrc, metadata !4015, metadata !DIExpression()), !dbg !4020
  call void @llvm.dbg.value(metadata i32 %nSamples, metadata !4016, metadata !DIExpression()), !dbg !4020
  call void @llvm.dbg.value(metadata %class.CBFormat* %pfDst, metadata !4017, metadata !DIExpression()), !dbg !4020
  call void @llvm.dbg.value(metadata i32 0, metadata !4018, metadata !DIExpression()), !dbg !4020
  call void @llvm.dbg.value(metadata i32 0, metadata !4019, metadata !DIExpression()), !dbg !4020
  call void @llvm.dbg.value(metadata i32 0, metadata !4018, metadata !DIExpression()), !dbg !4020
  %0 = getelementptr inbounds %class.CAmbisonicEncoder, %class.CAmbisonicEncoder* %this, i64 0, i32 0, i32 0, i32 4, !dbg !4021
  %1 = load i32, i32* %0, align 8, !dbg !4021, !tbaa !3046
  %cmp22 = icmp eq i32 %1, 0, !dbg !4024
  br i1 %cmp22, label %for.end11, label %for.cond2.preheader.lr.ph, !dbg !4025

for.cond2.preheader.lr.ph:                        ; preds = %entry
  %cmp320 = icmp eq i32 %nSamples, 0, !dbg !4026
  %m_pfCoeff = getelementptr inbounds %class.CAmbisonicEncoder, %class.CAmbisonicEncoder* %this, i64 0, i32 0, i32 1, !dbg !4030
  %m_ppfChannels = getelementptr inbounds %class.CBFormat, %class.CBFormat* %pfDst, i64 0, i32 4, !dbg !4030
  %wide.trip.count = zext i32 %nSamples to i64, !dbg !4026
  br label %for.cond2.preheader, !dbg !4025

for.cond2.preheader:                              ; preds = %for.cond2.preheader.lr.ph, %for.inc9
  %indvars.iv25 = phi i64 [ 0, %for.cond2.preheader.lr.ph ], [ %indvars.iv.next26, %for.inc9 ]
  call void @llvm.dbg.value(metadata i64 %indvars.iv25, metadata !4018, metadata !DIExpression()), !dbg !4020
  call void @llvm.dbg.value(metadata i32 0, metadata !4019, metadata !DIExpression()), !dbg !4020
  br i1 %cmp320, label %for.inc9, label %for.body4, !dbg !4032

for.body4:                                        ; preds = %for.cond2.preheader, %for.body4
  %indvars.iv = phi i64 [ %indvars.iv.next, %for.body4 ], [ 0, %for.cond2.preheader ]
  call void @llvm.dbg.value(metadata i64 %indvars.iv, metadata !4019, metadata !DIExpression()), !dbg !4020
  %arrayidx = getelementptr inbounds float, float* %pfSrc, i64 %indvars.iv, !dbg !4033
  %2 = load float, float* %arrayidx, align 4, !dbg !4033, !tbaa !3353
  %call = tail call dereferenceable(4) float* @_ZNSt6vectorIfSaIfEEixEm(%"class.std::vector"* nonnull %m_pfCoeff, i64 %indvars.iv25) #23, !dbg !4034
  %3 = load float, float* %call, align 4, !dbg !4034, !tbaa !3353
  %mul = fmul float %2, %3, !dbg !4035
  %call6 = tail call dereferenceable(8) float** @_ZNKSt10unique_ptrIA_PfSt14default_deleteIS1_EEixEm(%"class.std::unique_ptr"* nonnull %m_ppfChannels, i64 %indvars.iv25), !dbg !4036
  %4 = load float*, float** %call6, align 8, !dbg !4036, !tbaa !3163
  %arrayidx8 = getelementptr inbounds float, float* %4, i64 %indvars.iv, !dbg !4036
  store float %mul, float* %arrayidx8, align 4, !dbg !4037, !tbaa !3353
  %indvars.iv.next = add nuw nsw i64 %indvars.iv, 1, !dbg !4038
  call void @llvm.dbg.value(metadata i32 undef, metadata !4019, metadata !DIExpression(DW_OP_plus_uconst, 1, DW_OP_stack_value)), !dbg !4020
  %exitcond = icmp eq i64 %indvars.iv.next, %wide.trip.count, !dbg !4039
  br i1 %exitcond, label %for.inc9, label %for.body4, !dbg !4032, !llvm.loop !4040

for.inc9:                                         ; preds = %for.body4, %for.cond2.preheader
  %indvars.iv.next26 = add nuw nsw i64 %indvars.iv25, 1, !dbg !4042
  call void @llvm.dbg.value(metadata i32 undef, metadata !4018, metadata !DIExpression(DW_OP_plus_uconst, 1, DW_OP_stack_value)), !dbg !4020
  %5 = load i32, i32* %0, align 8, !dbg !4021, !tbaa !3046
  %6 = zext i32 %5 to i64, !dbg !4024
  %cmp = icmp ult i64 %indvars.iv.next26, %6, !dbg !4024
  br i1 %cmp, label %for.cond2.preheader, label %for.end11, !dbg !4025, !llvm.loop !4043

for.end11:                                        ; preds = %for.inc9, %entry
  ret void, !dbg !4045
}

; Function Attrs: uwtable
define void @_ZN21CAmbisonicEncoderDistC2Ev(%class.CAmbisonicEncoderDist* %this) unnamed_addr #0 align 2 personality i8* bitcast (i32 (...)* @__gxx_personality_v0 to i8*) !dbg !4046 {
entry:
  call void @llvm.dbg.value(metadata %class.CAmbisonicEncoderDist* %this, metadata !4048, metadata !DIExpression()), !dbg !4049
  %0 = getelementptr inbounds %class.CAmbisonicEncoderDist, %class.CAmbisonicEncoderDist* %this, i64 0, i32 0, !dbg !4050
  tail call void @_ZN17CAmbisonicEncoderC2Ev(%class.CAmbisonicEncoder* %0), !dbg !4051
  %1 = getelementptr inbounds %class.CAmbisonicEncoderDist, %class.CAmbisonicEncoderDist* %this, i64 0, i32 0, i32 0, i32 0, i32 0, !dbg !4050
  store i32 (...)** bitcast (i8** getelementptr inbounds ({ [16 x i8*] }, { [16 x i8*] }* @_ZTV21CAmbisonicEncoderDist, i64 0, inrange i32 0, i64 2) to i32 (...)**), i32 (...)*** %1, align 8, !dbg !4050, !tbaa !3034
  %m_nSampleRate = getelementptr inbounds %class.CAmbisonicEncoderDist, %class.CAmbisonicEncoderDist* %this, i64 0, i32 1, !dbg !4052
  %m_fRoomRadius = getelementptr inbounds %class.CAmbisonicEncoderDist, %class.CAmbisonicEncoderDist* %this, i64 0, i32 9, !dbg !4054
  %2 = bitcast i32* %m_nSampleRate to i8*, !dbg !4055
  call void @llvm.memset.p0i8.i64(i8* nonnull align 8 %2, i8 0, i64 36, i1 false), !dbg !4056
  store float 5.000000e+00, float* %m_fRoomRadius, align 4, !dbg !4055, !tbaa !4057
  %m_fInteriorGain = getelementptr inbounds %class.CAmbisonicEncoderDist, %class.CAmbisonicEncoderDist* %this, i64 0, i32 10, !dbg !4059
  store float 0.000000e+00, float* %m_fInteriorGain, align 8, !dbg !4060, !tbaa !4061
  %m_fExteriorGain = getelementptr inbounds %class.CAmbisonicEncoderDist, %class.CAmbisonicEncoderDist* %this, i64 0, i32 11, !dbg !4062
  store float 0.000000e+00, float* %m_fExteriorGain, align 4, !dbg !4063, !tbaa !4064
  %3 = bitcast %class.CAmbisonicEncoderDist* %this to i1 (%class.CAmbisonicEncoderDist*, i32, i1, i32)***, !dbg !4065
  %vtable = load i1 (%class.CAmbisonicEncoderDist*, i32, i1, i32)**, i1 (%class.CAmbisonicEncoderDist*, i32, i1, i32)*** %3, align 8, !dbg !4065, !tbaa !3034
  %vfn = getelementptr inbounds i1 (%class.CAmbisonicEncoderDist*, i32, i1, i32)*, i1 (%class.CAmbisonicEncoderDist*, i32, i1, i32)** %vtable, i64 2, !dbg !4065
  %4 = load i1 (%class.CAmbisonicEncoderDist*, i32, i1, i32)*, i1 (%class.CAmbisonicEncoderDist*, i32, i1, i32)** %vfn, align 8, !dbg !4065
  %call = invoke zeroext i1 %4(%class.CAmbisonicEncoderDist* %this, i32 1, i1 zeroext true, i32 44100)
          to label %invoke.cont unwind label %lpad, !dbg !4065

invoke.cont:                                      ; preds = %entry
  ret void, !dbg !4066

lpad:                                             ; preds = %entry
  %5 = landingpad { i8*, i32 }
          cleanup, !dbg !4067
  tail call void @_ZN17CAmbisonicEncoderD2Ev(%class.CAmbisonicEncoder* %0) #23, !dbg !4067
  resume { i8*, i32 } %5, !dbg !4067
}

declare i32 @__gxx_personality_v0(...)

; Function Attrs: nounwind uwtable
define void @_ZN21CAmbisonicEncoderDistD2Ev(%class.CAmbisonicEncoderDist* %this) unnamed_addr #7 align 2 !dbg !4068 {
entry:
  call void @llvm.dbg.value(metadata %class.CAmbisonicEncoderDist* %this, metadata !4070, metadata !DIExpression()), !dbg !4071
  %0 = getelementptr inbounds %class.CAmbisonicEncoderDist, %class.CAmbisonicEncoderDist* %this, i64 0, i32 0, i32 0, i32 0, i32 0, !dbg !4072
  store i32 (...)** bitcast (i8** getelementptr inbounds ({ [16 x i8*] }, { [16 x i8*] }* @_ZTV21CAmbisonicEncoderDist, i64 0, inrange i32 0, i64 2) to i32 (...)**), i32 (...)*** %0, align 8, !dbg !4072, !tbaa !3034
  %m_pfDelayBuffer = getelementptr inbounds %class.CAmbisonicEncoderDist, %class.CAmbisonicEncoderDist* %this, i64 0, i32 5, !dbg !4073
  %1 = load float*, float** %m_pfDelayBuffer, align 8, !dbg !4073, !tbaa !4076
  %tobool = icmp eq float* %1, null, !dbg !4073
  br i1 %tobool, label %if.end, label %delete.notnull, !dbg !4077

delete.notnull:                                   ; preds = %entry
  %2 = bitcast float* %1 to i8*, !dbg !4078
  tail call void @_ZdaPv(i8* %2) #26, !dbg !4078
  br label %if.end, !dbg !4078

if.end:                                           ; preds = %entry, %delete.notnull
  %3 = getelementptr inbounds %class.CAmbisonicEncoderDist, %class.CAmbisonicEncoderDist* %this, i64 0, i32 0, !dbg !4079
  tail call void @_ZN17CAmbisonicEncoderD2Ev(%class.CAmbisonicEncoder* %3) #23, !dbg !4079
  ret void, !dbg !4080
}

; Function Attrs: nobuiltin nounwind
declare void @_ZdaPv(i8*) local_unnamed_addr #13

; Function Attrs: nounwind uwtable
define void @_ZN21CAmbisonicEncoderDistD0Ev(%class.CAmbisonicEncoderDist* %this) unnamed_addr #7 align 2 !dbg !4081 {
entry:
  call void @llvm.dbg.value(metadata %class.CAmbisonicEncoderDist* %this, metadata !4083, metadata !DIExpression()), !dbg !4084
  tail call void @_ZN21CAmbisonicEncoderDistD2Ev(%class.CAmbisonicEncoderDist* %this) #23, !dbg !4085
  %0 = bitcast %class.CAmbisonicEncoderDist* %this to i8*, !dbg !4085
  tail call void @_ZdlPv(i8* %0) #26, !dbg !4085
  ret void, !dbg !4086
}

; Function Attrs: uwtable
define zeroext i1 @_ZN21CAmbisonicEncoderDist9ConfigureEjbj(%class.CAmbisonicEncoderDist* %this, i32 %nOrder, i1 zeroext %b3D, i32 %nSampleRate) unnamed_addr #0 align 2 !dbg !4087 {
entry:
  call void @llvm.dbg.value(metadata %class.CAmbisonicEncoderDist* %this, metadata !4089, metadata !DIExpression()), !dbg !4094
  call void @llvm.dbg.value(metadata i32 %nOrder, metadata !4090, metadata !DIExpression()), !dbg !4094
  call void @llvm.dbg.value(metadata i1 %b3D, metadata !4091, metadata !DIExpression()), !dbg !4094
  call void @llvm.dbg.value(metadata i32 %nSampleRate, metadata !4092, metadata !DIExpression()), !dbg !4094
  %0 = getelementptr inbounds %class.CAmbisonicEncoderDist, %class.CAmbisonicEncoderDist* %this, i64 0, i32 0, !dbg !4095
  %call = tail call zeroext i1 @_ZN17CAmbisonicEncoder9ConfigureEjbj(%class.CAmbisonicEncoder* %0, i32 %nOrder, i1 zeroext %b3D, i32 undef), !dbg !4095
  call void @llvm.dbg.value(metadata i8 1, metadata !4093, metadata !DIExpression()), !dbg !4094
  %m_nSampleRate = getelementptr inbounds %class.CAmbisonicEncoderDist, %class.CAmbisonicEncoderDist* %this, i64 0, i32 1, !dbg !4096
  store i32 %nSampleRate, i32* %m_nSampleRate, align 8, !dbg !4097, !tbaa !4098
  %conv = uitofp i32 %nSampleRate to float, !dbg !4099
  %mul = fmul float %conv, 0x3FDBE82FA0000000, !dbg !4100
  %add = fadd float %mul, 5.000000e-01, !dbg !4101
  %conv5 = fptoui float %add to i32, !dbg !4102
  %m_nDelayBufferLength = getelementptr inbounds %class.CAmbisonicEncoderDist, %class.CAmbisonicEncoderDist* %this, i64 0, i32 4, !dbg !4103
  store i32 %conv5, i32* %m_nDelayBufferLength, align 4, !dbg !4104, !tbaa !4105
  %m_pfDelayBuffer = getelementptr inbounds %class.CAmbisonicEncoderDist, %class.CAmbisonicEncoderDist* %this, i64 0, i32 5, !dbg !4106
  %1 = load float*, float** %m_pfDelayBuffer, align 8, !dbg !4106, !tbaa !4076
  %tobool6 = icmp eq float* %1, null, !dbg !4106
  br i1 %tobool6, label %if.end9, label %delete.notnull, !dbg !4108

delete.notnull:                                   ; preds = %entry
  %2 = bitcast float* %1 to i8*, !dbg !4109
  tail call void @_ZdaPv(i8* %2) #26, !dbg !4109
  br label %if.end9, !dbg !4109

if.end9:                                          ; preds = %entry, %delete.notnull
  %3 = load i32, i32* %m_nDelayBufferLength, align 4, !dbg !4110, !tbaa !4105
  %conv11 = zext i32 %3 to i64, !dbg !4110
  %4 = shl nuw nsw i64 %conv11, 2, !dbg !4111
  %call12 = tail call i8* @_Znam(i64 %4) #25, !dbg !4111
  %5 = bitcast float** %m_pfDelayBuffer to i8**, !dbg !4112
  store i8* %call12, i8** %5, align 8, !dbg !4112, !tbaa !4076
  %6 = bitcast %class.CAmbisonicEncoderDist* %this to void (%class.CAmbisonicEncoderDist*)***, !dbg !4113
  %vtable = load void (%class.CAmbisonicEncoderDist*)**, void (%class.CAmbisonicEncoderDist*)*** %6, align 8, !dbg !4113, !tbaa !3034
  %vfn = getelementptr inbounds void (%class.CAmbisonicEncoderDist*)*, void (%class.CAmbisonicEncoderDist*)** %vtable, i64 3, !dbg !4113
  %7 = load void (%class.CAmbisonicEncoderDist*)*, void (%class.CAmbisonicEncoderDist*)** %vfn, align 8, !dbg !4113
  tail call void %7(%class.CAmbisonicEncoderDist* nonnull %this), !dbg !4113
  ret i1 true, !dbg !4114
}

; Function Attrs: nounwind uwtable
define void @_ZN21CAmbisonicEncoderDist5ResetEv(%class.CAmbisonicEncoderDist* nocapture %this) unnamed_addr #7 align 2 !dbg !4115 {
entry:
  call void @llvm.dbg.value(metadata %class.CAmbisonicEncoderDist* %this, metadata !4117, metadata !DIExpression()), !dbg !4118
  %m_pfDelayBuffer = getelementptr inbounds %class.CAmbisonicEncoderDist, %class.CAmbisonicEncoderDist* %this, i64 0, i32 5, !dbg !4119
  %0 = bitcast float** %m_pfDelayBuffer to i8**, !dbg !4119
  %1 = load i8*, i8** %0, align 8, !dbg !4119, !tbaa !4076
  %m_nDelayBufferLength = getelementptr inbounds %class.CAmbisonicEncoderDist, %class.CAmbisonicEncoderDist* %this, i64 0, i32 4, !dbg !4120
  %2 = load i32, i32* %m_nDelayBufferLength, align 4, !dbg !4120, !tbaa !4105
  %conv = zext i32 %2 to i64, !dbg !4120
  %mul = shl nuw nsw i64 %conv, 2, !dbg !4121
  tail call void @llvm.memset.p0i8.i64(i8* align 4 %1, i8 0, i64 %mul, i1 false), !dbg !4122
  %fDistance = getelementptr inbounds %class.CAmbisonicEncoderDist, %class.CAmbisonicEncoderDist* %this, i64 0, i32 0, i32 0, i32 3, i32 2, !dbg !4123
  %3 = load float, float* %fDistance, align 8, !dbg !4123, !tbaa !3599
  %div = fdiv float %3, 3.440000e+02, !dbg !4124
  %m_nSampleRate = getelementptr inbounds %class.CAmbisonicEncoderDist, %class.CAmbisonicEncoderDist* %this, i64 0, i32 1, !dbg !4125
  %4 = load i32, i32* %m_nSampleRate, align 8, !dbg !4125, !tbaa !4098
  %conv2 = uitofp i32 %4 to float, !dbg !4125
  %mul3 = fmul float %div, %conv2, !dbg !4126
  %add = fadd float %mul3, 5.000000e-01, !dbg !4127
  %m_fDelay = getelementptr inbounds %class.CAmbisonicEncoderDist, %class.CAmbisonicEncoderDist* %this, i64 0, i32 2, !dbg !4128
  %conv5 = fptosi float %add to i32, !dbg !4129
  %m_nDelay = getelementptr inbounds %class.CAmbisonicEncoderDist, %class.CAmbisonicEncoderDist* %this, i64 0, i32 3, !dbg !4130
  store i32 %conv5, i32* %m_nDelay, align 8, !dbg !4131, !tbaa !4132
  %conv7 = sitofp i32 %conv5 to float, !dbg !4133
  %sub = fsub float %add, %conv7, !dbg !4134
  store float %sub, float* %m_fDelay, align 4, !dbg !4134, !tbaa !4135
  %m_nIn = getelementptr inbounds %class.CAmbisonicEncoderDist, %class.CAmbisonicEncoderDist* %this, i64 0, i32 6, !dbg !4136
  store i32 0, i32* %m_nIn, align 8, !dbg !4137, !tbaa !4138
  %5 = load i32, i32* %m_nDelayBufferLength, align 4, !dbg !4139, !tbaa !4105
  %add13 = sub i32 %5, %conv5, !dbg !4140
  %rem = urem i32 %add13, %5, !dbg !4141
  %m_nOutA = getelementptr inbounds %class.CAmbisonicEncoderDist, %class.CAmbisonicEncoderDist* %this, i64 0, i32 7, !dbg !4142
  store i32 %rem, i32* %m_nOutA, align 4, !dbg !4143, !tbaa !4144
  %add16 = add nuw nsw i32 %rem, 1, !dbg !4145
  %rem18 = urem i32 %add16, %5, !dbg !4146
  %m_nOutB = getelementptr inbounds %class.CAmbisonicEncoderDist, %class.CAmbisonicEncoderDist* %this, i64 0, i32 8, !dbg !4147
  store i32 %rem18, i32* %m_nOutB, align 8, !dbg !4148, !tbaa !4149
  ret void, !dbg !4150
}

; Function Attrs: nounwind uwtable
define void @_ZN21CAmbisonicEncoderDist7RefreshEv(%class.CAmbisonicEncoderDist* %this) unnamed_addr #7 align 2 !dbg !4151 {
entry:
  call void @llvm.dbg.value(metadata %class.CAmbisonicEncoderDist* %this, metadata !4153, metadata !DIExpression()), !dbg !4154
  %0 = getelementptr inbounds %class.CAmbisonicEncoderDist, %class.CAmbisonicEncoderDist* %this, i64 0, i32 0, !dbg !4155
  tail call void @_ZN17CAmbisonicEncoder7RefreshEv(%class.CAmbisonicEncoder* %0), !dbg !4155
  %fDistance = getelementptr inbounds %class.CAmbisonicEncoderDist, %class.CAmbisonicEncoderDist* %this, i64 0, i32 0, i32 0, i32 3, i32 2, !dbg !4156
  %1 = load float, float* %fDistance, align 8, !dbg !4156, !tbaa !3599
  %2 = tail call float @llvm.fabs.f32(float %1), !dbg !4157
  %3 = fpext float %2 to double, !dbg !4157
  %div = fdiv double %3, 3.440000e+02, !dbg !4158
  %m_nSampleRate = getelementptr inbounds %class.CAmbisonicEncoderDist, %class.CAmbisonicEncoderDist* %this, i64 0, i32 1, !dbg !4159
  %4 = load i32, i32* %m_nSampleRate, align 8, !dbg !4159, !tbaa !4098
  %conv2 = uitofp i32 %4 to double, !dbg !4159
  %mul = fmul double %div, %conv2, !dbg !4160
  %conv3 = fptrunc double %mul to float, !dbg !4157
  %m_fDelay = getelementptr inbounds %class.CAmbisonicEncoderDist, %class.CAmbisonicEncoderDist* %this, i64 0, i32 2, !dbg !4161
  %conv5 = fptosi float %conv3 to i32, !dbg !4162
  %m_nDelay = getelementptr inbounds %class.CAmbisonicEncoderDist, %class.CAmbisonicEncoderDist* %this, i64 0, i32 3, !dbg !4163
  store i32 %conv5, i32* %m_nDelay, align 8, !dbg !4164, !tbaa !4132
  %conv7 = sitofp i32 %conv5 to float, !dbg !4165
  %sub = fsub float %conv3, %conv7, !dbg !4166
  store float %sub, float* %m_fDelay, align 4, !dbg !4166, !tbaa !4135
  %m_nIn = getelementptr inbounds %class.CAmbisonicEncoderDist, %class.CAmbisonicEncoderDist* %this, i64 0, i32 6, !dbg !4167
  %5 = load i32, i32* %m_nIn, align 8, !dbg !4167, !tbaa !4138
  %sub10 = sub i32 %5, %conv5, !dbg !4168
  %m_nDelayBufferLength = getelementptr inbounds %class.CAmbisonicEncoderDist, %class.CAmbisonicEncoderDist* %this, i64 0, i32 4, !dbg !4169
  %6 = load i32, i32* %m_nDelayBufferLength, align 4, !dbg !4169, !tbaa !4105
  %add = add i32 %sub10, %6, !dbg !4170
  %rem = urem i32 %add, %6, !dbg !4171
  %m_nOutA = getelementptr inbounds %class.CAmbisonicEncoderDist, %class.CAmbisonicEncoderDist* %this, i64 0, i32 7, !dbg !4172
  store i32 %rem, i32* %m_nOutA, align 4, !dbg !4173, !tbaa !4144
  %add13 = add nuw nsw i32 %rem, 1, !dbg !4174
  %rem15 = urem i32 %add13, %6, !dbg !4175
  %m_nOutB = getelementptr inbounds %class.CAmbisonicEncoderDist, %class.CAmbisonicEncoderDist* %this, i64 0, i32 8, !dbg !4176
  store i32 %rem15, i32* %m_nOutB, align 8, !dbg !4177, !tbaa !4149
  %m_fRoomRadius = getelementptr inbounds %class.CAmbisonicEncoderDist, %class.CAmbisonicEncoderDist* %this, i64 0, i32 9, !dbg !4178
  %7 = load float, float* %m_fRoomRadius, align 4, !dbg !4178, !tbaa !4057
  %conv19 = fpext float %7 to double, !dbg !4178
  %cmp = fcmp ult float %2, %7, !dbg !4180
  br i1 %cmp, label %if.else, label %if.then, !dbg !4181

if.then:                                          ; preds = %entry
  %div25 = fdiv double %conv19, %3, !dbg !4182
  %div26 = fmul double %div25, 5.000000e-01, !dbg !4184
  %conv27 = fptrunc double %div26 to float, !dbg !4185
  %m_fInteriorGain = getelementptr inbounds %class.CAmbisonicEncoderDist, %class.CAmbisonicEncoderDist* %this, i64 0, i32 10, !dbg !4186
  store float %conv27, float* %m_fInteriorGain, align 8, !dbg !4187, !tbaa !4061
  br label %if.end, !dbg !4188

if.else:                                          ; preds = %entry
  %div34 = fdiv double %3, %conv19, !dbg !4189
  %sub35 = fsub double 2.000000e+00, %div34, !dbg !4191
  %div36 = fmul double %sub35, 5.000000e-01, !dbg !4192
  %conv37 = fptrunc double %div36 to float, !dbg !4193
  %m_fInteriorGain38 = getelementptr inbounds %class.CAmbisonicEncoderDist, %class.CAmbisonicEncoderDist* %this, i64 0, i32 10, !dbg !4194
  store float %conv37, float* %m_fInteriorGain38, align 8, !dbg !4195, !tbaa !4061
  %div45 = fmul double %div34, 5.000000e-01, !dbg !4196
  %conv46 = fptrunc double %div45 to float, !dbg !4197
  br label %if.end

if.end:                                           ; preds = %if.else, %if.then
  %conv46.sink = phi float [ %conv46, %if.else ], [ %conv27, %if.then ]
  %m_fExteriorGain47 = getelementptr inbounds %class.CAmbisonicEncoderDist, %class.CAmbisonicEncoderDist* %this, i64 0, i32 11, !dbg !4198
  store float %conv46.sink, float* %m_fExteriorGain47, align 4, !dbg !4198, !tbaa !4064
  ret void, !dbg !4199
}

; Function Attrs: nounwind uwtable
define void @_ZN21CAmbisonicEncoderDist7ProcessEPfjP8CBFormat(%class.CAmbisonicEncoderDist* %this, float* nocapture readonly %pfSrc, i32 %nSamples, %class.CBFormat* %pfDst) local_unnamed_addr #7 align 2 !dbg !4200 {
entry:
  call void @llvm.dbg.value(metadata %class.CAmbisonicEncoderDist* %this, metadata !4202, metadata !DIExpression()), !dbg !4209
  call void @llvm.dbg.value(metadata float* %pfSrc, metadata !4203, metadata !DIExpression()), !dbg !4209
  call void @llvm.dbg.value(metadata i32 %nSamples, metadata !4204, metadata !DIExpression()), !dbg !4209
  call void @llvm.dbg.value(metadata %class.CBFormat* %pfDst, metadata !4205, metadata !DIExpression()), !dbg !4209
  call void @llvm.dbg.value(metadata i32 0, metadata !4206, metadata !DIExpression()), !dbg !4209
  call void @llvm.dbg.value(metadata i32 0, metadata !4207, metadata !DIExpression()), !dbg !4209
  call void @llvm.dbg.value(metadata float 0.000000e+00, metadata !4208, metadata !DIExpression()), !dbg !4209
  call void @llvm.dbg.value(metadata i32 0, metadata !4207, metadata !DIExpression()), !dbg !4209
  %cmp60 = icmp eq i32 %nSamples, 0, !dbg !4210
  br i1 %cmp60, label %for.end44, label %for.body.lr.ph, !dbg !4213

for.body.lr.ph:                                   ; preds = %entry
  %m_pfDelayBuffer = getelementptr inbounds %class.CAmbisonicEncoderDist, %class.CAmbisonicEncoderDist* %this, i64 0, i32 5, !dbg !4214
  %m_nIn = getelementptr inbounds %class.CAmbisonicEncoderDist, %class.CAmbisonicEncoderDist* %this, i64 0, i32 6, !dbg !4214
  %m_nOutA = getelementptr inbounds %class.CAmbisonicEncoderDist, %class.CAmbisonicEncoderDist* %this, i64 0, i32 7, !dbg !4214
  %m_fDelay = getelementptr inbounds %class.CAmbisonicEncoderDist, %class.CAmbisonicEncoderDist* %this, i64 0, i32 2, !dbg !4214
  %m_nOutB = getelementptr inbounds %class.CAmbisonicEncoderDist, %class.CAmbisonicEncoderDist* %this, i64 0, i32 8, !dbg !4214
  %m_fInteriorGain = getelementptr inbounds %class.CAmbisonicEncoderDist, %class.CAmbisonicEncoderDist* %this, i64 0, i32 10, !dbg !4214
  %m_pfCoeff = getelementptr inbounds %class.CAmbisonicEncoderDist, %class.CAmbisonicEncoderDist* %this, i64 0, i32 0, i32 0, i32 1, !dbg !4214
  %m_ppfChannels = getelementptr inbounds %class.CBFormat, %class.CBFormat* %pfDst, i64 0, i32 4, !dbg !4214
  %m_fExteriorGain = getelementptr inbounds %class.CAmbisonicEncoderDist, %class.CAmbisonicEncoderDist* %this, i64 0, i32 11, !dbg !4214
  %0 = getelementptr inbounds %class.CAmbisonicEncoderDist, %class.CAmbisonicEncoderDist* %this, i64 0, i32 0, i32 0, i32 0, i32 4, !dbg !4216
  %m_nDelayBufferLength = getelementptr inbounds %class.CAmbisonicEncoderDist, %class.CAmbisonicEncoderDist* %this, i64 0, i32 4, !dbg !4214
  %wide.trip.count = zext i32 %nSamples to i64, !dbg !4210
  br label %for.body, !dbg !4213

for.body:                                         ; preds = %for.end, %for.body.lr.ph
  %indvars.iv62 = phi i64 [ 0, %for.body.lr.ph ], [ %indvars.iv.next63, %for.end ]
  call void @llvm.dbg.value(metadata i64 %indvars.iv62, metadata !4207, metadata !DIExpression()), !dbg !4209
  %arrayidx = getelementptr inbounds float, float* %pfSrc, i64 %indvars.iv62, !dbg !4219
  %1 = bitcast float* %arrayidx to i32*, !dbg !4219
  %2 = load i32, i32* %1, align 4, !dbg !4219, !tbaa !3353
  %3 = load float*, float** %m_pfDelayBuffer, align 8, !dbg !4220, !tbaa !4076
  %4 = load i32, i32* %m_nIn, align 8, !dbg !4221, !tbaa !4138
  %idxprom2 = sext i32 %4 to i64, !dbg !4220
  %arrayidx3 = getelementptr inbounds float, float* %3, i64 %idxprom2, !dbg !4220
  %5 = bitcast float* %arrayidx3 to i32*, !dbg !4222
  store i32 %2, i32* %5, align 4, !dbg !4222, !tbaa !3353
  %6 = load i32, i32* %m_nOutA, align 4, !dbg !4223, !tbaa !4144
  %idxprom5 = sext i32 %6 to i64, !dbg !4224
  %arrayidx6 = getelementptr inbounds float, float* %3, i64 %idxprom5, !dbg !4224
  %7 = load float, float* %arrayidx6, align 4, !dbg !4224, !tbaa !3353
  %8 = load float, float* %m_fDelay, align 4, !dbg !4225, !tbaa !4135
  %sub = fsub float 1.000000e+00, %8, !dbg !4226
  %mul = fmul float %7, %sub, !dbg !4227
  %9 = load i32, i32* %m_nOutB, align 8, !dbg !4228, !tbaa !4149
  %idxprom8 = sext i32 %9 to i64, !dbg !4229
  %arrayidx9 = getelementptr inbounds float, float* %3, i64 %idxprom8, !dbg !4229
  %10 = load float, float* %arrayidx9, align 4, !dbg !4229, !tbaa !3353
  %mul11 = fmul float %8, %10, !dbg !4230
  %add = fadd float %mul, %mul11, !dbg !4231
  call void @llvm.dbg.value(metadata float %add, metadata !4208, metadata !DIExpression()), !dbg !4209
  %11 = load float, float* %m_fInteriorGain, align 8, !dbg !4232, !tbaa !4061
  %mul12 = fmul float %11, %add, !dbg !4233
  %call = tail call dereferenceable(4) float* @_ZNSt6vectorIfSaIfEEixEm(%"class.std::vector"* nonnull %m_pfCoeff, i64 0) #23, !dbg !4234
  %12 = load float, float* %call, align 4, !dbg !4234, !tbaa !3353
  %mul13 = fmul float %mul12, %12, !dbg !4235
  %call14 = tail call dereferenceable(8) float** @_ZNKSt10unique_ptrIA_PfSt14default_deleteIS1_EEixEm(%"class.std::unique_ptr"* nonnull %m_ppfChannels, i64 0), !dbg !4236
  %13 = load float*, float** %call14, align 8, !dbg !4236, !tbaa !3163
  %arrayidx16 = getelementptr inbounds float, float* %13, i64 %indvars.iv62, !dbg !4236
  store float %mul13, float* %arrayidx16, align 4, !dbg !4237, !tbaa !3353
  %14 = load float, float* %m_fExteriorGain, align 4, !dbg !4238, !tbaa !4064
  %mul17 = fmul float %add, %14, !dbg !4239
  call void @llvm.dbg.value(metadata float %mul17, metadata !4208, metadata !DIExpression()), !dbg !4209
  call void @llvm.dbg.value(metadata i32 1, metadata !4206, metadata !DIExpression()), !dbg !4209
  %15 = load i32, i32* %0, align 8, !dbg !4240, !tbaa !3046
  %cmp1958 = icmp ugt i32 %15, 1, !dbg !4241
  br i1 %cmp1958, label %for.body20, label %for.end, !dbg !4242

for.body20:                                       ; preds = %for.body, %for.body20
  %indvars.iv = phi i64 [ %indvars.iv.next, %for.body20 ], [ 1, %for.body ]
  call void @llvm.dbg.value(metadata i64 %indvars.iv, metadata !4206, metadata !DIExpression()), !dbg !4209
  %call22 = tail call dereferenceable(4) float* @_ZNSt6vectorIfSaIfEEixEm(%"class.std::vector"* nonnull %m_pfCoeff, i64 %indvars.iv) #23, !dbg !4243
  %16 = load float, float* %call22, align 4, !dbg !4243, !tbaa !3353
  %mul23 = fmul float %mul17, %16, !dbg !4245
  %call26 = tail call dereferenceable(8) float** @_ZNKSt10unique_ptrIA_PfSt14default_deleteIS1_EEixEm(%"class.std::unique_ptr"* nonnull %m_ppfChannels, i64 %indvars.iv), !dbg !4246
  %17 = load float*, float** %call26, align 8, !dbg !4246, !tbaa !3163
  %arrayidx28 = getelementptr inbounds float, float* %17, i64 %indvars.iv62, !dbg !4246
  store float %mul23, float* %arrayidx28, align 4, !dbg !4247, !tbaa !3353
  %indvars.iv.next = add nuw nsw i64 %indvars.iv, 1, !dbg !4248
  call void @llvm.dbg.value(metadata i32 undef, metadata !4206, metadata !DIExpression(DW_OP_plus_uconst, 1, DW_OP_stack_value)), !dbg !4209
  %18 = load i32, i32* %0, align 8, !dbg !4240, !tbaa !3046
  %19 = zext i32 %18 to i64, !dbg !4241
  %cmp19 = icmp ult i64 %indvars.iv.next, %19, !dbg !4241
  br i1 %cmp19, label %for.body20, label %for.end, !dbg !4242, !llvm.loop !4249

for.end:                                          ; preds = %for.body20, %for.body
  %20 = load i32, i32* %m_nIn, align 8, !dbg !4251, !tbaa !4138
  %add30 = add nsw i32 %20, 1, !dbg !4252
  %21 = load i32, i32* %m_nDelayBufferLength, align 4, !dbg !4253, !tbaa !4105
  %rem = urem i32 %add30, %21, !dbg !4254
  store i32 %rem, i32* %m_nIn, align 8, !dbg !4255, !tbaa !4138
  %22 = load i32, i32* %m_nOutA, align 4, !dbg !4256, !tbaa !4144
  %add33 = add nsw i32 %22, 1, !dbg !4257
  %rem35 = urem i32 %add33, %21, !dbg !4258
  store i32 %rem35, i32* %m_nOutA, align 4, !dbg !4259, !tbaa !4144
  %23 = load i32, i32* %m_nOutB, align 8, !dbg !4260, !tbaa !4149
  %add38 = add nsw i32 %23, 1, !dbg !4261
  %rem40 = urem i32 %add38, %21, !dbg !4262
  store i32 %rem40, i32* %m_nOutB, align 8, !dbg !4263, !tbaa !4149
  %indvars.iv.next63 = add nuw nsw i64 %indvars.iv62, 1, !dbg !4264
  call void @llvm.dbg.value(metadata i32 undef, metadata !4207, metadata !DIExpression(DW_OP_plus_uconst, 1, DW_OP_stack_value)), !dbg !4209
  %exitcond = icmp eq i64 %indvars.iv.next63, %wide.trip.count, !dbg !4210
  br i1 %exitcond, label %for.end44, label %for.body, !dbg !4213, !llvm.loop !4265

for.end44:                                        ; preds = %for.end, %entry
  ret void, !dbg !4267
}

; Function Attrs: nofree norecurse nounwind uwtable writeonly
define void @_ZN21CAmbisonicEncoderDist13SetRoomRadiusEf(%class.CAmbisonicEncoderDist* nocapture %this, float %fRoomRadius) local_unnamed_addr #4 align 2 !dbg !4268 {
entry:
  call void @llvm.dbg.value(metadata %class.CAmbisonicEncoderDist* %this, metadata !4270, metadata !DIExpression()), !dbg !4272
  call void @llvm.dbg.value(metadata float %fRoomRadius, metadata !4271, metadata !DIExpression()), !dbg !4272
  %m_fRoomRadius = getelementptr inbounds %class.CAmbisonicEncoderDist, %class.CAmbisonicEncoderDist* %this, i64 0, i32 9, !dbg !4273
  store float %fRoomRadius, float* %m_fRoomRadius, align 4, !dbg !4274, !tbaa !4057
  ret void, !dbg !4275
}

; Function Attrs: norecurse nounwind readonly uwtable
define float @_ZN21CAmbisonicEncoderDist13GetRoomRadiusEv(%class.CAmbisonicEncoderDist* nocapture readonly %this) local_unnamed_addr #6 align 2 !dbg !4276 {
entry:
  call void @llvm.dbg.value(metadata %class.CAmbisonicEncoderDist* %this, metadata !4278, metadata !DIExpression()), !dbg !4279
  %m_fRoomRadius = getelementptr inbounds %class.CAmbisonicEncoderDist, %class.CAmbisonicEncoderDist* %this, i64 0, i32 9, !dbg !4280
  %0 = load float, float* %m_fRoomRadius, align 4, !dbg !4280, !tbaa !4057
  ret float %0, !dbg !4281
}

; Function Attrs: uwtable
define void @_ZN12ILLIXR_AUDIO5SoundC2ENSt7__cxx1112basic_stringIcSt11char_traitsIcESaIcEEEjb(%"class.ILLIXR_AUDIO::Sound"* nocapture %this, %"class.std::__cxx11::basic_string"* %srcFilename, i32 %nOrder, i1 zeroext %b3D) unnamed_addr #14 align 2 personality i8* bitcast (i32 (...)* @__gxx_personality_v0 to i8*) !dbg !4282 {
entry:
  %temp = alloca [44 x i8], align 16
  call void @llvm.dbg.value(metadata %"class.ILLIXR_AUDIO::Sound"* %this, metadata !4284, metadata !DIExpression()), !dbg !4301
  call void @llvm.dbg.declare(metadata %"class.std::__cxx11::basic_string"* %srcFilename, metadata !4285, metadata !DIExpression()), !dbg !4302
  call void @llvm.dbg.value(metadata i32 %nOrder, metadata !4286, metadata !DIExpression()), !dbg !4301
  call void @llvm.dbg.value(metadata i1 undef, metadata !4287, metadata !DIExpression()), !dbg !4301
  %amp = getelementptr inbounds %"class.ILLIXR_AUDIO::Sound", %"class.ILLIXR_AUDIO::Sound"* %this, i64 0, i32 5, !dbg !4303
  store float 1.000000e+00, float* %amp, align 4, !dbg !4304, !tbaa !4305
  %call = tail call i8* @_Znwm(i64 528) #25, !dbg !4307
  %0 = bitcast i8* %call to %"class.std::basic_fstream"*, !dbg !4307
  invoke void @_ZNSt13basic_fstreamIcSt11char_traitsIcEEC1ERKNSt7__cxx1112basic_stringIcS1_SaIcEEESt13_Ios_Openmode(%"class.std::basic_fstream"* nonnull %0, %"class.std::__cxx11::basic_string"* dereferenceable(32) %srcFilename, i32 8)
          to label %invoke.cont unwind label %lpad, !dbg !4308

invoke.cont:                                      ; preds = %entry
  %1 = bitcast %"class.ILLIXR_AUDIO::Sound"* %this to i8**, !dbg !4309
  store i8* %call, i8** %1, align 8, !dbg !4309, !tbaa !4310
  %2 = getelementptr inbounds [44 x i8], [44 x i8]* %temp, i64 0, i64 0, !dbg !4311
  call void @llvm.lifetime.start.p0i8(i64 44, i8* nonnull %2) #23, !dbg !4311
  call void @llvm.dbg.declare(metadata [44 x i8]* %temp, metadata !4288, metadata !DIExpression()), !dbg !4312
  %.cast = bitcast i8* %call to %"class.std::basic_istream"*, !dbg !4313
  %call3 = call dereferenceable(280) %"class.std::basic_istream"* @_ZNSi4readEPcl(%"class.std::basic_istream"* nonnull %.cast, i8* nonnull %2, i64 44), !dbg !4314
  %call4 = call i8* @_Znwm(i64 64) #25, !dbg !4315
  %3 = bitcast i8* %call4 to %class.CBFormat*, !dbg !4315
  call void @_ZN8CBFormatC2Ev(%class.CBFormat* nonnull %3), !dbg !4316
  %BFormat = getelementptr inbounds %"class.ILLIXR_AUDIO::Sound", %"class.ILLIXR_AUDIO::Sound"* %this, i64 0, i32 2, !dbg !4317
  %4 = bitcast %class.CBFormat** %BFormat to i8**, !dbg !4318
  store i8* %call4, i8** %4, align 8, !dbg !4318, !tbaa !4319
  %5 = bitcast i8* %call4 to i1 (%class.CBFormat*, i32, i1, i32)***, !dbg !4320
  %vtable = load i1 (%class.CBFormat*, i32, i1, i32)**, i1 (%class.CBFormat*, i32, i1, i32)*** %5, align 8, !dbg !4320, !tbaa !3034
  %vfn = getelementptr inbounds i1 (%class.CBFormat*, i32, i1, i32)*, i1 (%class.CBFormat*, i32, i1, i32)** %vtable, i64 2, !dbg !4320
  %6 = load i1 (%class.CBFormat*, i32, i1, i32)*, i1 (%class.CBFormat*, i32, i1, i32)** %vfn, align 8, !dbg !4320
  %call8 = call zeroext i1 %6(%class.CBFormat* nonnull %3, i32 %nOrder, i1 zeroext true, i32 1024), !dbg !4320
  call void @llvm.dbg.value(metadata i1 %call8, metadata !4293, metadata !DIExpression()), !dbg !4321
  %7 = load %class.CBFormat*, %class.CBFormat** %BFormat, align 8, !dbg !4322, !tbaa !4319
  %8 = bitcast %class.CBFormat* %7 to void (%class.CBFormat*)***, !dbg !4323
  %vtable11 = load void (%class.CBFormat*)**, void (%class.CBFormat*)*** %8, align 8, !dbg !4323, !tbaa !3034
  %vfn12 = getelementptr inbounds void (%class.CBFormat*)*, void (%class.CBFormat*)** %vtable11, i64 4, !dbg !4323
  %9 = load void (%class.CBFormat*)*, void (%class.CBFormat*)** %vfn12, align 8, !dbg !4323
  call void %9(%class.CBFormat* %7), !dbg !4323
  %call13 = call i8* @_Znwm(i64 136) #25, !dbg !4324
  %10 = bitcast i8* %call13 to %class.CAmbisonicEncoderDist*, !dbg !4324
  invoke void @_ZN21CAmbisonicEncoderDistC2Ev(%class.CAmbisonicEncoderDist* nonnull %10)
          to label %invoke.cont15 unwind label %lpad14, !dbg !4325

invoke.cont15:                                    ; preds = %invoke.cont
  %BEncoder = getelementptr inbounds %"class.ILLIXR_AUDIO::Sound", %"class.ILLIXR_AUDIO::Sound"* %this, i64 0, i32 3, !dbg !4326
  %11 = bitcast %class.CAmbisonicEncoderDist** %BEncoder to i8**, !dbg !4327
  store i8* %call13, i8** %11, align 8, !dbg !4327, !tbaa !4328
  %12 = bitcast i8* %call13 to i1 (%class.CAmbisonicEncoderDist*, i32, i1, i32)***, !dbg !4329
  %vtable17 = load i1 (%class.CAmbisonicEncoderDist*, i32, i1, i32)**, i1 (%class.CAmbisonicEncoderDist*, i32, i1, i32)*** %12, align 8, !dbg !4329, !tbaa !3034
  %vfn18 = getelementptr inbounds i1 (%class.CAmbisonicEncoderDist*, i32, i1, i32)*, i1 (%class.CAmbisonicEncoderDist*, i32, i1, i32)** %vtable17, i64 2, !dbg !4329
  %13 = load i1 (%class.CAmbisonicEncoderDist*, i32, i1, i32)*, i1 (%class.CAmbisonicEncoderDist*, i32, i1, i32)** %vfn18, align 8, !dbg !4329
  %call19 = call zeroext i1 %13(%class.CAmbisonicEncoderDist* nonnull %10, i32 %nOrder, i1 zeroext true, i32 48000), !dbg !4329
  call void @llvm.dbg.value(metadata i1 undef, metadata !4293, metadata !DIExpression()), !dbg !4321
  %14 = load %class.CAmbisonicEncoderDist*, %class.CAmbisonicEncoderDist** %BEncoder, align 8, !dbg !4330, !tbaa !4328
  %15 = bitcast %class.CAmbisonicEncoderDist* %14 to void (%class.CAmbisonicEncoderDist*)***, !dbg !4331
  %vtable24 = load void (%class.CAmbisonicEncoderDist*)**, void (%class.CAmbisonicEncoderDist*)*** %15, align 8, !dbg !4331, !tbaa !3034
  %vfn25 = getelementptr inbounds void (%class.CAmbisonicEncoderDist*)*, void (%class.CAmbisonicEncoderDist*)** %vtable24, i64 4, !dbg !4331
  %16 = load void (%class.CAmbisonicEncoderDist*)*, void (%class.CAmbisonicEncoderDist*)** %vfn25, align 8, !dbg !4331
  call void %16(%class.CAmbisonicEncoderDist* %14), !dbg !4331
  %fAzimuth = getelementptr inbounds %"class.ILLIXR_AUDIO::Sound", %"class.ILLIXR_AUDIO::Sound"* %this, i64 0, i32 4, i32 0, !dbg !4332
  store float 0.000000e+00, float* %fAzimuth, align 8, !dbg !4333, !tbaa !4334
  %fElevation = getelementptr inbounds %"class.ILLIXR_AUDIO::Sound", %"class.ILLIXR_AUDIO::Sound"* %this, i64 0, i32 4, i32 1, !dbg !4335
  store float 0.000000e+00, float* %fElevation, align 4, !dbg !4336, !tbaa !4337
  %fDistance = getelementptr inbounds %"class.ILLIXR_AUDIO::Sound", %"class.ILLIXR_AUDIO::Sound"* %this, i64 0, i32 4, i32 2, !dbg !4338
  store float 0.000000e+00, float* %fDistance, align 8, !dbg !4339, !tbaa !4340
  %17 = bitcast %class.CAmbisonicEncoderDist** %BEncoder to %class.CAmbisonicSource**, !dbg !4341
  %18 = load %class.CAmbisonicSource*, %class.CAmbisonicSource** %17, align 8, !dbg !4341, !tbaa !4328
  %agg.tmp.sroa.0.0..sroa_idx = getelementptr inbounds %"class.ILLIXR_AUDIO::Sound", %"class.ILLIXR_AUDIO::Sound"* %this, i64 0, i32 4, !dbg !4342
  %agg.tmp.sroa.0.0..sroa_cast = bitcast %struct.PolarPoint* %agg.tmp.sroa.0.0..sroa_idx to <2 x float>*, !dbg !4342
  %agg.tmp.sroa.0.0.copyload = load <2 x float>, <2 x float>* %agg.tmp.sroa.0.0..sroa_cast, align 8, !dbg !4342
  %19 = bitcast %class.CAmbisonicSource* %18 to void (%class.CAmbisonicSource*, <2 x float>, float)***, !dbg !4343
  %vtable31 = load void (%class.CAmbisonicSource*, <2 x float>, float)**, void (%class.CAmbisonicSource*, <2 x float>, float)*** %19, align 8, !dbg !4343, !tbaa !3034
  %vfn32 = getelementptr inbounds void (%class.CAmbisonicSource*, <2 x float>, float)*, void (%class.CAmbisonicSource*, <2 x float>, float)** %vtable31, i64 5, !dbg !4343
  %20 = load void (%class.CAmbisonicSource*, <2 x float>, float)*, void (%class.CAmbisonicSource*, <2 x float>, float)** %vfn32, align 8, !dbg !4343
  call void %20(%class.CAmbisonicSource* %18, <2 x float> %agg.tmp.sroa.0.0.copyload, float 0.000000e+00), !dbg !4343
  %21 = load %class.CAmbisonicEncoderDist*, %class.CAmbisonicEncoderDist** %BEncoder, align 8, !dbg !4344, !tbaa !4328
  %22 = bitcast %class.CAmbisonicEncoderDist* %21 to void (%class.CAmbisonicEncoderDist*)***, !dbg !4345
  %vtable34 = load void (%class.CAmbisonicEncoderDist*)**, void (%class.CAmbisonicEncoderDist*)*** %22, align 8, !dbg !4345, !tbaa !3034
  %vfn35 = getelementptr inbounds void (%class.CAmbisonicEncoderDist*)*, void (%class.CAmbisonicEncoderDist*)** %vtable34, i64 4, !dbg !4345
  %23 = load void (%class.CAmbisonicEncoderDist*)*, void (%class.CAmbisonicEncoderDist*)** %vfn35, align 8, !dbg !4345
  call void %23(%class.CAmbisonicEncoderDist* %21), !dbg !4345
  %call36 = call i8* @_Znam(i64 4000) #25, !dbg !4346
  %sampleArray = getelementptr inbounds %"class.ILLIXR_AUDIO::Sound", %"class.ILLIXR_AUDIO::Sound"* %this, i64 0, i32 6, !dbg !4347
  %24 = bitcast float*** %sampleArray to i8**, !dbg !4348
  store i8* %call36, i8** %24, align 8, !dbg !4348, !tbaa !4349
  call void @llvm.dbg.value(metadata i32 0, metadata !4294, metadata !DIExpression()), !dbg !4350
  br label %for.body, !dbg !4351

for.cond.cleanup:                                 ; preds = %for.body
  %call39 = call i8* @_Znam(i64 4000) #25, !dbg !4352
  %BFormatArray = getelementptr inbounds %"class.ILLIXR_AUDIO::Sound", %"class.ILLIXR_AUDIO::Sound"* %this, i64 0, i32 7, !dbg !4353
  %25 = bitcast %class.CBFormat*** %BFormatArray to i8**, !dbg !4354
  store i8* %call39, i8** %25, align 8, !dbg !4354, !tbaa !4355
  %call40 = call i8* @_Znam(i64 4000) #25, !dbg !4356
  %BEncoderArray = getelementptr inbounds %"class.ILLIXR_AUDIO::Sound", %"class.ILLIXR_AUDIO::Sound"* %this, i64 0, i32 8, !dbg !4357
  %26 = bitcast %class.CAmbisonicEncoderDist*** %BEncoderArray to i8**, !dbg !4358
  store i8* %call40, i8** %26, align 8, !dbg !4358, !tbaa !4359
  call void @llvm.dbg.value(metadata i32 0, metadata !4296, metadata !DIExpression()), !dbg !4360
  br label %for.body45, !dbg !4361

lpad:                                             ; preds = %entry
  %27 = landingpad { i8*, i32 }
          cleanup, !dbg !4362
  %28 = extractvalue { i8*, i32 } %27, 0, !dbg !4362
  %29 = extractvalue { i8*, i32 } %27, 1, !dbg !4362
  tail call void @_ZdlPv(i8* nonnull %call) #26, !dbg !4307
  br label %eh.resume, !dbg !4307

lpad14:                                           ; preds = %invoke.cont
  %30 = landingpad { i8*, i32 }
          cleanup, !dbg !4362
  %31 = extractvalue { i8*, i32 } %30, 0, !dbg !4362
  %32 = extractvalue { i8*, i32 } %30, 1, !dbg !4362
  call void @_ZdlPv(i8* nonnull %call13) #26, !dbg !4324
  br label %ehcleanup103, !dbg !4324

for.body:                                         ; preds = %for.body, %invoke.cont15
  %indvars.iv129 = phi i64 [ 0, %invoke.cont15 ], [ %indvars.iv.next130, %for.body ]
  call void @llvm.dbg.value(metadata i64 %indvars.iv129, metadata !4294, metadata !DIExpression()), !dbg !4350
  %call37 = call i8* @_Znam(i64 4096) #25, !dbg !4363
  %33 = load float**, float*** %sampleArray, align 8, !dbg !4366, !tbaa !4349
  %arrayidx = getelementptr inbounds float*, float** %33, i64 %indvars.iv129, !dbg !4366
  %34 = bitcast float** %arrayidx to i8**, !dbg !4367
  store i8* %call37, i8** %34, align 8, !dbg !4367, !tbaa !3163
  %indvars.iv.next130 = add nuw nsw i64 %indvars.iv129, 1, !dbg !4368
  call void @llvm.dbg.value(metadata i32 undef, metadata !4294, metadata !DIExpression(DW_OP_plus_uconst, 1, DW_OP_stack_value)), !dbg !4350
  %exitcond131 = icmp eq i64 %indvars.iv.next130, 500, !dbg !4369
  br i1 %exitcond131, label %for.cond.cleanup, label %for.body, !dbg !4351, !llvm.loop !4370

for.cond.cleanup44:                               ; preds = %invoke.cont66
  call void @llvm.lifetime.end.p0i8(i64 44, i8* nonnull %2) #23, !dbg !4372
  ret void, !dbg !4372

for.body45:                                       ; preds = %invoke.cont66, %for.cond.cleanup
  %indvars.iv = phi i64 [ 0, %for.cond.cleanup ], [ %indvars.iv.next, %invoke.cont66 ]
  call void @llvm.dbg.value(metadata i64 %indvars.iv, metadata !4296, metadata !DIExpression()), !dbg !4360
  %call46 = call i8* @_Znwm(i64 64) #25, !dbg !4373
  %35 = bitcast i8* %call46 to %class.CBFormat*, !dbg !4373
  call void @_ZN8CBFormatC2Ev(%class.CBFormat* nonnull %35), !dbg !4374
  %36 = load %class.CBFormat**, %class.CBFormat*** %BFormatArray, align 8, !dbg !4375, !tbaa !4355
  %arrayidx51 = getelementptr inbounds %class.CBFormat*, %class.CBFormat** %36, i64 %indvars.iv, !dbg !4375
  %37 = bitcast %class.CBFormat** %arrayidx51 to i8**, !dbg !4376
  store i8* %call46, i8** %37, align 8, !dbg !4376, !tbaa !3163
  %38 = load %class.CBFormat**, %class.CBFormat*** %BFormatArray, align 8, !dbg !4377, !tbaa !4355
  %arrayidx54 = getelementptr inbounds %class.CBFormat*, %class.CBFormat** %38, i64 %indvars.iv, !dbg !4377
  %39 = load %class.CBFormat*, %class.CBFormat** %arrayidx54, align 8, !dbg !4377, !tbaa !3163
  %40 = bitcast %class.CBFormat* %39 to i1 (%class.CBFormat*, i32, i1, i32)***, !dbg !4378
  %vtable55 = load i1 (%class.CBFormat*, i32, i1, i32)**, i1 (%class.CBFormat*, i32, i1, i32)*** %40, align 8, !dbg !4378, !tbaa !3034
  %vfn56 = getelementptr inbounds i1 (%class.CBFormat*, i32, i1, i32)*, i1 (%class.CBFormat*, i32, i1, i32)** %vtable55, i64 2, !dbg !4378
  %41 = load i1 (%class.CBFormat*, i32, i1, i32)*, i1 (%class.CBFormat*, i32, i1, i32)** %vfn56, align 8, !dbg !4378
  %call57 = call zeroext i1 %41(%class.CBFormat* %39, i32 %nOrder, i1 zeroext true, i32 48000), !dbg !4378
  call void @llvm.dbg.value(metadata i1 %call57, metadata !4298, metadata !DIExpression()), !dbg !4379
  %42 = load %class.CBFormat**, %class.CBFormat*** %BFormatArray, align 8, !dbg !4380, !tbaa !4355
  %arrayidx61 = getelementptr inbounds %class.CBFormat*, %class.CBFormat** %42, i64 %indvars.iv, !dbg !4380
  %43 = load %class.CBFormat*, %class.CBFormat** %arrayidx61, align 8, !dbg !4380, !tbaa !3163
  %44 = bitcast %class.CBFormat* %43 to void (%class.CBFormat*)***, !dbg !4381
  %vtable62 = load void (%class.CBFormat*)**, void (%class.CBFormat*)*** %44, align 8, !dbg !4381, !tbaa !3034
  %vfn63 = getelementptr inbounds void (%class.CBFormat*)*, void (%class.CBFormat*)** %vtable62, i64 4, !dbg !4381
  %45 = load void (%class.CBFormat*)*, void (%class.CBFormat*)** %vfn63, align 8, !dbg !4381
  call void %45(%class.CBFormat* %43), !dbg !4381
  %call64 = call i8* @_Znwm(i64 136) #25, !dbg !4382
  %46 = bitcast i8* %call64 to %class.CAmbisonicEncoderDist*, !dbg !4382
  invoke void @_ZN21CAmbisonicEncoderDistC2Ev(%class.CAmbisonicEncoderDist* nonnull %46)
          to label %invoke.cont66 unwind label %lpad65, !dbg !4383

invoke.cont66:                                    ; preds = %for.body45
  %47 = load %class.CAmbisonicEncoderDist**, %class.CAmbisonicEncoderDist*** %BEncoderArray, align 8, !dbg !4384, !tbaa !4359
  %arrayidx69 = getelementptr inbounds %class.CAmbisonicEncoderDist*, %class.CAmbisonicEncoderDist** %47, i64 %indvars.iv, !dbg !4384
  %48 = bitcast %class.CAmbisonicEncoderDist** %arrayidx69 to i8**, !dbg !4385
  store i8* %call64, i8** %48, align 8, !dbg !4385, !tbaa !3163
  %49 = load %class.CAmbisonicEncoderDist**, %class.CAmbisonicEncoderDist*** %BEncoderArray, align 8, !dbg !4386, !tbaa !4359
  %arrayidx72 = getelementptr inbounds %class.CAmbisonicEncoderDist*, %class.CAmbisonicEncoderDist** %49, i64 %indvars.iv, !dbg !4386
  %50 = load %class.CAmbisonicEncoderDist*, %class.CAmbisonicEncoderDist** %arrayidx72, align 8, !dbg !4386, !tbaa !3163
  %51 = bitcast %class.CAmbisonicEncoderDist* %50 to i1 (%class.CAmbisonicEncoderDist*, i32, i1, i32)***, !dbg !4387
  %vtable73 = load i1 (%class.CAmbisonicEncoderDist*, i32, i1, i32)**, i1 (%class.CAmbisonicEncoderDist*, i32, i1, i32)*** %51, align 8, !dbg !4387, !tbaa !3034
  %vfn74 = getelementptr inbounds i1 (%class.CAmbisonicEncoderDist*, i32, i1, i32)*, i1 (%class.CAmbisonicEncoderDist*, i32, i1, i32)** %vtable73, i64 2, !dbg !4387
  %52 = load i1 (%class.CAmbisonicEncoderDist*, i32, i1, i32)*, i1 (%class.CAmbisonicEncoderDist*, i32, i1, i32)** %vfn74, align 8, !dbg !4387
  %call75 = call zeroext i1 %52(%class.CAmbisonicEncoderDist* %50, i32 %nOrder, i1 zeroext true, i32 48000), !dbg !4387
  call void @llvm.dbg.value(metadata i1 undef, metadata !4298, metadata !DIExpression()), !dbg !4379
  %53 = load %class.CAmbisonicEncoderDist**, %class.CAmbisonicEncoderDist*** %BEncoderArray, align 8, !dbg !4388, !tbaa !4359
  %arrayidx84 = getelementptr inbounds %class.CAmbisonicEncoderDist*, %class.CAmbisonicEncoderDist** %53, i64 %indvars.iv, !dbg !4388
  %54 = load %class.CAmbisonicEncoderDist*, %class.CAmbisonicEncoderDist** %arrayidx84, align 8, !dbg !4388, !tbaa !3163
  %55 = bitcast %class.CAmbisonicEncoderDist* %54 to void (%class.CAmbisonicEncoderDist*)***, !dbg !4389
  %vtable85 = load void (%class.CAmbisonicEncoderDist*)**, void (%class.CAmbisonicEncoderDist*)*** %55, align 8, !dbg !4389, !tbaa !3034
  %vfn86 = getelementptr inbounds void (%class.CAmbisonicEncoderDist*)*, void (%class.CAmbisonicEncoderDist*)** %vtable85, i64 4, !dbg !4389
  %56 = load void (%class.CAmbisonicEncoderDist*)*, void (%class.CAmbisonicEncoderDist*)** %vfn86, align 8, !dbg !4389
  call void %56(%class.CAmbisonicEncoderDist* %54), !dbg !4389
  %57 = load %class.CAmbisonicEncoderDist**, %class.CAmbisonicEncoderDist*** %BEncoderArray, align 8, !dbg !4390, !tbaa !4359
  %arrayidx89 = getelementptr inbounds %class.CAmbisonicEncoderDist*, %class.CAmbisonicEncoderDist** %57, i64 %indvars.iv, !dbg !4390
  %58 = bitcast %class.CAmbisonicEncoderDist** %arrayidx89 to %class.CAmbisonicSource**, !dbg !4390
  %59 = load %class.CAmbisonicSource*, %class.CAmbisonicSource** %58, align 8, !dbg !4390, !tbaa !3163
  %agg.tmp90.sroa.0.0.copyload = load <2 x float>, <2 x float>* %agg.tmp.sroa.0.0..sroa_cast, align 8, !dbg !4391
  %agg.tmp90.sroa.2.0.copyload = load float, float* %fDistance, align 8, !dbg !4391
  %60 = bitcast %class.CAmbisonicSource* %59 to void (%class.CAmbisonicSource*, <2 x float>, float)***, !dbg !4392
  %vtable92 = load void (%class.CAmbisonicSource*, <2 x float>, float)**, void (%class.CAmbisonicSource*, <2 x float>, float)*** %60, align 8, !dbg !4392, !tbaa !3034
  %vfn93 = getelementptr inbounds void (%class.CAmbisonicSource*, <2 x float>, float)*, void (%class.CAmbisonicSource*, <2 x float>, float)** %vtable92, i64 5, !dbg !4392
  %61 = load void (%class.CAmbisonicSource*, <2 x float>, float)*, void (%class.CAmbisonicSource*, <2 x float>, float)** %vfn93, align 8, !dbg !4392
  call void %61(%class.CAmbisonicSource* %59, <2 x float> %agg.tmp90.sroa.0.0.copyload, float %agg.tmp90.sroa.2.0.copyload), !dbg !4392
  %62 = load %class.CAmbisonicEncoderDist**, %class.CAmbisonicEncoderDist*** %BEncoderArray, align 8, !dbg !4393, !tbaa !4359
  %arrayidx96 = getelementptr inbounds %class.CAmbisonicEncoderDist*, %class.CAmbisonicEncoderDist** %62, i64 %indvars.iv, !dbg !4393
  %63 = load %class.CAmbisonicEncoderDist*, %class.CAmbisonicEncoderDist** %arrayidx96, align 8, !dbg !4393, !tbaa !3163
  %64 = bitcast %class.CAmbisonicEncoderDist* %63 to void (%class.CAmbisonicEncoderDist*)***, !dbg !4394
  %vtable97 = load void (%class.CAmbisonicEncoderDist*)**, void (%class.CAmbisonicEncoderDist*)*** %64, align 8, !dbg !4394, !tbaa !3034
  %vfn98 = getelementptr inbounds void (%class.CAmbisonicEncoderDist*)*, void (%class.CAmbisonicEncoderDist*)** %vtable97, i64 4, !dbg !4394
  %65 = load void (%class.CAmbisonicEncoderDist*)*, void (%class.CAmbisonicEncoderDist*)** %vfn98, align 8, !dbg !4394
  call void %65(%class.CAmbisonicEncoderDist* %63), !dbg !4394
  %indvars.iv.next = add nuw nsw i64 %indvars.iv, 1, !dbg !4395
  call void @llvm.dbg.value(metadata i32 undef, metadata !4296, metadata !DIExpression(DW_OP_plus_uconst, 1, DW_OP_stack_value)), !dbg !4360
  %exitcond = icmp eq i64 %indvars.iv.next, 500, !dbg !4396
  br i1 %exitcond, label %for.cond.cleanup44, label %for.body45, !dbg !4361, !llvm.loop !4397

lpad65:                                           ; preds = %for.body45
  %66 = landingpad { i8*, i32 }
          cleanup, !dbg !4399
  call void @_ZdlPv(i8* nonnull %call64) #26, !dbg !4382
  %67 = extractvalue { i8*, i32 } %66, 1, !dbg !4399
  %68 = extractvalue { i8*, i32 } %66, 0, !dbg !4399
  br label %ehcleanup103, !dbg !4400

ehcleanup103:                                     ; preds = %lpad14, %lpad65
  %ehselector.slot.1 = phi i32 [ %67, %lpad65 ], [ %32, %lpad14 ], !dbg !4321
  %exn.slot.1 = phi i8* [ %68, %lpad65 ], [ %31, %lpad14 ], !dbg !4321
  call void @llvm.lifetime.end.p0i8(i64 44, i8* nonnull %2) #23, !dbg !4372
  br label %eh.resume, !dbg !4372

eh.resume:                                        ; preds = %ehcleanup103, %lpad
  %ehselector.slot.3 = phi i32 [ %ehselector.slot.1, %ehcleanup103 ], [ %29, %lpad ], !dbg !4321
  %exn.slot.3 = phi i8* [ %exn.slot.1, %ehcleanup103 ], [ %28, %lpad ], !dbg !4321
  %lpad.val = insertvalue { i8*, i32 } undef, i8* %exn.slot.3, 0, !dbg !4307
  %lpad.val104 = insertvalue { i8*, i32 } %lpad.val, i32 %ehselector.slot.3, 1, !dbg !4307
  resume { i8*, i32 } %lpad.val104, !dbg !4307
}

; Function Attrs: nobuiltin nofree
declare noalias nonnull i8* @_Znwm(i64) local_unnamed_addr #9

; Function Attrs: uwtable
define available_externally void @_ZNSt13basic_fstreamIcSt11char_traitsIcEEC1ERKNSt7__cxx1112basic_stringIcS1_SaIcEEESt13_Ios_Openmode(%"class.std::basic_fstream"* %this, %"class.std::__cxx11::basic_string"* dereferenceable(32) %__s, i32 %__mode) unnamed_addr #0 align 2 personality i8* bitcast (i32 (...)* @__gxx_personality_v0 to i8*) !dbg !4401 {
entry:
  call void @llvm.dbg.value(metadata %"class.std::basic_fstream"* %this, metadata !4411, metadata !DIExpression()), !dbg !4415
  call void @llvm.dbg.value(metadata %"class.std::__cxx11::basic_string"* %__s, metadata !4413, metadata !DIExpression()), !dbg !4415
  call void @llvm.dbg.value(metadata i32 %__mode, metadata !4414, metadata !DIExpression()), !dbg !4415
  %0 = bitcast %"class.std::basic_fstream"* %this to i8*, !dbg !4416
  %1 = getelementptr inbounds %"class.std::basic_fstream", %"class.std::basic_fstream"* %this, i64 0, i32 2, !dbg !4416
  tail call void @_ZNSt9basic_iosIcSt11char_traitsIcEEC2Ev(%"class.std::basic_ios"* nonnull %1), !dbg !4417
  %2 = bitcast %"class.std::basic_fstream"* %this to %"class.std::basic_iostream"*, !dbg !4416
  invoke void @_ZNSdC2EPSt15basic_streambufIcSt11char_traitsIcEE(%"class.std::basic_iostream"* %2, i8** getelementptr inbounds ([10 x i8*], [10 x i8*]* @_ZTTSt13basic_fstreamIcSt11char_traitsIcEE, i64 0, i64 1), %"class.std::basic_streambuf"* null)
          to label %invoke.cont unwind label %lpad, !dbg !4418

invoke.cont:                                      ; preds = %entry
  %3 = getelementptr inbounds %"class.std::basic_fstream", %"class.std::basic_fstream"* %this, i64 0, i32 0, i32 0, i32 0, !dbg !4416
  store i32 (...)** bitcast (i8** getelementptr inbounds ({ [5 x i8*], [5 x i8*], [5 x i8*] }, { [5 x i8*], [5 x i8*], [5 x i8*] }* @_ZTVSt13basic_fstreamIcSt11char_traitsIcEE, i64 0, inrange i32 0, i64 3) to i32 (...)**), i32 (...)*** %3, align 8, !dbg !4416, !tbaa !3034
  %4 = getelementptr inbounds %"class.std::basic_ios", %"class.std::basic_ios"* %1, i64 0, i32 0, i32 0, !dbg !4416
  store i32 (...)** bitcast (i8** getelementptr inbounds ({ [5 x i8*], [5 x i8*], [5 x i8*] }, { [5 x i8*], [5 x i8*], [5 x i8*] }* @_ZTVSt13basic_fstreamIcSt11char_traitsIcEE, i64 0, inrange i32 2, i64 3) to i32 (...)**), i32 (...)*** %4, align 8, !dbg !4416, !tbaa !3034
  %5 = getelementptr inbounds %"class.std::basic_fstream", %"class.std::basic_fstream"* %this, i64 0, i32 0, i32 1, i32 0, !dbg !4416
  store i32 (...)** bitcast (i8** getelementptr inbounds ({ [5 x i8*], [5 x i8*], [5 x i8*] }, { [5 x i8*], [5 x i8*], [5 x i8*] }* @_ZTVSt13basic_fstreamIcSt11char_traitsIcEE, i64 0, inrange i32 1, i64 3) to i32 (...)**), i32 (...)*** %5, align 8, !dbg !4416, !tbaa !3034
  %_M_filebuf = getelementptr inbounds %"class.std::basic_fstream", %"class.std::basic_fstream"* %this, i64 0, i32 1, !dbg !4419
  invoke void @_ZNSt13basic_filebufIcSt11char_traitsIcEEC1Ev(%"class.std::basic_filebuf"* nonnull %_M_filebuf)
          to label %invoke.cont4 unwind label %lpad3, !dbg !4419

invoke.cont4:                                     ; preds = %invoke.cont
  %6 = bitcast %"class.std::basic_fstream"* %this to i8**, !dbg !4420
  %vtable = load i8*, i8** %6, align 8, !dbg !4420, !tbaa !3034
  %vbase.offset.ptr = getelementptr i8, i8* %vtable, i64 -24, !dbg !4420
  %7 = bitcast i8* %vbase.offset.ptr to i64*, !dbg !4420
  %vbase.offset = load i64, i64* %7, align 8, !dbg !4420
  %add.ptr5 = getelementptr inbounds i8, i8* %0, i64 %vbase.offset, !dbg !4420
  %8 = bitcast i8* %add.ptr5 to %"class.std::basic_ios"*, !dbg !4420
  %9 = getelementptr inbounds %"class.std::basic_filebuf", %"class.std::basic_filebuf"* %_M_filebuf, i64 0, i32 0, !dbg !4422
  invoke void @_ZNSt9basic_iosIcSt11char_traitsIcEE4initEPSt15basic_streambufIcS1_E(%"class.std::basic_ios"* %8, %"class.std::basic_streambuf"* nonnull %9)
          to label %invoke.cont8 unwind label %lpad7, !dbg !4420

invoke.cont8:                                     ; preds = %invoke.cont4
  invoke void @_ZNSt13basic_fstreamIcSt11char_traitsIcEE4openERKNSt7__cxx1112basic_stringIcS1_SaIcEEESt13_Ios_Openmode(%"class.std::basic_fstream"* nonnull %this, %"class.std::__cxx11::basic_string"* nonnull dereferenceable(32) %__s, i32 %__mode)
          to label %invoke.cont9 unwind label %lpad7, !dbg !4423

invoke.cont9:                                     ; preds = %invoke.cont8
  ret void, !dbg !4424

lpad:                                             ; preds = %entry
  %10 = landingpad { i8*, i32 }
          cleanup, !dbg !4424
  %11 = extractvalue { i8*, i32 } %10, 0, !dbg !4424
  %12 = extractvalue { i8*, i32 } %10, 1, !dbg !4424
  br label %ehcleanup10, !dbg !4424

lpad3:                                            ; preds = %invoke.cont
  %13 = landingpad { i8*, i32 }
          cleanup, !dbg !4424
  %14 = extractvalue { i8*, i32 } %13, 0, !dbg !4424
  %15 = extractvalue { i8*, i32 } %13, 1, !dbg !4424
  br label %ehcleanup, !dbg !4424

lpad7:                                            ; preds = %invoke.cont8, %invoke.cont4
  %16 = landingpad { i8*, i32 }
          cleanup, !dbg !4425
  %17 = extractvalue { i8*, i32 } %16, 0, !dbg !4425
  %18 = extractvalue { i8*, i32 } %16, 1, !dbg !4425
  tail call void @_ZNSt13basic_filebufIcSt11char_traitsIcEED2Ev(%"class.std::basic_filebuf"* nonnull %_M_filebuf) #23, !dbg !4425
  br label %ehcleanup, !dbg !4425

ehcleanup:                                        ; preds = %lpad7, %lpad3
  %exn.slot.0 = phi i8* [ %17, %lpad7 ], [ %14, %lpad3 ], !dbg !4415
  %ehselector.slot.0 = phi i32 [ %18, %lpad7 ], [ %15, %lpad3 ], !dbg !4415
  tail call void @_ZNSdD2Ev(%"class.std::basic_iostream"* nonnull %2, i8** getelementptr inbounds ([10 x i8*], [10 x i8*]* @_ZTTSt13basic_fstreamIcSt11char_traitsIcEE, i64 0, i64 1)) #23, !dbg !4425
  br label %ehcleanup10, !dbg !4425

ehcleanup10:                                      ; preds = %ehcleanup, %lpad
  %exn.slot.1 = phi i8* [ %exn.slot.0, %ehcleanup ], [ %11, %lpad ], !dbg !4415
  %ehselector.slot.1 = phi i32 [ %ehselector.slot.0, %ehcleanup ], [ %12, %lpad ], !dbg !4415
  tail call void @_ZNSt9basic_iosIcSt11char_traitsIcEED2Ev(%"class.std::basic_ios"* nonnull %1) #23, !dbg !4425
  %lpad.val = insertvalue { i8*, i32 } undef, i8* %exn.slot.1, 0, !dbg !4425
  %lpad.val11 = insertvalue { i8*, i32 } %lpad.val, i32 %ehselector.slot.1, 1, !dbg !4425
  resume { i8*, i32 } %lpad.val11, !dbg !4425
}

declare dereferenceable(280) %"class.std::basic_istream"* @_ZNSi4readEPcl(%"class.std::basic_istream"*, i8*, i64) local_unnamed_addr #1

; Function Attrs: uwtable
define void @_ZN12ILLIXR_AUDIO5Sound9setSrcPosER10PolarPoint(%"class.ILLIXR_AUDIO::Sound"* nocapture %this, %struct.PolarPoint* nocapture readonly dereferenceable(12) %pos) local_unnamed_addr #14 align 2 !dbg !4426 {
entry:
  call void @llvm.dbg.value(metadata %"class.ILLIXR_AUDIO::Sound"* %this, metadata !4428, metadata !DIExpression()), !dbg !4430
  call void @llvm.dbg.value(metadata %struct.PolarPoint* %pos, metadata !4429, metadata !DIExpression()), !dbg !4430
  %0 = bitcast %struct.PolarPoint* %pos to i32*, !dbg !4431
  %1 = load i32, i32* %0, align 4, !dbg !4431, !tbaa !4432
  %srcPos = getelementptr inbounds %"class.ILLIXR_AUDIO::Sound", %"class.ILLIXR_AUDIO::Sound"* %this, i64 0, i32 4, !dbg !4433
  %2 = bitcast %struct.PolarPoint* %srcPos to i32*, !dbg !4434
  store i32 %1, i32* %2, align 8, !dbg !4434, !tbaa !4334
  %fElevation = getelementptr inbounds %struct.PolarPoint, %struct.PolarPoint* %pos, i64 0, i32 1, !dbg !4435
  %3 = bitcast float* %fElevation to i32*, !dbg !4435
  %4 = load i32, i32* %3, align 4, !dbg !4435, !tbaa !4436
  %fElevation4 = getelementptr inbounds %"class.ILLIXR_AUDIO::Sound", %"class.ILLIXR_AUDIO::Sound"* %this, i64 0, i32 4, i32 1, !dbg !4437
  %5 = bitcast float* %fElevation4 to i32*, !dbg !4438
  store i32 %4, i32* %5, align 4, !dbg !4438, !tbaa !4337
  %fDistance = getelementptr inbounds %struct.PolarPoint, %struct.PolarPoint* %pos, i64 0, i32 2, !dbg !4439
  %6 = bitcast float* %fDistance to i32*, !dbg !4439
  %7 = load i32, i32* %6, align 4, !dbg !4439, !tbaa !4440
  %fDistance6 = getelementptr inbounds %"class.ILLIXR_AUDIO::Sound", %"class.ILLIXR_AUDIO::Sound"* %this, i64 0, i32 4, i32 2, !dbg !4441
  %8 = bitcast float* %fDistance6 to i32*, !dbg !4442
  store i32 %7, i32* %8, align 8, !dbg !4442, !tbaa !4340
  %BEncoder = getelementptr inbounds %"class.ILLIXR_AUDIO::Sound", %"class.ILLIXR_AUDIO::Sound"* %this, i64 0, i32 3, !dbg !4443
  %9 = bitcast %class.CAmbisonicEncoderDist** %BEncoder to %class.CAmbisonicSource**, !dbg !4443
  %10 = load %class.CAmbisonicSource*, %class.CAmbisonicSource** %9, align 8, !dbg !4443, !tbaa !4328
  %agg.tmp.sroa.0.0..sroa_cast = bitcast %struct.PolarPoint* %srcPos to <2 x float>*, !dbg !4444
  %agg.tmp.sroa.0.0.copyload = load <2 x float>, <2 x float>* %agg.tmp.sroa.0.0..sroa_cast, align 8, !dbg !4444
  %agg.tmp.sroa.2.0.copyload.cast = bitcast i32 %7 to float, !dbg !4444
  %11 = bitcast %class.CAmbisonicSource* %10 to void (%class.CAmbisonicSource*, <2 x float>, float)***, !dbg !4445
  %vtable = load void (%class.CAmbisonicSource*, <2 x float>, float)**, void (%class.CAmbisonicSource*, <2 x float>, float)*** %11, align 8, !dbg !4445, !tbaa !3034
  %vfn = getelementptr inbounds void (%class.CAmbisonicSource*, <2 x float>, float)*, void (%class.CAmbisonicSource*, <2 x float>, float)** %vtable, i64 5, !dbg !4445
  %12 = load void (%class.CAmbisonicSource*, <2 x float>, float)*, void (%class.CAmbisonicSource*, <2 x float>, float)** %vfn, align 8, !dbg !4445
  tail call void %12(%class.CAmbisonicSource* %10, <2 x float> %agg.tmp.sroa.0.0.copyload, float %agg.tmp.sroa.2.0.copyload.cast), !dbg !4445
  %13 = load %class.CAmbisonicEncoderDist*, %class.CAmbisonicEncoderDist** %BEncoder, align 8, !dbg !4446, !tbaa !4328
  %14 = bitcast %class.CAmbisonicEncoderDist* %13 to void (%class.CAmbisonicEncoderDist*)***, !dbg !4447
  %vtable9 = load void (%class.CAmbisonicEncoderDist*)**, void (%class.CAmbisonicEncoderDist*)*** %14, align 8, !dbg !4447, !tbaa !3034
  %vfn10 = getelementptr inbounds void (%class.CAmbisonicEncoderDist*)*, void (%class.CAmbisonicEncoderDist*)** %vtable9, i64 4, !dbg !4447
  %15 = load void (%class.CAmbisonicEncoderDist*)*, void (%class.CAmbisonicEncoderDist*)** %vfn10, align 8, !dbg !4447
  tail call void %15(%class.CAmbisonicEncoderDist* %13), !dbg !4447
  ret void, !dbg !4448
}

; Function Attrs: nofree norecurse nounwind uwtable writeonly
define void @_ZN12ILLIXR_AUDIO5Sound9setSrcAmpEf(%"class.ILLIXR_AUDIO::Sound"* nocapture %this, float %ampScale) local_unnamed_addr #4 align 2 !dbg !4449 {
entry:
  call void @llvm.dbg.value(metadata %"class.ILLIXR_AUDIO::Sound"* %this, metadata !4451, metadata !DIExpression()), !dbg !4453
  call void @llvm.dbg.value(metadata float %ampScale, metadata !4452, metadata !DIExpression()), !dbg !4453
  %amp = getelementptr inbounds %"class.ILLIXR_AUDIO::Sound", %"class.ILLIXR_AUDIO::Sound"* %this, i64 0, i32 5, !dbg !4454
  store float %ampScale, float* %amp, align 4, !dbg !4455, !tbaa !4305
  ret void, !dbg !4456
}

; Function Attrs: uwtable
define %class.CBFormat* @_ZN12ILLIXR_AUDIO5Sound13readInBFormatEv(%"class.ILLIXR_AUDIO::Sound"* nocapture %this) local_unnamed_addr #0 align 2 !dbg !4457 {
entry:
  %sampleTemp = alloca [1024 x i16], align 16
  call void @llvm.dbg.value(metadata %"class.ILLIXR_AUDIO::Sound"* %this, metadata !4459, metadata !DIExpression()), !dbg !4464
  %0 = bitcast [1024 x i16]* %sampleTemp to i8*, !dbg !4465
  call void @llvm.lifetime.start.p0i8(i64 2048, i8* nonnull %0) #23, !dbg !4465
  call void @llvm.dbg.declare(metadata [1024 x i16]* %sampleTemp, metadata !4460, metadata !DIExpression()), !dbg !4466
  %1 = bitcast %"class.ILLIXR_AUDIO::Sound"* %this to %"class.std::basic_istream"**, !dbg !4467
  %2 = load %"class.std::basic_istream"*, %"class.std::basic_istream"** %1, align 8, !dbg !4467, !tbaa !4310
  %call = call dereferenceable(280) %"class.std::basic_istream"* @_ZNSi4readEPcl(%"class.std::basic_istream"* %2, i8* nonnull %0, i64 2048), !dbg !4468
  call void @llvm.dbg.value(metadata i32 0, metadata !4462, metadata !DIExpression()), !dbg !4469
  %amp = getelementptr inbounds %"class.ILLIXR_AUDIO::Sound", %"class.ILLIXR_AUDIO::Sound"* %this, i64 0, i32 5, !dbg !4470
  br label %for.body, !dbg !4473

for.cond.cleanup:                                 ; preds = %for.body
  %BEncoder = getelementptr inbounds %"class.ILLIXR_AUDIO::Sound", %"class.ILLIXR_AUDIO::Sound"* %this, i64 0, i32 3, !dbg !4474
  %3 = load %class.CAmbisonicEncoderDist*, %class.CAmbisonicEncoderDist** %BEncoder, align 8, !dbg !4474, !tbaa !4328
  %arraydecay8 = getelementptr inbounds %"class.ILLIXR_AUDIO::Sound", %"class.ILLIXR_AUDIO::Sound"* %this, i64 0, i32 1, i64 0, !dbg !4475
  %BFormat = getelementptr inbounds %"class.ILLIXR_AUDIO::Sound", %"class.ILLIXR_AUDIO::Sound"* %this, i64 0, i32 2, !dbg !4476
  %4 = load %class.CBFormat*, %class.CBFormat** %BFormat, align 8, !dbg !4476, !tbaa !4319
  call void @_ZN21CAmbisonicEncoderDist7ProcessEPfjP8CBFormat(%class.CAmbisonicEncoderDist* %3, float* nonnull %arraydecay8, i32 1024, %class.CBFormat* %4), !dbg !4477
  %5 = load %class.CBFormat*, %class.CBFormat** %BFormat, align 8, !dbg !4478, !tbaa !4319
  call void @llvm.lifetime.end.p0i8(i64 2048, i8* nonnull %0) #23, !dbg !4479
  ret %class.CBFormat* %5, !dbg !4480

for.body:                                         ; preds = %for.body, %entry
  %indvars.iv = phi i64 [ 0, %entry ], [ %indvars.iv.next, %for.body ]
  call void @llvm.dbg.value(metadata i64 %indvars.iv, metadata !4462, metadata !DIExpression()), !dbg !4469
  %6 = load float, float* %amp, align 4, !dbg !4481, !tbaa !4305
  %conv = fpext float %6 to double, !dbg !4481
  %arrayidx = getelementptr inbounds [1024 x i16], [1024 x i16]* %sampleTemp, i64 0, i64 %indvars.iv, !dbg !4482
  %7 = load i16, i16* %arrayidx, align 2, !dbg !4482, !tbaa !4483
  %conv3 = sitofp i16 %7 to double, !dbg !4482
  %div = fdiv double %conv3, 3.276700e+04, !dbg !4485
  %mul = fmul double %div, %conv, !dbg !4486
  %conv4 = fptrunc double %mul to float, !dbg !4481
  %arrayidx6 = getelementptr inbounds %"class.ILLIXR_AUDIO::Sound", %"class.ILLIXR_AUDIO::Sound"* %this, i64 0, i32 1, i64 %indvars.iv, !dbg !4487
  store float %conv4, float* %arrayidx6, align 4, !dbg !4488, !tbaa !3353
  %indvars.iv.next = add nuw nsw i64 %indvars.iv, 1, !dbg !4489
  call void @llvm.dbg.value(metadata i32 undef, metadata !4462, metadata !DIExpression(DW_OP_plus_uconst, 1, DW_OP_stack_value)), !dbg !4469
  %exitcond = icmp eq i64 %indvars.iv.next, 1024, !dbg !4490
  br i1 %exitcond, label %for.cond.cleanup, label %for.body, !dbg !4473, !llvm.loop !4491
}

; Function Attrs: uwtable
define void @_ZN12ILLIXR_AUDIO5Sound20justReadInForBFormatEv(%"class.ILLIXR_AUDIO::Sound"* nocapture %this) local_unnamed_addr #0 align 2 !dbg !4493 {
entry:
  %sampleTemp = alloca [1024 x i16], align 16
  call void @llvm.dbg.value(metadata %"class.ILLIXR_AUDIO::Sound"* %this, metadata !4495, metadata !DIExpression()), !dbg !4499
  %0 = bitcast [1024 x i16]* %sampleTemp to i8*, !dbg !4500
  call void @llvm.lifetime.start.p0i8(i64 2048, i8* nonnull %0) #23, !dbg !4500
  call void @llvm.dbg.declare(metadata [1024 x i16]* %sampleTemp, metadata !4496, metadata !DIExpression()), !dbg !4501
  %1 = bitcast %"class.ILLIXR_AUDIO::Sound"* %this to %"class.std::basic_istream"**, !dbg !4502
  %2 = load %"class.std::basic_istream"*, %"class.std::basic_istream"** %1, align 8, !dbg !4502, !tbaa !4310
  %call = call dereferenceable(280) %"class.std::basic_istream"* @_ZNSi4readEPcl(%"class.std::basic_istream"* %2, i8* nonnull %0, i64 2048), !dbg !4503
  call void @llvm.dbg.value(metadata i32 0, metadata !4497, metadata !DIExpression()), !dbg !4504
  %amp = getelementptr inbounds %"class.ILLIXR_AUDIO::Sound", %"class.ILLIXR_AUDIO::Sound"* %this, i64 0, i32 5, !dbg !4505
  br label %for.body, !dbg !4508

for.cond.cleanup:                                 ; preds = %for.body
  call void @llvm.lifetime.end.p0i8(i64 2048, i8* nonnull %0) #23, !dbg !4509
  ret void, !dbg !4509

for.body:                                         ; preds = %for.body, %entry
  %indvars.iv = phi i64 [ 0, %entry ], [ %indvars.iv.next, %for.body ]
  call void @llvm.dbg.value(metadata i64 %indvars.iv, metadata !4497, metadata !DIExpression()), !dbg !4504
  %3 = load float, float* %amp, align 4, !dbg !4510, !tbaa !4305
  %conv = fpext float %3 to double, !dbg !4510
  %arrayidx = getelementptr inbounds [1024 x i16], [1024 x i16]* %sampleTemp, i64 0, i64 %indvars.iv, !dbg !4511
  %4 = load i16, i16* %arrayidx, align 2, !dbg !4511, !tbaa !4483
  %conv3 = sitofp i16 %4 to double, !dbg !4511
  %div = fdiv double %conv3, 3.276700e+04, !dbg !4512
  %mul = fmul double %div, %conv, !dbg !4513
  %conv4 = fptrunc double %mul to float, !dbg !4510
  %arrayidx6 = getelementptr inbounds %"class.ILLIXR_AUDIO::Sound", %"class.ILLIXR_AUDIO::Sound"* %this, i64 0, i32 1, i64 %indvars.iv, !dbg !4514
  store float %conv4, float* %arrayidx6, align 4, !dbg !4515, !tbaa !3353
  %indvars.iv.next = add nuw nsw i64 %indvars.iv, 1, !dbg !4516
  call void @llvm.dbg.value(metadata i32 undef, metadata !4497, metadata !DIExpression(DW_OP_plus_uconst, 1, DW_OP_stack_value)), !dbg !4504
  %exitcond = icmp eq i64 %indvars.iv.next, 1024, !dbg !4517
  br i1 %exitcond, label %for.cond.cleanup, label %for.body, !dbg !4508, !llvm.loop !4518
}

; Function Attrs: nounwind uwtable
define %class.CBFormat* @_ZN12ILLIXR_AUDIO5Sound16processToBFormatEv(%"class.ILLIXR_AUDIO::Sound"* nocapture readonly %this) local_unnamed_addr #7 align 2 !dbg !4520 {
entry:
  call void @llvm.dbg.value(metadata %"class.ILLIXR_AUDIO::Sound"* %this, metadata !4522, metadata !DIExpression()), !dbg !4523
  %BEncoder = getelementptr inbounds %"class.ILLIXR_AUDIO::Sound", %"class.ILLIXR_AUDIO::Sound"* %this, i64 0, i32 3, !dbg !4524
  %0 = load %class.CAmbisonicEncoderDist*, %class.CAmbisonicEncoderDist** %BEncoder, align 8, !dbg !4524, !tbaa !4328
  %arraydecay = getelementptr inbounds %"class.ILLIXR_AUDIO::Sound", %"class.ILLIXR_AUDIO::Sound"* %this, i64 0, i32 1, i64 0, !dbg !4525
  %BFormat = getelementptr inbounds %"class.ILLIXR_AUDIO::Sound", %"class.ILLIXR_AUDIO::Sound"* %this, i64 0, i32 2, !dbg !4526
  %1 = load %class.CBFormat*, %class.CBFormat** %BFormat, align 8, !dbg !4526, !tbaa !4319
  tail call void @_ZN21CAmbisonicEncoderDist7ProcessEPfjP8CBFormat(%class.CAmbisonicEncoderDist* %0, float* nonnull %arraydecay, i32 1024, %class.CBFormat* %1), !dbg !4527
  %2 = load %class.CBFormat*, %class.CBFormat** %BFormat, align 8, !dbg !4528, !tbaa !4319
  ret %class.CBFormat* %2, !dbg !4529
}

; Function Attrs: norecurse nounwind readnone uwtable
define nonnull float* @_ZN12ILLIXR_AUDIO5Sound9getSampleEv(%"class.ILLIXR_AUDIO::Sound"* readnone %this) local_unnamed_addr #10 align 2 !dbg !4530 {
entry:
  call void @llvm.dbg.value(metadata %"class.ILLIXR_AUDIO::Sound"* %this, metadata !4532, metadata !DIExpression()), !dbg !4533
  %arraydecay = getelementptr inbounds %"class.ILLIXR_AUDIO::Sound", %"class.ILLIXR_AUDIO::Sound"* %this, i64 0, i32 1, i64 0, !dbg !4534
  ret float* %arraydecay, !dbg !4535
}

; Function Attrs: norecurse nounwind readonly uwtable
define %class.CBFormat* @_ZN12ILLIXR_AUDIO5Sound10getBFormatEv(%"class.ILLIXR_AUDIO::Sound"* nocapture readonly %this) local_unnamed_addr #6 align 2 !dbg !4536 {
entry:
  call void @llvm.dbg.value(metadata %"class.ILLIXR_AUDIO::Sound"* %this, metadata !4538, metadata !DIExpression()), !dbg !4539
  %BFormat = getelementptr inbounds %"class.ILLIXR_AUDIO::Sound", %"class.ILLIXR_AUDIO::Sound"* %this, i64 0, i32 2, !dbg !4540
  %0 = load %class.CBFormat*, %class.CBFormat** %BFormat, align 8, !dbg !4540, !tbaa !4319
  ret %class.CBFormat* %0, !dbg !4541
}

; Function Attrs: nounwind uwtable
define void @_ZN12ILLIXR_AUDIO5SoundD2Ev(%"class.ILLIXR_AUDIO::Sound"* nocapture readonly %this) unnamed_addr #7 align 2 personality i8* bitcast (i32 (...)* @__gxx_personality_v0 to i8*) !dbg !4542 {
entry:
  call void @llvm.dbg.value(metadata %"class.ILLIXR_AUDIO::Sound"* %this, metadata !4544, metadata !DIExpression()), !dbg !4550
  %srcFile = getelementptr inbounds %"class.ILLIXR_AUDIO::Sound", %"class.ILLIXR_AUDIO::Sound"* %this, i64 0, i32 0, !dbg !4551
  %0 = load %"class.std::basic_fstream"*, %"class.std::basic_fstream"** %srcFile, align 8, !dbg !4551, !tbaa !4310
  invoke void @_ZNSt13basic_fstreamIcSt11char_traitsIcEE5closeEv(%"class.std::basic_fstream"* %0)
          to label %invoke.cont unwind label %terminate.lpad, !dbg !4552

invoke.cont:                                      ; preds = %entry
  %1 = load %"class.std::basic_fstream"*, %"class.std::basic_fstream"** %srcFile, align 8, !dbg !4553, !tbaa !4310
  %isnull = icmp eq %"class.std::basic_fstream"* %1, null, !dbg !4554
  br i1 %isnull, label %delete.end, label %delete.notnull, !dbg !4554

delete.notnull:                                   ; preds = %invoke.cont
  %2 = bitcast %"class.std::basic_fstream"* %1 to void (%"class.std::basic_fstream"*)***, !dbg !4554
  %vtable = load void (%"class.std::basic_fstream"*)**, void (%"class.std::basic_fstream"*)*** %2, align 8, !dbg !4554, !tbaa !3034
  %vfn = getelementptr inbounds void (%"class.std::basic_fstream"*)*, void (%"class.std::basic_fstream"*)** %vtable, i64 1, !dbg !4554
  %3 = load void (%"class.std::basic_fstream"*)*, void (%"class.std::basic_fstream"*)** %vfn, align 8, !dbg !4554
  tail call void %3(%"class.std::basic_fstream"* nonnull %1) #23, !dbg !4554
  br label %delete.end, !dbg !4554

delete.end:                                       ; preds = %delete.notnull, %invoke.cont
  %BFormat = getelementptr inbounds %"class.ILLIXR_AUDIO::Sound", %"class.ILLIXR_AUDIO::Sound"* %this, i64 0, i32 2, !dbg !4555
  %4 = load %class.CBFormat*, %class.CBFormat** %BFormat, align 8, !dbg !4555, !tbaa !4319
  %isnull3 = icmp eq %class.CBFormat* %4, null, !dbg !4556
  br i1 %isnull3, label %delete.end7, label %delete.notnull4, !dbg !4556

delete.notnull4:                                  ; preds = %delete.end
  %5 = bitcast %class.CBFormat* %4 to void (%class.CBFormat*)***, !dbg !4556
  %vtable5 = load void (%class.CBFormat*)**, void (%class.CBFormat*)*** %5, align 8, !dbg !4556, !tbaa !3034
  %vfn6 = getelementptr inbounds void (%class.CBFormat*)*, void (%class.CBFormat*)** %vtable5, i64 1, !dbg !4556
  %6 = load void (%class.CBFormat*)*, void (%class.CBFormat*)** %vfn6, align 8, !dbg !4556
  tail call void %6(%class.CBFormat* nonnull %4) #23, !dbg !4556
  br label %delete.end7, !dbg !4556

delete.end7:                                      ; preds = %delete.notnull4, %delete.end
  %BEncoder = getelementptr inbounds %"class.ILLIXR_AUDIO::Sound", %"class.ILLIXR_AUDIO::Sound"* %this, i64 0, i32 3, !dbg !4557
  %7 = load %class.CAmbisonicEncoderDist*, %class.CAmbisonicEncoderDist** %BEncoder, align 8, !dbg !4557, !tbaa !4328
  %isnull8 = icmp eq %class.CAmbisonicEncoderDist* %7, null, !dbg !4558
  br i1 %isnull8, label %delete.end12, label %delete.notnull9, !dbg !4558

delete.notnull9:                                  ; preds = %delete.end7
  %8 = bitcast %class.CAmbisonicEncoderDist* %7 to void (%class.CAmbisonicEncoderDist*)***, !dbg !4558
  %vtable10 = load void (%class.CAmbisonicEncoderDist*)**, void (%class.CAmbisonicEncoderDist*)*** %8, align 8, !dbg !4558, !tbaa !3034
  %vfn11 = getelementptr inbounds void (%class.CAmbisonicEncoderDist*)*, void (%class.CAmbisonicEncoderDist*)** %vtable10, i64 1, !dbg !4558
  %9 = load void (%class.CAmbisonicEncoderDist*)*, void (%class.CAmbisonicEncoderDist*)** %vfn11, align 8, !dbg !4558
  tail call void %9(%class.CAmbisonicEncoderDist* nonnull %7) #23, !dbg !4558
  br label %delete.end12, !dbg !4558

delete.end12:                                     ; preds = %delete.notnull9, %delete.end7
  call void @llvm.dbg.value(metadata i32 0, metadata !4545, metadata !DIExpression()), !dbg !4559
  %sampleArray = getelementptr inbounds %"class.ILLIXR_AUDIO::Sound", %"class.ILLIXR_AUDIO::Sound"* %this, i64 0, i32 6, !dbg !4560
  %10 = load float**, float*** %sampleArray, align 8, !dbg !4560, !tbaa !4349
  br label %for.body, !dbg !4561

for.cond.cleanup:                                 ; preds = %for.inc
  %isnull17 = icmp eq float** %14, null, !dbg !4562
  br i1 %isnull17, label %delete.end19, label %delete.notnull18, !dbg !4562

for.body:                                         ; preds = %for.inc, %delete.end12
  %indvars.iv69 = phi i64 [ 0, %delete.end12 ], [ %indvars.iv.next70, %for.inc ]
  %11 = phi float** [ %10, %delete.end12 ], [ %14, %for.inc ]
  call void @llvm.dbg.value(metadata i64 %indvars.iv69, metadata !4545, metadata !DIExpression()), !dbg !4559
  %arrayidx = getelementptr inbounds float*, float** %11, i64 %indvars.iv69, !dbg !4563
  %12 = load float*, float** %arrayidx, align 8, !dbg !4563, !tbaa !3163
  %isnull13 = icmp eq float* %12, null, !dbg !4566
  br i1 %isnull13, label %for.inc, label %delete.notnull14, !dbg !4566

delete.notnull14:                                 ; preds = %for.body
  %13 = bitcast float* %12 to i8*, !dbg !4566
  tail call void @_ZdaPv(i8* %13) #26, !dbg !4566
  br label %for.inc, !dbg !4566

for.inc:                                          ; preds = %for.body, %delete.notnull14
  %indvars.iv.next70 = add nuw nsw i64 %indvars.iv69, 1, !dbg !4567
  call void @llvm.dbg.value(metadata i32 undef, metadata !4545, metadata !DIExpression(DW_OP_plus_uconst, 1, DW_OP_stack_value)), !dbg !4559
  %14 = load float**, float*** %sampleArray, align 8, !dbg !4560, !tbaa !4349
  %exitcond71 = icmp eq i64 %indvars.iv.next70, 1024, !dbg !4568
  br i1 %exitcond71, label %for.cond.cleanup, label %for.body, !dbg !4561, !llvm.loop !4569

delete.notnull18:                                 ; preds = %for.cond.cleanup
  %15 = bitcast float** %14 to i8*, !dbg !4562
  tail call void @_ZdaPv(i8* %15) #26, !dbg !4562
  br label %delete.end19, !dbg !4562

delete.end19:                                     ; preds = %delete.notnull18, %for.cond.cleanup
  call void @llvm.dbg.value(metadata i32 0, metadata !4548, metadata !DIExpression()), !dbg !4571
  %BFormatArray = getelementptr inbounds %"class.ILLIXR_AUDIO::Sound", %"class.ILLIXR_AUDIO::Sound"* %this, i64 0, i32 7, !dbg !4560
  %16 = load %class.CBFormat**, %class.CBFormat*** %BFormatArray, align 8, !dbg !4560, !tbaa !4355
  %BEncoderArray = getelementptr inbounds %"class.ILLIXR_AUDIO::Sound", %"class.ILLIXR_AUDIO::Sound"* %this, i64 0, i32 8, !dbg !4572
  br label %for.body24, !dbg !4575

for.cond.cleanup23:                               ; preds = %for.inc39
  %isnull43 = icmp eq %class.CBFormat** %25, null, !dbg !4576
  br i1 %isnull43, label %delete.end45, label %delete.notnull44, !dbg !4576

for.body24:                                       ; preds = %for.inc39, %delete.end19
  %indvars.iv = phi i64 [ 0, %delete.end19 ], [ %indvars.iv.next, %for.inc39 ]
  %17 = phi %class.CBFormat** [ %16, %delete.end19 ], [ %25, %for.inc39 ]
  call void @llvm.dbg.value(metadata i64 %indvars.iv, metadata !4548, metadata !DIExpression()), !dbg !4571
  %arrayidx26 = getelementptr inbounds %class.CBFormat*, %class.CBFormat** %17, i64 %indvars.iv, !dbg !4577
  %18 = load %class.CBFormat*, %class.CBFormat** %arrayidx26, align 8, !dbg !4577, !tbaa !3163
  %isnull27 = icmp eq %class.CBFormat* %18, null, !dbg !4578
  br i1 %isnull27, label %delete.end31, label %delete.notnull28, !dbg !4578

delete.notnull28:                                 ; preds = %for.body24
  %19 = bitcast %class.CBFormat* %18 to void (%class.CBFormat*)***, !dbg !4578
  %vtable29 = load void (%class.CBFormat*)**, void (%class.CBFormat*)*** %19, align 8, !dbg !4578, !tbaa !3034
  %vfn30 = getelementptr inbounds void (%class.CBFormat*)*, void (%class.CBFormat*)** %vtable29, i64 1, !dbg !4578
  %20 = load void (%class.CBFormat*)*, void (%class.CBFormat*)** %vfn30, align 8, !dbg !4578
  tail call void %20(%class.CBFormat* nonnull %18) #23, !dbg !4578
  br label %delete.end31, !dbg !4578

delete.end31:                                     ; preds = %delete.notnull28, %for.body24
  %21 = load %class.CAmbisonicEncoderDist**, %class.CAmbisonicEncoderDist*** %BEncoderArray, align 8, !dbg !4579, !tbaa !4359
  %arrayidx33 = getelementptr inbounds %class.CAmbisonicEncoderDist*, %class.CAmbisonicEncoderDist** %21, i64 %indvars.iv, !dbg !4579
  %22 = load %class.CAmbisonicEncoderDist*, %class.CAmbisonicEncoderDist** %arrayidx33, align 8, !dbg !4579, !tbaa !3163
  %isnull34 = icmp eq %class.CAmbisonicEncoderDist* %22, null, !dbg !4580
  br i1 %isnull34, label %for.inc39, label %delete.notnull35, !dbg !4580

delete.notnull35:                                 ; preds = %delete.end31
  %23 = bitcast %class.CAmbisonicEncoderDist* %22 to void (%class.CAmbisonicEncoderDist*)***, !dbg !4580
  %vtable36 = load void (%class.CAmbisonicEncoderDist*)**, void (%class.CAmbisonicEncoderDist*)*** %23, align 8, !dbg !4580, !tbaa !3034
  %vfn37 = getelementptr inbounds void (%class.CAmbisonicEncoderDist*)*, void (%class.CAmbisonicEncoderDist*)** %vtable36, i64 1, !dbg !4580
  %24 = load void (%class.CAmbisonicEncoderDist*)*, void (%class.CAmbisonicEncoderDist*)** %vfn37, align 8, !dbg !4580
  tail call void %24(%class.CAmbisonicEncoderDist* nonnull %22) #23, !dbg !4580
  br label %for.inc39, !dbg !4580

for.inc39:                                        ; preds = %delete.end31, %delete.notnull35
  %indvars.iv.next = add nuw nsw i64 %indvars.iv, 1, !dbg !4581
  call void @llvm.dbg.value(metadata i32 undef, metadata !4548, metadata !DIExpression(DW_OP_plus_uconst, 1, DW_OP_stack_value)), !dbg !4571
  %25 = load %class.CBFormat**, %class.CBFormat*** %BFormatArray, align 8, !dbg !4560, !tbaa !4355
  %exitcond = icmp eq i64 %indvars.iv.next, 500, !dbg !4582
  br i1 %exitcond, label %for.cond.cleanup23, label %for.body24, !dbg !4575, !llvm.loop !4583

delete.notnull44:                                 ; preds = %for.cond.cleanup23
  %26 = bitcast %class.CBFormat** %25 to i8*, !dbg !4576
  tail call void @_ZdaPv(i8* %26) #26, !dbg !4576
  br label %delete.end45, !dbg !4576

delete.end45:                                     ; preds = %delete.notnull44, %for.cond.cleanup23
  %BEncoderArray46 = getelementptr inbounds %"class.ILLIXR_AUDIO::Sound", %"class.ILLIXR_AUDIO::Sound"* %this, i64 0, i32 8, !dbg !4585
  %27 = load %class.CAmbisonicEncoderDist**, %class.CAmbisonicEncoderDist*** %BEncoderArray46, align 8, !dbg !4585, !tbaa !4359
  %isnull47 = icmp eq %class.CAmbisonicEncoderDist** %27, null, !dbg !4586
  br i1 %isnull47, label %delete.end49, label %delete.notnull48, !dbg !4586

delete.notnull48:                                 ; preds = %delete.end45
  %28 = bitcast %class.CAmbisonicEncoderDist** %27 to i8*, !dbg !4586
  tail call void @_ZdaPv(i8* %28) #26, !dbg !4586
  br label %delete.end49, !dbg !4586

delete.end49:                                     ; preds = %delete.notnull48, %delete.end45
  ret void, !dbg !4587

terminate.lpad:                                   ; preds = %entry
  %29 = landingpad { i8*, i32 }
          catch i8* null, !dbg !4552
  %30 = extractvalue { i8*, i32 } %29, 0, !dbg !4552
  tail call void @__clang_call_terminate(i8* %30) #24, !dbg !4552
  unreachable, !dbg !4552
}

; Function Attrs: uwtable
define available_externally void @_ZNSt13basic_fstreamIcSt11char_traitsIcEE5closeEv(%"class.std::basic_fstream"* %this) local_unnamed_addr #0 align 2 !dbg !4588 {
entry:
  call void @llvm.dbg.value(metadata %"class.std::basic_fstream"* %this, metadata !4593, metadata !DIExpression()), !dbg !4594
  %_M_filebuf = getelementptr inbounds %"class.std::basic_fstream", %"class.std::basic_fstream"* %this, i64 0, i32 1, !dbg !4595
  %call = tail call %"class.std::basic_filebuf"* @_ZNSt13basic_filebufIcSt11char_traitsIcEE5closeEv(%"class.std::basic_filebuf"* nonnull %_M_filebuf), !dbg !4597
  %tobool = icmp eq %"class.std::basic_filebuf"* %call, null, !dbg !4595
  br i1 %tobool, label %if.then, label %if.end, !dbg !4598

if.then:                                          ; preds = %entry
  %0 = bitcast %"class.std::basic_fstream"* %this to i8**, !dbg !4599
  %vtable = load i8*, i8** %0, align 8, !dbg !4599, !tbaa !3034
  %vbase.offset.ptr = getelementptr i8, i8* %vtable, i64 -24, !dbg !4599
  %1 = bitcast i8* %vbase.offset.ptr to i64*, !dbg !4599
  %vbase.offset = load i64, i64* %1, align 8, !dbg !4599
  %2 = bitcast %"class.std::basic_fstream"* %this to i8*, !dbg !4599
  %add.ptr = getelementptr inbounds i8, i8* %2, i64 %vbase.offset, !dbg !4599
  %3 = bitcast i8* %add.ptr to %"class.std::basic_ios"*, !dbg !4599
  tail call void @_ZNSt9basic_iosIcSt11char_traitsIcEE8setstateESt12_Ios_Iostate(%"class.std::basic_ios"* %3, i32 4), !dbg !4599
  br label %if.end, !dbg !4600

if.end:                                           ; preds = %entry, %if.then
  ret void, !dbg !4601
}

; Function Attrs: noinline noreturn nounwind
define linkonce_odr hidden void @__clang_call_terminate(i8*) local_unnamed_addr #15 comdat {
  %2 = tail call i8* @__cxa_begin_catch(i8* %0) #23
  tail call void @_ZSt9terminatev() #24
  unreachable
}

declare i8* @__cxa_begin_catch(i8*) local_unnamed_addr

declare void @_ZSt9terminatev() local_unnamed_addr

; Function Attrs: uwtable
define void @_ZN12ILLIXR_AUDIO7ABAudioC2ENSt7__cxx1112basic_stringIcSt11char_traitsIcESaIcEEENS0_11ProcessTypeE(%"class.ILLIXR_AUDIO::ABAudio"* nocapture %this, %"class.std::__cxx11::basic_string"* %outputFilePath, i32 %procTypeIn) unnamed_addr #0 align 2 personality i8* bitcast (i32 (...)* @__gxx_personality_v0 to i8*) !dbg !4602 {
entry:
  call void @llvm.dbg.value(metadata %"class.ILLIXR_AUDIO::ABAudio"* %this, metadata !4604, metadata !DIExpression()), !dbg !4607
  call void @llvm.dbg.declare(metadata %"class.std::__cxx11::basic_string"* %outputFilePath, metadata !4605, metadata !DIExpression()), !dbg !4608
  call void @llvm.dbg.value(metadata i32 %procTypeIn, metadata !4606, metadata !DIExpression()), !dbg !4607
  %processType = getelementptr inbounds %"class.ILLIXR_AUDIO::ABAudio", %"class.ILLIXR_AUDIO::ABAudio"* %this, i64 0, i32 0, !dbg !4609
  store i32 %procTypeIn, i32* %processType, align 8, !dbg !4611, !tbaa !4612
  %cmp = icmp eq i32 %procTypeIn, 0, !dbg !4615
  br i1 %cmp, label %if.then, label %if.end, !dbg !4617

if.then:                                          ; preds = %entry
  %call = tail call i8* @_Znwm(i64 512) #25, !dbg !4618
  %0 = bitcast i8* %call to %"class.std::basic_ofstream"*, !dbg !4618
  %call3 = tail call i32 @_ZStorSt13_Ios_OpenmodeS_(i32 16, i32 4), !dbg !4620
  invoke void @_ZNSt14basic_ofstreamIcSt11char_traitsIcEEC1ERKNSt7__cxx1112basic_stringIcS1_SaIcEEESt13_Ios_Openmode(%"class.std::basic_ofstream"* nonnull %0, %"class.std::__cxx11::basic_string"* dereferenceable(32) %outputFilePath, i32 %call3)
          to label %invoke.cont4 unwind label %lpad, !dbg !4621

invoke.cont4:                                     ; preds = %if.then
  %outputFile = getelementptr inbounds %"class.ILLIXR_AUDIO::ABAudio", %"class.ILLIXR_AUDIO::ABAudio"* %this, i64 0, i32 2, !dbg !4622
  %1 = bitcast %"class.std::basic_ofstream"** %outputFile to i8**, !dbg !4623
  store i8* %call, i8** %1, align 8, !dbg !4623, !tbaa !4624
  tail call void @_ZN12ILLIXR_AUDIO7ABAudio17generateWAVHeaderEv(%"class.ILLIXR_AUDIO::ABAudio"* nonnull %this), !dbg !4625
  br label %if.end, !dbg !4626

lpad:                                             ; preds = %if.then
  %2 = landingpad { i8*, i32 }
          cleanup, !dbg !4627
  tail call void @_ZdlPv(i8* nonnull %call) #26, !dbg !4618
  resume { i8*, i32 } %2, !dbg !4618

if.end:                                           ; preds = %invoke.cont4, %entry
  %call5 = tail call i8* @_Znwm(i64 24) #25, !dbg !4628
  %3 = bitcast i8* %call5 to %"class.std::vector.6"*, !dbg !4628
  tail call void @_ZNSt6vectorIPN12ILLIXR_AUDIO5SoundESaIS2_EEC2Ev(%"class.std::vector.6"* nonnull %3) #23, !dbg !4629
  %soundSrcs = getelementptr inbounds %"class.ILLIXR_AUDIO::ABAudio", %"class.ILLIXR_AUDIO::ABAudio"* %this, i64 0, i32 1, !dbg !4630
  %4 = bitcast %"class.std::vector.6"** %soundSrcs to i8**, !dbg !4631
  store i8* %call5, i8** %4, align 8, !dbg !4631, !tbaa !4632
  ret void, !dbg !4633
}

; Function Attrs: inlinehint nounwind uwtable
define linkonce_odr i32 @_ZStorSt13_Ios_OpenmodeS_(i32 %__a, i32 %__b) local_unnamed_addr #16 comdat !dbg !4634 {
entry:
  call void @llvm.dbg.value(metadata i32 %__a, metadata !4638, metadata !DIExpression()), !dbg !4640
  call void @llvm.dbg.value(metadata i32 %__b, metadata !4639, metadata !DIExpression()), !dbg !4640
  %or = or i32 %__b, %__a, !dbg !4641
  ret i32 %or, !dbg !4642
}

; Function Attrs: uwtable
define available_externally void @_ZNSt14basic_ofstreamIcSt11char_traitsIcEEC1ERKNSt7__cxx1112basic_stringIcS1_SaIcEEESt13_Ios_Openmode(%"class.std::basic_ofstream"* %this, %"class.std::__cxx11::basic_string"* dereferenceable(32) %__s, i32 %__mode) unnamed_addr #0 align 2 personality i8* bitcast (i32 (...)* @__gxx_personality_v0 to i8*) !dbg !4643 {
entry:
  call void @llvm.dbg.value(metadata %"class.std::basic_ofstream"* %this, metadata !4649, metadata !DIExpression()), !dbg !4653
  call void @llvm.dbg.value(metadata %"class.std::__cxx11::basic_string"* %__s, metadata !4651, metadata !DIExpression()), !dbg !4653
  call void @llvm.dbg.value(metadata i32 %__mode, metadata !4652, metadata !DIExpression()), !dbg !4653
  %0 = bitcast %"class.std::basic_ofstream"* %this to i8*, !dbg !4654
  %1 = getelementptr inbounds %"class.std::basic_ofstream", %"class.std::basic_ofstream"* %this, i64 0, i32 2, !dbg !4654
  tail call void @_ZNSt9basic_iosIcSt11char_traitsIcEEC2Ev(%"class.std::basic_ios"* nonnull %1), !dbg !4655
  %2 = bitcast %"class.std::basic_ofstream"* %this to %"class.std::basic_ostream"*, !dbg !4654
  invoke void @_ZNSoC2Ev(%"class.std::basic_ostream"* %2, i8** getelementptr inbounds ([4 x i8*], [4 x i8*]* @_ZTTSt14basic_ofstreamIcSt11char_traitsIcEE, i64 0, i64 1))
          to label %invoke.cont unwind label %lpad, !dbg !4656

invoke.cont:                                      ; preds = %entry
  %3 = getelementptr inbounds %"class.std::basic_ofstream", %"class.std::basic_ofstream"* %this, i64 0, i32 0, i32 0, !dbg !4654
  store i32 (...)** bitcast (i8** getelementptr inbounds ({ [5 x i8*], [5 x i8*] }, { [5 x i8*], [5 x i8*] }* @_ZTVSt14basic_ofstreamIcSt11char_traitsIcEE, i64 0, inrange i32 0, i64 3) to i32 (...)**), i32 (...)*** %3, align 8, !dbg !4654, !tbaa !3034
  %4 = getelementptr inbounds %"class.std::basic_ios", %"class.std::basic_ios"* %1, i64 0, i32 0, i32 0, !dbg !4654
  store i32 (...)** bitcast (i8** getelementptr inbounds ({ [5 x i8*], [5 x i8*] }, { [5 x i8*], [5 x i8*] }* @_ZTVSt14basic_ofstreamIcSt11char_traitsIcEE, i64 0, inrange i32 1, i64 3) to i32 (...)**), i32 (...)*** %4, align 8, !dbg !4654, !tbaa !3034
  %_M_filebuf = getelementptr inbounds %"class.std::basic_ofstream", %"class.std::basic_ofstream"* %this, i64 0, i32 1, !dbg !4657
  invoke void @_ZNSt13basic_filebufIcSt11char_traitsIcEEC1Ev(%"class.std::basic_filebuf"* nonnull %_M_filebuf)
          to label %invoke.cont3 unwind label %lpad2, !dbg !4657

invoke.cont3:                                     ; preds = %invoke.cont
  %5 = bitcast %"class.std::basic_ofstream"* %this to i8**, !dbg !4658
  %vtable = load i8*, i8** %5, align 8, !dbg !4658, !tbaa !3034
  %vbase.offset.ptr = getelementptr i8, i8* %vtable, i64 -24, !dbg !4658
  %6 = bitcast i8* %vbase.offset.ptr to i64*, !dbg !4658
  %vbase.offset = load i64, i64* %6, align 8, !dbg !4658
  %add.ptr4 = getelementptr inbounds i8, i8* %0, i64 %vbase.offset, !dbg !4658
  %7 = bitcast i8* %add.ptr4 to %"class.std::basic_ios"*, !dbg !4658
  %8 = getelementptr inbounds %"class.std::basic_filebuf", %"class.std::basic_filebuf"* %_M_filebuf, i64 0, i32 0, !dbg !4660
  invoke void @_ZNSt9basic_iosIcSt11char_traitsIcEE4initEPSt15basic_streambufIcS1_E(%"class.std::basic_ios"* %7, %"class.std::basic_streambuf"* nonnull %8)
          to label %invoke.cont7 unwind label %lpad6, !dbg !4658

invoke.cont7:                                     ; preds = %invoke.cont3
  invoke void @_ZNSt14basic_ofstreamIcSt11char_traitsIcEE4openERKNSt7__cxx1112basic_stringIcS1_SaIcEEESt13_Ios_Openmode(%"class.std::basic_ofstream"* nonnull %this, %"class.std::__cxx11::basic_string"* nonnull dereferenceable(32) %__s, i32 %__mode)
          to label %invoke.cont8 unwind label %lpad6, !dbg !4661

invoke.cont8:                                     ; preds = %invoke.cont7
  ret void, !dbg !4662

lpad:                                             ; preds = %entry
  %9 = landingpad { i8*, i32 }
          cleanup, !dbg !4662
  %10 = extractvalue { i8*, i32 } %9, 0, !dbg !4662
  %11 = extractvalue { i8*, i32 } %9, 1, !dbg !4662
  br label %ehcleanup9, !dbg !4662

lpad2:                                            ; preds = %invoke.cont
  %12 = landingpad { i8*, i32 }
          cleanup, !dbg !4662
  %13 = extractvalue { i8*, i32 } %12, 0, !dbg !4662
  %14 = extractvalue { i8*, i32 } %12, 1, !dbg !4662
  br label %ehcleanup, !dbg !4662

lpad6:                                            ; preds = %invoke.cont7, %invoke.cont3
  %15 = landingpad { i8*, i32 }
          cleanup, !dbg !4663
  %16 = extractvalue { i8*, i32 } %15, 0, !dbg !4663
  %17 = extractvalue { i8*, i32 } %15, 1, !dbg !4663
  tail call void @_ZNSt13basic_filebufIcSt11char_traitsIcEED2Ev(%"class.std::basic_filebuf"* nonnull %_M_filebuf) #23, !dbg !4663
  br label %ehcleanup, !dbg !4663

ehcleanup:                                        ; preds = %lpad6, %lpad2
  %exn.slot.0 = phi i8* [ %16, %lpad6 ], [ %13, %lpad2 ], !dbg !4653
  %ehselector.slot.0 = phi i32 [ %17, %lpad6 ], [ %14, %lpad2 ], !dbg !4653
  tail call void @_ZNSoD2Ev(%"class.std::basic_ostream"* nonnull %2, i8** getelementptr inbounds ([4 x i8*], [4 x i8*]* @_ZTTSt14basic_ofstreamIcSt11char_traitsIcEE, i64 0, i64 1)) #23, !dbg !4663
  br label %ehcleanup9, !dbg !4663

ehcleanup9:                                       ; preds = %ehcleanup, %lpad
  %exn.slot.1 = phi i8* [ %exn.slot.0, %ehcleanup ], [ %10, %lpad ], !dbg !4653
  %ehselector.slot.1 = phi i32 [ %ehselector.slot.0, %ehcleanup ], [ %11, %lpad ], !dbg !4653
  tail call void @_ZNSt9basic_iosIcSt11char_traitsIcEED2Ev(%"class.std::basic_ios"* nonnull %1) #23, !dbg !4663
  %lpad.val = insertvalue { i8*, i32 } undef, i8* %exn.slot.1, 0, !dbg !4663
  %lpad.val10 = insertvalue { i8*, i32 } %lpad.val, i32 %ehselector.slot.1, 1, !dbg !4663
  resume { i8*, i32 } %lpad.val10, !dbg !4663
}

; Function Attrs: uwtable
define void @_ZN12ILLIXR_AUDIO7ABAudio17generateWAVHeaderEv(%"class.ILLIXR_AUDIO::ABAudio"* nocapture readonly %this) local_unnamed_addr #0 align 2 !dbg !4664 {
entry:
  %wavh = alloca %"struct.ILLIXR_AUDIO::WAVHeader_t", align 1
  call void @llvm.dbg.value(metadata %"class.ILLIXR_AUDIO::ABAudio"* %this, metadata !4666, metadata !DIExpression()), !dbg !4684
  %0 = bitcast %"struct.ILLIXR_AUDIO::WAVHeader_t"* %wavh to i8*, !dbg !4685
  call void @llvm.lifetime.start.p0i8(i64 44, i8* nonnull %0) #23, !dbg !4685
  call void @llvm.dbg.value(metadata %"struct.ILLIXR_AUDIO::WAVHeader_t"* %wavh, metadata !4667, metadata !DIExpression(DW_OP_deref)), !dbg !4684
  call void @_ZN12ILLIXR_AUDIO11WAVHeader_tC2Ev(%"struct.ILLIXR_AUDIO::WAVHeader_t"* nonnull %wavh) #23, !dbg !4686
  %outputFile = getelementptr inbounds %"class.ILLIXR_AUDIO::ABAudio", %"class.ILLIXR_AUDIO::ABAudio"* %this, i64 0, i32 2, !dbg !4687
  %1 = bitcast %"class.std::basic_ofstream"** %outputFile to %"class.std::basic_ostream"**, !dbg !4687
  %2 = load %"class.std::basic_ostream"*, %"class.std::basic_ostream"** %1, align 8, !dbg !4687, !tbaa !4624
  %call = call dereferenceable(272) %"class.std::basic_ostream"* @_ZNSo5writeEPKcl(%"class.std::basic_ostream"* %2, i8* nonnull %0, i64 44), !dbg !4688
  call void @llvm.lifetime.end.p0i8(i64 44, i8* nonnull %0) #23, !dbg !4689
  ret void, !dbg !4689
}

; Function Attrs: nounwind uwtable
define linkonce_odr void @_ZNSt6vectorIPN12ILLIXR_AUDIO5SoundESaIS2_EEC2Ev(%"class.std::vector.6"* %this) unnamed_addr #7 comdat align 2 personality i8* bitcast (i32 (...)* @__gxx_personality_v0 to i8*) !dbg !4690 {
entry:
  call void @llvm.dbg.value(metadata %"class.std::vector.6"* %this, metadata !4692, metadata !DIExpression()), !dbg !4693
  %0 = getelementptr inbounds %"class.std::vector.6", %"class.std::vector.6"* %this, i64 0, i32 0, !dbg !4694
  invoke void @_ZNSt12_Vector_baseIPN12ILLIXR_AUDIO5SoundESaIS2_EEC2Ev(%"struct.std::_Vector_base.7"* %0)
          to label %invoke.cont unwind label %terminate.lpad, !dbg !4695

invoke.cont:                                      ; preds = %entry
  ret void, !dbg !4696

terminate.lpad:                                   ; preds = %entry
  %1 = landingpad { i8*, i32 }
          catch i8* null, !dbg !4695
  %2 = extractvalue { i8*, i32 } %1, 0, !dbg !4695
  tail call void @__clang_call_terminate(i8* %2) #24, !dbg !4695
  unreachable, !dbg !4695
}

; Function Attrs: nounwind uwtable
define void @_ZN12ILLIXR_AUDIO7ABAudioD2Ev(%"class.ILLIXR_AUDIO::ABAudio"* nocapture readonly %this) unnamed_addr #7 align 2 !dbg !4697 {
entry:
  call void @llvm.dbg.value(metadata %"class.ILLIXR_AUDIO::ABAudio"* %this, metadata !4699, metadata !DIExpression()), !dbg !4703
  %processType = getelementptr inbounds %"class.ILLIXR_AUDIO::ABAudio", %"class.ILLIXR_AUDIO::ABAudio"* %this, i64 0, i32 0, !dbg !4704
  %0 = load i32, i32* %processType, align 8, !dbg !4704, !tbaa !4612
  %cmp = icmp eq i32 %0, 0, !dbg !4706
  br i1 %cmp, label %if.then, label %if.end, !dbg !4707

if.then:                                          ; preds = %entry
  %outputFile = getelementptr inbounds %"class.ILLIXR_AUDIO::ABAudio", %"class.ILLIXR_AUDIO::ABAudio"* %this, i64 0, i32 2, !dbg !4708
  %1 = bitcast %"class.std::basic_ofstream"** %outputFile to i8**, !dbg !4708
  %2 = load i8*, i8** %1, align 8, !dbg !4708, !tbaa !4624
  tail call void @free(i8* %2) #23, !dbg !4710
  br label %if.end, !dbg !4711

if.end:                                           ; preds = %if.then, %entry
  call void @llvm.dbg.value(metadata i32 0, metadata !4700, metadata !DIExpression()), !dbg !4712
  %soundSrcs = getelementptr inbounds %"class.ILLIXR_AUDIO::ABAudio", %"class.ILLIXR_AUDIO::ABAudio"* %this, i64 0, i32 1, !dbg !4713
  %3 = load %"class.std::vector.6"*, %"class.std::vector.6"** %soundSrcs, align 8, !dbg !4713, !tbaa !4632
  %call10 = tail call i64 @_ZNKSt6vectorIPN12ILLIXR_AUDIO5SoundESaIS2_EE4sizeEv(%"class.std::vector.6"* %3) #23, !dbg !4715
  %cmp211 = icmp eq i64 %call10, 0, !dbg !4716
  br i1 %cmp211, label %for.cond.cleanup, label %for.body, !dbg !4717

for.cond.cleanup:                                 ; preds = %for.body, %if.end
  %4 = bitcast %"class.std::vector.6"** %soundSrcs to i8**, !dbg !4718
  %5 = load i8*, i8** %4, align 8, !dbg !4718, !tbaa !4632
  tail call void @free(i8* %5) #23, !dbg !4719
  ret void, !dbg !4720

for.body:                                         ; preds = %if.end, %for.body
  %conv13 = phi i64 [ %conv, %for.body ], [ 0, %if.end ]
  %soundIdx.012 = phi i32 [ %inc, %for.body ], [ 0, %if.end ]
  call void @llvm.dbg.value(metadata i32 %soundIdx.012, metadata !4700, metadata !DIExpression()), !dbg !4712
  %6 = load %"class.std::vector.6"*, %"class.std::vector.6"** %soundSrcs, align 8, !dbg !4721, !tbaa !4632
  %call5 = tail call dereferenceable(8) %"class.ILLIXR_AUDIO::Sound"** @_ZNSt6vectorIPN12ILLIXR_AUDIO5SoundESaIS2_EEixEm(%"class.std::vector.6"* %6, i64 %conv13) #23, !dbg !4723
  %7 = bitcast %"class.ILLIXR_AUDIO::Sound"** %call5 to i8**, !dbg !4723
  %8 = load i8*, i8** %7, align 8, !dbg !4723, !tbaa !3163
  tail call void @free(i8* %8) #23, !dbg !4724
  %inc = add i32 %soundIdx.012, 1, !dbg !4725
  call void @llvm.dbg.value(metadata i32 %inc, metadata !4700, metadata !DIExpression()), !dbg !4712
  %conv = zext i32 %inc to i64, !dbg !4726
  %9 = load %"class.std::vector.6"*, %"class.std::vector.6"** %soundSrcs, align 8, !dbg !4713, !tbaa !4632
  %call = tail call i64 @_ZNKSt6vectorIPN12ILLIXR_AUDIO5SoundESaIS2_EE4sizeEv(%"class.std::vector.6"* %9) #23, !dbg !4715
  %cmp2 = icmp ugt i64 %call, %conv, !dbg !4716
  br i1 %cmp2, label %for.body, label %for.cond.cleanup, !dbg !4717, !llvm.loop !4727
}

; Function Attrs: nounwind
declare void @free(i8* nocapture) local_unnamed_addr #2

; Function Attrs: nounwind uwtable
define linkonce_odr i64 @_ZNKSt6vectorIPN12ILLIXR_AUDIO5SoundESaIS2_EE4sizeEv(%"class.std::vector.6"* %this) local_unnamed_addr #7 comdat align 2 !dbg !4729 {
entry:
  call void @llvm.dbg.value(metadata %"class.std::vector.6"* %this, metadata !4731, metadata !DIExpression()), !dbg !4733
  %_M_finish = getelementptr inbounds %"class.std::vector.6", %"class.std::vector.6"* %this, i64 0, i32 0, i32 0, i32 1, !dbg !4734
  %0 = bitcast %"class.ILLIXR_AUDIO::Sound"*** %_M_finish to i64*, !dbg !4734
  %1 = load i64, i64* %0, align 8, !dbg !4734, !tbaa !4735
  %2 = bitcast %"class.std::vector.6"* %this to i64*, !dbg !4738
  %3 = load i64, i64* %2, align 8, !dbg !4738, !tbaa !4739
  %sub.ptr.sub = sub i64 %1, %3, !dbg !4740
  %sub.ptr.div = ashr exact i64 %sub.ptr.sub, 3, !dbg !4740
  ret i64 %sub.ptr.div, !dbg !4741
}

; Function Attrs: nounwind uwtable
define linkonce_odr dereferenceable(8) %"class.ILLIXR_AUDIO::Sound"** @_ZNSt6vectorIPN12ILLIXR_AUDIO5SoundESaIS2_EEixEm(%"class.std::vector.6"* %this, i64 %__n) local_unnamed_addr #7 comdat align 2 !dbg !4742 {
entry:
  call void @llvm.dbg.value(metadata %"class.std::vector.6"* %this, metadata !4744, metadata !DIExpression()), !dbg !4746
  call void @llvm.dbg.value(metadata i64 %__n, metadata !4745, metadata !DIExpression()), !dbg !4746
  %_M_start = getelementptr inbounds %"class.std::vector.6", %"class.std::vector.6"* %this, i64 0, i32 0, i32 0, i32 0, !dbg !4747
  %0 = load %"class.ILLIXR_AUDIO::Sound"**, %"class.ILLIXR_AUDIO::Sound"*** %_M_start, align 8, !dbg !4747, !tbaa !4739
  %add.ptr = getelementptr inbounds %"class.ILLIXR_AUDIO::Sound"*, %"class.ILLIXR_AUDIO::Sound"** %0, i64 %__n, !dbg !4748
  ret %"class.ILLIXR_AUDIO::Sound"** %add.ptr, !dbg !4749
}

; Function Attrs: uwtable
define void @_ZN12ILLIXR_AUDIO7ABAudio10loadSourceEv(%"class.ILLIXR_AUDIO::ABAudio"* nocapture readonly %this) local_unnamed_addr #0 align 2 personality i8* bitcast (i32 (...)* @__gxx_personality_v0 to i8*) !dbg !4750 {
entry:
  %inSound = alloca %"class.ILLIXR_AUDIO::Sound"*, align 8
  %position = alloca %struct.PolarPoint, align 4
  %agg.tmp = alloca %"class.std::__cxx11::basic_string", align 8
  %ref.tmp = alloca %"class.std::allocator.2", align 1
  %agg.tmp7 = alloca %"class.std::__cxx11::basic_string", align 8
  %ref.tmp8 = alloca %"class.std::allocator.2", align 1
  %agg.tmp27 = alloca %"class.std::__cxx11::basic_string", align 8
  %ref.tmp28 = alloca %"class.std::allocator.2", align 1
  call void @llvm.dbg.value(metadata %"class.ILLIXR_AUDIO::ABAudio"* %this, metadata !4752, metadata !DIExpression()), !dbg !4759
  %0 = bitcast %"class.ILLIXR_AUDIO::Sound"** %inSound to i8*, !dbg !4760
  call void @llvm.lifetime.start.p0i8(i64 8, i8* nonnull %0) #23, !dbg !4760
  %1 = bitcast %struct.PolarPoint* %position to i8*, !dbg !4761
  call void @llvm.lifetime.start.p0i8(i64 12, i8* nonnull %1) #23, !dbg !4761
  %processType = getelementptr inbounds %"class.ILLIXR_AUDIO::ABAudio", %"class.ILLIXR_AUDIO::ABAudio"* %this, i64 0, i32 0, !dbg !4762
  %2 = load i32, i32* %processType, align 8, !dbg !4762, !tbaa !4612
  %cmp = icmp eq i32 %2, 0, !dbg !4763
  br i1 %cmp, label %if.then, label %for.cond.preheader, !dbg !4764

for.cond.preheader:                               ; preds = %entry
  call void @llvm.dbg.value(metadata i32 0, metadata !4755, metadata !DIExpression()), !dbg !4765
  %3 = getelementptr inbounds %"class.std::allocator.2", %"class.std::allocator.2"* %ref.tmp28, i64 0, i32 0, !dbg !4766
  %4 = bitcast %"class.ILLIXR_AUDIO::Sound"** %inSound to i8**, !dbg !4766
  %fAzimuth42 = getelementptr inbounds %struct.PolarPoint, %struct.PolarPoint* %position, i64 0, i32 0, !dbg !4766
  %fElevation46 = getelementptr inbounds %struct.PolarPoint, %struct.PolarPoint* %position, i64 0, i32 1, !dbg !4766
  %fDistance49 = getelementptr inbounds %struct.PolarPoint, %struct.PolarPoint* %position, i64 0, i32 2, !dbg !4766
  %soundSrcs50 = getelementptr inbounds %"class.ILLIXR_AUDIO::ABAudio", %"class.ILLIXR_AUDIO::ABAudio"* %this, i64 0, i32 1, !dbg !4766
  br label %for.body, !dbg !4769

if.then:                                          ; preds = %entry
  %call = tail call i8* @_Znwm(i64 4160) #25, !dbg !4770
  %5 = getelementptr inbounds %"class.std::allocator.2", %"class.std::allocator.2"* %ref.tmp, i64 0, i32 0, !dbg !4772
  call void @llvm.lifetime.start.p0i8(i64 1, i8* nonnull %5) #23, !dbg !4772
  call void @_ZNSaIcEC2Ev(%"class.std::allocator.2"* nonnull %ref.tmp) #23, !dbg !4772
  invoke void @_ZNSt7__cxx1112basic_stringIcSt11char_traitsIcESaIcEEC2EPKcRKS3_(%"class.std::__cxx11::basic_string"* nonnull %agg.tmp, i8* getelementptr inbounds ([26 x i8], [26 x i8]* @.str, i64 0, i64 0), %"class.std::allocator.2"* nonnull dereferenceable(1) %ref.tmp)
          to label %invoke.cont unwind label %lpad, !dbg !4772

invoke.cont:                                      ; preds = %if.then
  %6 = bitcast i8* %call to %"class.ILLIXR_AUDIO::Sound"*, !dbg !4770
  invoke void @_ZN12ILLIXR_AUDIO5SoundC2ENSt7__cxx1112basic_stringIcSt11char_traitsIcESaIcEEEjb(%"class.ILLIXR_AUDIO::Sound"* nonnull %6, %"class.std::__cxx11::basic_string"* nonnull %agg.tmp, i32 3, i1 zeroext undef)
          to label %invoke.cont3 unwind label %lpad2, !dbg !4773

invoke.cont3:                                     ; preds = %invoke.cont
  call void @llvm.dbg.value(metadata %"class.ILLIXR_AUDIO::Sound"* %6, metadata !4753, metadata !DIExpression()), !dbg !4759
  %7 = bitcast %"class.ILLIXR_AUDIO::Sound"** %inSound to i8**, !dbg !4774
  store i8* %call, i8** %7, align 8, !dbg !4774, !tbaa !3163
  call void @_ZNSt7__cxx1112basic_stringIcSt11char_traitsIcESaIcEED2Ev(%"class.std::__cxx11::basic_string"* nonnull %agg.tmp) #23, !dbg !4775
  call void @_ZNSaIcED2Ev(%"class.std::allocator.2"* nonnull %ref.tmp) #23, !dbg !4775
  call void @llvm.lifetime.end.p0i8(i64 1, i8* nonnull %5) #23, !dbg !4775
  %fAzimuth = getelementptr inbounds %struct.PolarPoint, %struct.PolarPoint* %position, i64 0, i32 0, !dbg !4776
  store float 0xBFB99999A0000000, float* %fAzimuth, align 4, !dbg !4777, !tbaa !4432
  %fElevation = getelementptr inbounds %struct.PolarPoint, %struct.PolarPoint* %position, i64 0, i32 1, !dbg !4778
  store float 0x3FF91EB860000000, float* %fElevation, align 4, !dbg !4779, !tbaa !4436
  %fDistance = getelementptr inbounds %struct.PolarPoint, %struct.PolarPoint* %position, i64 0, i32 2, !dbg !4780
  store float 1.000000e+00, float* %fDistance, align 4, !dbg !4781, !tbaa !4440
  %8 = load %"class.ILLIXR_AUDIO::Sound"*, %"class.ILLIXR_AUDIO::Sound"** %inSound, align 8, !dbg !4782, !tbaa !3163
  call void @llvm.dbg.value(metadata %"class.ILLIXR_AUDIO::Sound"* %8, metadata !4753, metadata !DIExpression()), !dbg !4759
  call void @llvm.dbg.value(metadata %struct.PolarPoint* %position, metadata !4754, metadata !DIExpression(DW_OP_deref)), !dbg !4759
  call void @_ZN12ILLIXR_AUDIO5Sound9setSrcPosER10PolarPoint(%"class.ILLIXR_AUDIO::Sound"* %8, %struct.PolarPoint* nonnull dereferenceable(12) %position), !dbg !4783
  %soundSrcs = getelementptr inbounds %"class.ILLIXR_AUDIO::ABAudio", %"class.ILLIXR_AUDIO::ABAudio"* %this, i64 0, i32 1, !dbg !4784
  %9 = load %"class.std::vector.6"*, %"class.std::vector.6"** %soundSrcs, align 8, !dbg !4784, !tbaa !4632
  call void @llvm.dbg.value(metadata %"class.ILLIXR_AUDIO::Sound"** %inSound, metadata !4753, metadata !DIExpression(DW_OP_deref)), !dbg !4759
  call void @_ZNSt6vectorIPN12ILLIXR_AUDIO5SoundESaIS2_EE9push_backERKS2_(%"class.std::vector.6"* %9, %"class.ILLIXR_AUDIO::Sound"** nonnull dereferenceable(8) %inSound), !dbg !4785
  %call6 = call i8* @_Znwm(i64 4160) #25, !dbg !4786
  %10 = getelementptr inbounds %"class.std::allocator.2", %"class.std::allocator.2"* %ref.tmp8, i64 0, i32 0, !dbg !4787
  call void @llvm.lifetime.start.p0i8(i64 1, i8* nonnull %10) #23, !dbg !4787
  call void @_ZNSaIcEC2Ev(%"class.std::allocator.2"* nonnull %ref.tmp8) #23, !dbg !4787
  invoke void @_ZNSt7__cxx1112basic_stringIcSt11char_traitsIcESaIcEEC2EPKcRKS3_(%"class.std::__cxx11::basic_string"* nonnull %agg.tmp7, i8* getelementptr inbounds ([29 x i8], [29 x i8]* @.str.1, i64 0, i64 0), %"class.std::allocator.2"* nonnull dereferenceable(1) %ref.tmp8)
          to label %invoke.cont10 unwind label %lpad9, !dbg !4787

invoke.cont10:                                    ; preds = %invoke.cont3
  %11 = bitcast i8* %call6 to %"class.ILLIXR_AUDIO::Sound"*, !dbg !4786
  invoke void @_ZN12ILLIXR_AUDIO5SoundC2ENSt7__cxx1112basic_stringIcSt11char_traitsIcESaIcEEEjb(%"class.ILLIXR_AUDIO::Sound"* nonnull %11, %"class.std::__cxx11::basic_string"* nonnull %agg.tmp7, i32 3, i1 zeroext undef)
          to label %invoke.cont12 unwind label %lpad11, !dbg !4788

invoke.cont12:                                    ; preds = %invoke.cont10
  call void @llvm.dbg.value(metadata %"class.ILLIXR_AUDIO::Sound"* %11, metadata !4753, metadata !DIExpression()), !dbg !4759
  store i8* %call6, i8** %7, align 8, !dbg !4789, !tbaa !3163
  call void @_ZNSt7__cxx1112basic_stringIcSt11char_traitsIcESaIcEED2Ev(%"class.std::__cxx11::basic_string"* nonnull %agg.tmp7) #23, !dbg !4790
  call void @_ZNSaIcED2Ev(%"class.std::allocator.2"* nonnull %ref.tmp8) #23, !dbg !4790
  call void @llvm.lifetime.end.p0i8(i64 1, i8* nonnull %10) #23, !dbg !4790
  store float 1.000000e+00, float* %fAzimuth, align 4, !dbg !4791, !tbaa !4432
  store float 0.000000e+00, float* %fElevation, align 4, !dbg !4792, !tbaa !4436
  store float 5.000000e+00, float* %fDistance, align 4, !dbg !4793, !tbaa !4440
  %12 = load %"class.ILLIXR_AUDIO::Sound"*, %"class.ILLIXR_AUDIO::Sound"** %inSound, align 8, !dbg !4794, !tbaa !3163
  call void @llvm.dbg.value(metadata %"class.ILLIXR_AUDIO::Sound"* %12, metadata !4753, metadata !DIExpression()), !dbg !4759
  call void @llvm.dbg.value(metadata %struct.PolarPoint* %position, metadata !4754, metadata !DIExpression(DW_OP_deref)), !dbg !4759
  call void @_ZN12ILLIXR_AUDIO5Sound9setSrcPosER10PolarPoint(%"class.ILLIXR_AUDIO::Sound"* %12, %struct.PolarPoint* nonnull dereferenceable(12) %position), !dbg !4795
  %13 = load %"class.std::vector.6"*, %"class.std::vector.6"** %soundSrcs, align 8, !dbg !4796, !tbaa !4632
  call void @llvm.dbg.value(metadata %"class.ILLIXR_AUDIO::Sound"** %inSound, metadata !4753, metadata !DIExpression(DW_OP_deref)), !dbg !4759
  call void @_ZNSt6vectorIPN12ILLIXR_AUDIO5SoundESaIS2_EE9push_backERKS2_(%"class.std::vector.6"* %13, %"class.ILLIXR_AUDIO::Sound"** nonnull dereferenceable(8) %inSound), !dbg !4797
  br label %if.end, !dbg !4798

