; ModuleID = 'build/seq/main.ll'
source_filename = "src//main.cpp"
target datalayout = "e-m:e-i64:64-f80:128-n8:16:32:64-S128"
target triple = "x86_64-unknown-linux-gnu"

%"class.std::ios_base::Init" = type { i8 }
%"class.std::basic_ostream" = type { i32 (...)**, %"class.std::basic_ios" }
%"class.std::basic_ios" = type { %"class.std::ios_base", %"class.std::basic_ostream"*, i8, i8, %"class.std::basic_streambuf"*, %"class.std::ctype"*, %"class.std::num_put"*, %"class.std::num_get"* }
%"class.std::ios_base" = type { i32 (...)**, i64, i64, i32, i32, i32, %"struct.std::ios_base::_Callback_list"*, %"struct.std::ios_base::_Words", [8 x %"struct.std::ios_base::_Words"], i32, %"struct.std::ios_base::_Words"*, %"class.std::locale" }
%"struct.std::ios_base::_Callback_list" = type { %"struct.std::ios_base::_Callback_list"*, void (i32, %"class.std::ios_base"*, i32)*, i32, i32 }
%"struct.std::ios_base::_Words" = type { i8*, i64 }
%"class.std::locale" = type { %"class.std::locale::_Impl"* }
%"class.std::locale::_Impl" = type { i32, %"class.std::locale::facet"**, i64, %"class.std::locale::facet"**, i8** }
%"class.std::locale::facet" = type <{ i32 (...)**, i32, [4 x i8] }>
%"class.std::basic_streambuf" = type { i32 (...)**, i8*, i8*, i8*, i8*, i8*, i8*, %"class.std::locale" }
%"class.std::ctype" = type <{ %"class.std::locale::facet.base", [4 x i8], %struct.__locale_struct*, i8, [7 x i8], i32*, i32*, i16*, i8, [256 x i8], [256 x i8], i8, [6 x i8] }>
%"class.std::locale::facet.base" = type <{ i32 (...)**, i32 }>
%struct.__locale_struct = type { [13 x %struct.__locale_data*], i16*, i32*, i32*, [13 x i8*] }
%struct.__locale_data = type opaque
%"class.std::num_put" = type { %"class.std::locale::facet.base", [4 x i8] }
%"class.std::num_get" = type { %"class.std::locale::facet.base", [4 x i8] }
%class.CBFormat = type { %class.CAmbisonicBase.base, i32, i32, %"class.std::vector", %"class.std::unique_ptr" }
%class.CAmbisonicBase.base = type <{ i32 (...)**, i32, i8, [3 x i8], i32, i8 }>
%"class.std::vector" = type { %"struct.std::_Vector_base" }
%"struct.std::_Vector_base" = type { %"struct.std::_Vector_base<float, std::allocator<float> >::_Vector_impl" }
%"struct.std::_Vector_base<float, std::allocator<float> >::_Vector_impl" = type { float*, float*, float* }
%"class.std::unique_ptr" = type { %"class.std::tuple" }
%"class.std::tuple" = type { %"struct.std::_Tuple_impl" }
%"struct.std::_Tuple_impl" = type { %"struct.std::_Head_base.1" }
%"struct.std::_Head_base.1" = type { float** }
%class.CAmbisonicSource = type { %class.CAmbisonicBase.base, %"class.std::vector", %"class.std::vector", %struct.PolarPoint, float }
%struct.PolarPoint = type { float, float, float }
%class.CAmbisonicEncoder = type { %class.CAmbisonicSource }
%class.CAmbisonicEncoderDist = type { %class.CAmbisonicEncoder, i32, float, i32, i32, float*, i32, i32, i32, float, float, float }
%"class.ILLIXR_AUDIO::Sound" = type { %"class.std::basic_fstream"*, [1024 x float], %class.CBFormat*, %class.CAmbisonicEncoderDist*, %struct.PolarPoint, float }
%"class.std::basic_fstream" = type { %"class.std::basic_iostream.base", %"class.std::basic_filebuf", %"class.std::basic_ios" }
%"class.std::basic_iostream.base" = type { %"class.std::basic_istream.base", %"class.std::basic_ostream.base" }
%"class.std::basic_istream.base" = type { i32 (...)**, i64 }
%"class.std::basic_ostream.base" = type { i32 (...)** }
%"class.std::basic_filebuf" = type { %"class.std::basic_streambuf", %union.pthread_mutex_t, %"class.std::__basic_file", i32, %struct.__mbstate_t, %struct.__mbstate_t, %struct.__mbstate_t, i8*, i64, i8, i8, i8, i8, i8*, i8*, i8, %"class.std::codecvt"*, i8*, i64, i8*, i8* }
%union.pthread_mutex_t = type { %"struct.(anonymous union)::__pthread_mutex_s" }
%"struct.(anonymous union)::__pthread_mutex_s" = type { i32, i32, i32, i32, i32, i16, i16, %struct.__pthread_internal_list }
%struct.__pthread_internal_list = type { %struct.__pthread_internal_list*, %struct.__pthread_internal_list* }
%"class.std::__basic_file" = type <{ %struct._IO_FILE*, i8, [7 x i8] }>
%struct._IO_FILE = type { i32, i8*, i8*, i8*, i8*, i8*, i8*, i8*, i8*, i8*, i8*, i8*, %struct._IO_marker*, %struct._IO_FILE*, i32, i32, i64, i16, i8, [1 x i8], i8*, i64, i8*, i8*, i8*, i8*, i64, i32, [20 x i8] }
%struct._IO_marker = type { %struct._IO_marker*, %struct._IO_FILE*, i32 }
%struct.__mbstate_t = type { i32, %union.anon }
%union.anon = type { i32 }
%"class.std::codecvt" = type { %"class.std::__codecvt_abstract_base.base", %struct.__locale_struct* }
%"class.std::__codecvt_abstract_base.base" = type { %"class.std::locale::facet.base" }
%"class.std::__cxx11::basic_string" = type { %"struct.std::__cxx11::basic_string<char, std::char_traits<char>, std::allocator<char> >::_Alloc_hider", i64, %union.anon.5 }
%"struct.std::__cxx11::basic_string<char, std::char_traits<char>, std::allocator<char> >::_Alloc_hider" = type { i8* }
%union.anon.5 = type { i64, [8 x i8] }
%"class.ILLIXR_AUDIO::ABAudio" = type { i32, %"class.std::vector.6"*, %"class.std::basic_ofstream"* }
%"class.std::vector.6" = type { %"struct.std::_Vector_base.7" }
%"struct.std::_Vector_base.7" = type { %"struct.std::_Vector_base<ILLIXR_AUDIO::Sound *, std::allocator<ILLIXR_AUDIO::Sound *> >::_Vector_impl" }
%"struct.std::_Vector_base<ILLIXR_AUDIO::Sound *, std::allocator<ILLIXR_AUDIO::Sound *> >::_Vector_impl" = type { %"class.ILLIXR_AUDIO::Sound"**, %"class.ILLIXR_AUDIO::Sound"**, %"class.ILLIXR_AUDIO::Sound"** }
%"class.std::basic_ofstream" = type { %"class.std::basic_ostream.base", %"class.std::basic_filebuf", %"class.std::basic_ios" }
%class.CAmbisonicBase = type <{ i32 (...)**, i32, i8, [3 x i8], i32, i8, [3 x i8] }>
%"class.__gnu_cxx::__normal_iterator.11" = type { float* }
%"class.std::basic_istream" = type { i32 (...)**, i64, %"class.std::basic_ios" }
%"struct.ILLIXR_AUDIO::WAVHeader_t" = type { i32, i32, i32, i32, i32, i16, i16, i32, i32, i16, i16, i32, i32 }
%"class.std::allocator.2" = type { i8 }
%"class.__gnu_cxx::__normal_iterator" = type { float* }
%struct.out.normalization_fxp = type <{ i64 }>
%struct.out.wrapperNormalization_fxp = type <{ i64 }>
%struct.out.encoder_fxp = type <{ i64 }>
%struct.out.wrapperEncoder_fxp = type <{ i64 }>
%struct.out.sumBF_fxp = type <{ i64 }>
%struct.out.wrapperSumBF_fxp = type <{ i64 }>
%struct.out.encoderPipeline = type <{ i64 }>

$__clang_call_terminate = comdat any

$_ZN14CAmbisonicBaseD2Ev = comdat any

$_ZN14CAmbisonicBaseD0Ev = comdat any

$_ZN8CBFormatD2Ev = comdat any

$_ZN8CBFormatD0Ev = comdat any

$_ZN16CAmbisonicSourceD2Ev = comdat any

$_ZN16CAmbisonicSourceD0Ev = comdat any

$_ZNSt6vectorIfSaIfEE17_M_default_appendEm = comdat any

$_ZNSt6vectorIfSaIfEE14_M_fill_insertEN9__gnu_cxx17__normal_iteratorIPfS1_EEmRKf = comdat any

@_ZStL8__ioinit = internal global %"class.std::ios_base::Init" zeroinitializer, align 1, !dbg !0
@__dso_handle = external hidden global i8
@_ZTV14CAmbisonicBase = unnamed_addr constant { [7 x i8*] } { [7 x i8*] [i8* null, i8* bitcast ({ i8*, i8* }* @_ZTI14CAmbisonicBase to i8*), i8* bitcast (void (%class.CAmbisonicBase*)* @_ZN14CAmbisonicBaseD2Ev to i8*), i8* bitcast (void (%class.CAmbisonicBase*)* @_ZN14CAmbisonicBaseD0Ev to i8*), i8* bitcast (i1 (%class.CAmbisonicBase*, i32, i1, i32)* @_ZN14CAmbisonicBase9ConfigureEjbj to i8*), i8* bitcast (void ()* @__cxa_pure_virtual to i8*), i8* bitcast (void ()* @__cxa_pure_virtual to i8*)] }, align 8
@_ZTV8CBFormat = unnamed_addr constant { [7 x i8*] } { [7 x i8*] [i8* null, i8* bitcast ({ i8*, i8*, i8* }* @_ZTI8CBFormat to i8*), i8* bitcast (void (%class.CBFormat*)* @_ZN8CBFormatD2Ev to i8*), i8* bitcast (void (%class.CBFormat*)* @_ZN8CBFormatD0Ev to i8*), i8* bitcast (i1 (%class.CBFormat*, i32, i1, i32)* @_ZN8CBFormat9ConfigureEjbj to i8*), i8* bitcast (void (%class.CBFormat*)* @_ZN8CBFormat5ResetEv to i8*), i8* bitcast (void (%class.CBFormat*)* @_ZN8CBFormat7RefreshEv to i8*)] }, align 8
@_ZTV16CAmbisonicSource = unnamed_addr constant { [16 x i8*] } { [16 x i8*] [i8* null, i8* bitcast ({ i8*, i8*, i8* }* @_ZTI16CAmbisonicSource to i8*), i8* bitcast (void (%class.CAmbisonicSource*)* @_ZN16CAmbisonicSourceD2Ev to i8*), i8* bitcast (void (%class.CAmbisonicSource*)* @_ZN16CAmbisonicSourceD0Ev to i8*), i8* bitcast (i1 (%class.CAmbisonicSource*, i32, i1, i32)* @_ZN16CAmbisonicSource9ConfigureEjbj to i8*), i8* bitcast (void (%class.CAmbisonicSource*)* @_ZN16CAmbisonicSource5ResetEv to i8*), i8* bitcast (void (%class.CAmbisonicSource*)* @_ZN16CAmbisonicSource7RefreshEv to i8*), i8* bitcast (void (%class.CAmbisonicSource*, <2 x float>, float)* @_ZN16CAmbisonicSource11SetPositionE10PolarPoint to i8*), i8* bitcast ({ <2 x float>, float } (%class.CAmbisonicSource*)* @_ZN16CAmbisonicSource11GetPositionEv to i8*), i8* bitcast (void (%class.CAmbisonicSource*, i32, float)* @_ZN16CAmbisonicSource14SetOrderWeightEjf to i8*), i8* bitcast (void (%class.CAmbisonicSource*, float)* @_ZN16CAmbisonicSource17SetOrderWeightAllEf to i8*), i8* bitcast (void (%class.CAmbisonicSource*, i32, float)* @_ZN16CAmbisonicSource14SetCoefficientEjf to i8*), i8* bitcast (float (%class.CAmbisonicSource*, i32)* @_ZN16CAmbisonicSource14GetOrderWeightEj to i8*), i8* bitcast (float (%class.CAmbisonicSource*, i32)* @_ZN16CAmbisonicSource14GetCoefficientEj to i8*), i8* bitcast (void (%class.CAmbisonicSource*, float)* @_ZN16CAmbisonicSource7SetGainEf to i8*), i8* bitcast (float (%class.CAmbisonicSource*)* @_ZN16CAmbisonicSource7GetGainEv to i8*)] }, align 8
@_ZTV17CAmbisonicEncoder = unnamed_addr constant { [16 x i8*] } { [16 x i8*] [i8* null, i8* bitcast ({ i8*, i8*, i8* }* @_ZTI17CAmbisonicEncoder to i8*), i8* bitcast (void (%class.CAmbisonicEncoder*)* @_ZN17CAmbisonicEncoderD2Ev to i8*), i8* bitcast (void (%class.CAmbisonicEncoder*)* @_ZN17CAmbisonicEncoderD0Ev to i8*), i8* bitcast (i1 (%class.CAmbisonicEncoder*, i32, i1, i32)* @_ZN17CAmbisonicEncoder9ConfigureEjbj to i8*), i8* bitcast (void (%class.CAmbisonicSource*)* @_ZN16CAmbisonicSource5ResetEv to i8*), i8* bitcast (void (%class.CAmbisonicEncoder*)* @_ZN17CAmbisonicEncoder7RefreshEv to i8*), i8* bitcast (void (%class.CAmbisonicSource*, <2 x float>, float)* @_ZN16CAmbisonicSource11SetPositionE10PolarPoint to i8*), i8* bitcast ({ <2 x float>, float } (%class.CAmbisonicSource*)* @_ZN16CAmbisonicSource11GetPositionEv to i8*), i8* bitcast (void (%class.CAmbisonicSource*, i32, float)* @_ZN16CAmbisonicSource14SetOrderWeightEjf to i8*), i8* bitcast (void (%class.CAmbisonicSource*, float)* @_ZN16CAmbisonicSource17SetOrderWeightAllEf to i8*), i8* bitcast (void (%class.CAmbisonicSource*, i32, float)* @_ZN16CAmbisonicSource14SetCoefficientEjf to i8*), i8* bitcast (float (%class.CAmbisonicSource*, i32)* @_ZN16CAmbisonicSource14GetOrderWeightEj to i8*), i8* bitcast (float (%class.CAmbisonicSource*, i32)* @_ZN16CAmbisonicSource14GetCoefficientEj to i8*), i8* bitcast (void (%class.CAmbisonicSource*, float)* @_ZN16CAmbisonicSource7SetGainEf to i8*), i8* bitcast (float (%class.CAmbisonicSource*)* @_ZN16CAmbisonicSource7GetGainEv to i8*)] }, align 8
@_ZTV21CAmbisonicEncoderDist = unnamed_addr constant { [16 x i8*] } { [16 x i8*] [i8* null, i8* bitcast ({ i8*, i8*, i8* }* @_ZTI21CAmbisonicEncoderDist to i8*), i8* bitcast (void (%class.CAmbisonicEncoderDist*)* @_ZN21CAmbisonicEncoderDistD2Ev to i8*), i8* bitcast (void (%class.CAmbisonicEncoderDist*)* @_ZN21CAmbisonicEncoderDistD0Ev to i8*), i8* bitcast (i1 (%class.CAmbisonicEncoderDist*, i32, i1, i32)* @_ZN21CAmbisonicEncoderDist9ConfigureEjbj to i8*), i8* bitcast (void (%class.CAmbisonicEncoderDist*)* @_ZN21CAmbisonicEncoderDist5ResetEv to i8*), i8* bitcast (void (%class.CAmbisonicEncoderDist*)* @_ZN21CAmbisonicEncoderDist7RefreshEv to i8*), i8* bitcast (void (%class.CAmbisonicSource*, <2 x float>, float)* @_ZN16CAmbisonicSource11SetPositionE10PolarPoint to i8*), i8* bitcast ({ <2 x float>, float } (%class.CAmbisonicSource*)* @_ZN16CAmbisonicSource11GetPositionEv to i8*), i8* bitcast (void (%class.CAmbisonicSource*, i32, float)* @_ZN16CAmbisonicSource14SetOrderWeightEjf to i8*), i8* bitcast (void (%class.CAmbisonicSource*, float)* @_ZN16CAmbisonicSource17SetOrderWeightAllEf to i8*), i8* bitcast (void (%class.CAmbisonicSource*, i32, float)* @_ZN16CAmbisonicSource14SetCoefficientEjf to i8*), i8* bitcast (float (%class.CAmbisonicSource*, i32)* @_ZN16CAmbisonicSource14GetOrderWeightEj to i8*), i8* bitcast (float (%class.CAmbisonicSource*, i32)* @_ZN16CAmbisonicSource14GetCoefficientEj to i8*), i8* bitcast (void (%class.CAmbisonicSource*, float)* @_ZN16CAmbisonicSource7SetGainEf to i8*), i8* bitcast (float (%class.CAmbisonicSource*)* @_ZN16CAmbisonicSource7GetGainEv to i8*)] }, align 8
@.str = private unnamed_addr constant [26 x i8] c"samples/lectureSample.wav\00", align 1
@.str.1 = private unnamed_addr constant [29 x i8] c"samples/radioMusicSample.wav\00", align 1
@_ZSt4cout = external global %"class.std::basic_ostream", align 8
@.str.2 = private unnamed_addr constant [8 x i8] c"Usage: \00", align 1
@.str.3 = private unnamed_addr constant [42 x i8] c" <number of size 1024 blocks to process> \00", align 1
@.str.4 = private unnamed_addr constant [27 x i8] c"<optional: encode/decode>\0A\00", align 1
@.str.5 = private unnamed_addr constant [122 x i8] c"Note: If you want to hear the output sound, limit the process sample blocks so that the output is not longer than input!\0A\00", align 1
@.str.6 = private unnamed_addr constant [11 x i8] c"output.wav\00", align 1
@_ZTVN10__cxxabiv117__class_type_infoE = external global i8*
@_ZTS14CAmbisonicBase = constant [17 x i8] c"14CAmbisonicBase\00", align 1
@_ZTI14CAmbisonicBase = constant { i8*, i8* } { i8* bitcast (i8** getelementptr inbounds (i8*, i8** @_ZTVN10__cxxabiv117__class_type_infoE, i64 2) to i8*), i8* getelementptr inbounds ([17 x i8], [17 x i8]* @_ZTS14CAmbisonicBase, i32 0, i32 0) }, align 8
@_ZTVN10__cxxabiv120__si_class_type_infoE = external global i8*
@_ZTS8CBFormat = constant [10 x i8] c"8CBFormat\00", align 1
@_ZTI8CBFormat = constant { i8*, i8*, i8* } { i8* bitcast (i8** getelementptr inbounds (i8*, i8** @_ZTVN10__cxxabiv120__si_class_type_infoE, i64 2) to i8*), i8* getelementptr inbounds ([10 x i8], [10 x i8]* @_ZTS8CBFormat, i32 0, i32 0), i8* bitcast ({ i8*, i8* }* @_ZTI14CAmbisonicBase to i8*) }, align 8
@_ZTS16CAmbisonicSource = constant [19 x i8] c"16CAmbisonicSource\00", align 1
@_ZTI16CAmbisonicSource = constant { i8*, i8*, i8* } { i8* bitcast (i8** getelementptr inbounds (i8*, i8** @_ZTVN10__cxxabiv120__si_class_type_infoE, i64 2) to i8*), i8* getelementptr inbounds ([19 x i8], [19 x i8]* @_ZTS16CAmbisonicSource, i32 0, i32 0), i8* bitcast ({ i8*, i8* }* @_ZTI14CAmbisonicBase to i8*) }, align 8
@_ZTS17CAmbisonicEncoder = constant [20 x i8] c"17CAmbisonicEncoder\00", align 1
@_ZTI17CAmbisonicEncoder = constant { i8*, i8*, i8* } { i8* bitcast (i8** getelementptr inbounds (i8*, i8** @_ZTVN10__cxxabiv120__si_class_type_infoE, i64 2) to i8*), i8* getelementptr inbounds ([20 x i8], [20 x i8]* @_ZTS17CAmbisonicEncoder, i32 0, i32 0), i8* bitcast ({ i8*, i8*, i8* }* @_ZTI16CAmbisonicSource to i8*) }, align 8
@_ZTS21CAmbisonicEncoderDist = constant [24 x i8] c"21CAmbisonicEncoderDist\00", align 1
@_ZTI21CAmbisonicEncoderDist = constant { i8*, i8*, i8* } { i8* bitcast (i8** getelementptr inbounds (i8*, i8** @_ZTVN10__cxxabiv120__si_class_type_infoE, i64 2) to i8*), i8* getelementptr inbounds ([24 x i8], [24 x i8]* @_ZTS21CAmbisonicEncoderDist, i32 0, i32 0), i8* bitcast ({ i8*, i8*, i8* }* @_ZTI17CAmbisonicEncoder to i8*) }, align 8
@.str.7 = private unnamed_addr constant [26 x i8] c"vector::_M_default_append\00", align 1
@.str.8 = private unnamed_addr constant [23 x i8] c"vector::_M_fill_insert\00", align 1
@llvm.global_ctors = appending global [1 x { i32, void ()*, i8* }] [{ i32, void ()*, i8* } { i32 65535, void ()* @_GLOBAL__sub_I_main.cpp, i8* null }]

@_ZN8CBFormatC1Ev = unnamed_addr alias void (%class.CBFormat*), void (%class.CBFormat*)* @_ZN8CBFormatC2Ev
@_ZN16CAmbisonicSourceC1Ev = unnamed_addr alias void (%class.CAmbisonicSource*), void (%class.CAmbisonicSource*)* @_ZN16CAmbisonicSourceC2Ev
@_ZN17CAmbisonicEncoderC1Ev = unnamed_addr alias void (%class.CAmbisonicEncoder*), void (%class.CAmbisonicEncoder*)* @_ZN17CAmbisonicEncoderC2Ev
@_ZN17CAmbisonicEncoderD1Ev = unnamed_addr alias void (%class.CAmbisonicEncoder*), void (%class.CAmbisonicEncoder*)* @_ZN17CAmbisonicEncoderD2Ev
@_ZN21CAmbisonicEncoderDistC1Ev = unnamed_addr alias void (%class.CAmbisonicEncoderDist*), void (%class.CAmbisonicEncoderDist*)* @_ZN21CAmbisonicEncoderDistC2Ev
@_ZN21CAmbisonicEncoderDistD1Ev = unnamed_addr alias void (%class.CAmbisonicEncoderDist*), void (%class.CAmbisonicEncoderDist*)* @_ZN21CAmbisonicEncoderDistD2Ev
@_ZN12ILLIXR_AUDIO5SoundC1ENSt7__cxx1112basic_stringIcSt11char_traitsIcESaIcEEEjb = unnamed_addr alias void (%"class.ILLIXR_AUDIO::Sound"*, %"class.std::__cxx11::basic_string"*, i32, i1), void (%"class.ILLIXR_AUDIO::Sound"*, %"class.std::__cxx11::basic_string"*, i32, i1)* @_ZN12ILLIXR_AUDIO5SoundC2ENSt7__cxx1112basic_stringIcSt11char_traitsIcESaIcEEEjb
@_ZN12ILLIXR_AUDIO5SoundD1Ev = unnamed_addr alias void (%"class.ILLIXR_AUDIO::Sound"*), void (%"class.ILLIXR_AUDIO::Sound"*)* @_ZN12ILLIXR_AUDIO5SoundD2Ev
@_ZN12ILLIXR_AUDIO7ABAudioC1ENSt7__cxx1112basic_stringIcSt11char_traitsIcESaIcEEENS0_11ProcessTypeE = unnamed_addr alias void (%"class.ILLIXR_AUDIO::ABAudio"*, %"class.std::__cxx11::basic_string"*, i32), void (%"class.ILLIXR_AUDIO::ABAudio"*, %"class.std::__cxx11::basic_string"*, i32)* @_ZN12ILLIXR_AUDIO7ABAudioC2ENSt7__cxx1112basic_stringIcSt11char_traitsIcESaIcEEENS0_11ProcessTypeE
@_ZN12ILLIXR_AUDIO7ABAudioD1Ev = unnamed_addr alias void (%"class.ILLIXR_AUDIO::ABAudio"*), void (%"class.ILLIXR_AUDIO::ABAudio"*)* @_ZN12ILLIXR_AUDIO7ABAudioD2Ev

declare void @_ZNSt8ios_base4InitC1Ev(%"class.std::ios_base::Init"*) unnamed_addr #0

; Function Attrs: nounwind
declare void @_ZNSt8ios_base4InitD1Ev(%"class.std::ios_base::Init"*) unnamed_addr #1

; Function Attrs: nofree nounwind
declare i32 @__cxa_atexit(void (i8*)*, i8*, i8*) local_unnamed_addr #2

; Function Attrs: nofree norecurse nounwind uwtable writeonly
define void @_ZN14CAmbisonicBaseC2Ev(%class.CAmbisonicBase* nocapture %this) unnamed_addr #3 align 2 !dbg !3042 {
entry:
  call void @llvm.dbg.value(metadata %class.CAmbisonicBase* %this, metadata !3044, metadata !DIExpression()), !dbg !3046
  %0 = getelementptr inbounds %class.CAmbisonicBase, %class.CAmbisonicBase* %this, i64 0, i32 0, !dbg !3047
  store i32 (...)** bitcast (i8** getelementptr inbounds ({ [7 x i8*] }, { [7 x i8*] }* @_ZTV14CAmbisonicBase, i64 0, inrange i32 0, i64 2) to i32 (...)**), i32 (...)*** %0, align 8, !dbg !3047, !tbaa !3048
  %m_nOrder = getelementptr inbounds %class.CAmbisonicBase, %class.CAmbisonicBase* %this, i64 0, i32 1, !dbg !3051
  store i32 0, i32* %m_nOrder, align 8, !dbg !3051, !tbaa !3052
  %m_b3D = getelementptr inbounds %class.CAmbisonicBase, %class.CAmbisonicBase* %this, i64 0, i32 2, !dbg !3057
  store i8 0, i8* %m_b3D, align 4, !dbg !3057, !tbaa !3058
  %m_nChannelCount = getelementptr inbounds %class.CAmbisonicBase, %class.CAmbisonicBase* %this, i64 0, i32 4, !dbg !3059
  store i32 0, i32* %m_nChannelCount, align 8, !dbg !3059, !tbaa !3060
  %m_bOpt = getelementptr inbounds %class.CAmbisonicBase, %class.CAmbisonicBase* %this, i64 0, i32 5, !dbg !3061
  store i8 0, i8* %m_bOpt, align 4, !dbg !3061, !tbaa !3062
  ret void, !dbg !3063
}

; Function Attrs: nounwind readnone speculatable
declare void @llvm.dbg.declare(metadata, metadata, metadata) #4

; Function Attrs: norecurse nounwind readonly uwtable
define i32 @_ZN14CAmbisonicBase8GetOrderEv(%class.CAmbisonicBase* nocapture readonly %this) local_unnamed_addr #5 align 2 !dbg !3064 {
entry:
  call void @llvm.dbg.value(metadata %class.CAmbisonicBase* %this, metadata !3066, metadata !DIExpression()), !dbg !3067
  %m_nOrder = getelementptr inbounds %class.CAmbisonicBase, %class.CAmbisonicBase* %this, i64 0, i32 1, !dbg !3068
  %0 = load i32, i32* %m_nOrder, align 8, !dbg !3068, !tbaa !3052
  ret i32 %0, !dbg !3069
}

; Function Attrs: norecurse nounwind readonly uwtable
define zeroext i1 @_ZN14CAmbisonicBase9GetHeightEv(%class.CAmbisonicBase* nocapture readonly %this) local_unnamed_addr #5 align 2 !dbg !3070 {
entry:
  call void @llvm.dbg.value(metadata %class.CAmbisonicBase* %this, metadata !3072, metadata !DIExpression()), !dbg !3073
  %m_b3D = getelementptr inbounds %class.CAmbisonicBase, %class.CAmbisonicBase* %this, i64 0, i32 2, !dbg !3074
  %0 = load i8, i8* %m_b3D, align 4, !dbg !3074, !tbaa !3058, !range !3075
  %tobool = icmp ne i8 %0, 0, !dbg !3074
  ret i1 %tobool, !dbg !3076
}

; Function Attrs: norecurse nounwind readonly uwtable
define i32 @_ZN14CAmbisonicBase15GetChannelCountEv(%class.CAmbisonicBase* nocapture readonly %this) local_unnamed_addr #5 align 2 !dbg !3077 {
entry:
  call void @llvm.dbg.value(metadata %class.CAmbisonicBase* %this, metadata !3079, metadata !DIExpression()), !dbg !3080
  %m_nChannelCount = getelementptr inbounds %class.CAmbisonicBase, %class.CAmbisonicBase* %this, i64 0, i32 4, !dbg !3081
  %0 = load i32, i32* %m_nChannelCount, align 8, !dbg !3081, !tbaa !3060
  ret i32 %0, !dbg !3082
}

; Function Attrs: uwtable
define zeroext i1 @_ZN14CAmbisonicBase9ConfigureEjbj(%class.CAmbisonicBase* nocapture %this, i32 %nOrder, i1 zeroext %b3D, i32 %nMisc) unnamed_addr #6 align 2 !dbg !3083 {
entry:
  call void @llvm.dbg.value(metadata %class.CAmbisonicBase* %this, metadata !3085, metadata !DIExpression()), !dbg !3089
  call void @llvm.dbg.value(metadata i32 %nOrder, metadata !3086, metadata !DIExpression()), !dbg !3089
  %frombool = zext i1 %b3D to i8
  call void @llvm.dbg.value(metadata i8 %frombool, metadata !3087, metadata !DIExpression()), !dbg !3089
  call void @llvm.dbg.value(metadata i32 undef, metadata !3088, metadata !DIExpression()), !dbg !3089
  %m_nOrder = getelementptr inbounds %class.CAmbisonicBase, %class.CAmbisonicBase* %this, i64 0, i32 1, !dbg !3090
  store i32 %nOrder, i32* %m_nOrder, align 8, !dbg !3091, !tbaa !3052
  %m_b3D = getelementptr inbounds %class.CAmbisonicBase, %class.CAmbisonicBase* %this, i64 0, i32 2, !dbg !3092
  store i8 %frombool, i8* %m_b3D, align 4, !dbg !3093, !tbaa !3058
  %call = tail call i32 @_Z17OrderToComponentsjb(i32 %nOrder, i1 zeroext %b3D), !dbg !3094
  %m_nChannelCount = getelementptr inbounds %class.CAmbisonicBase, %class.CAmbisonicBase* %this, i64 0, i32 4, !dbg !3095
  store i32 %call, i32* %m_nChannelCount, align 8, !dbg !3096, !tbaa !3060
  ret i1 true, !dbg !3097
}

declare i32 @_Z17OrderToComponentsjb(i32, i1 zeroext) local_unnamed_addr #0

; Function Attrs: nounwind uwtable
define void @_ZN8CBFormatC2Ev(%class.CBFormat* nocapture %this) unnamed_addr #7 align 2 personality i32 (...)* @__gxx_personality_v0 !dbg !3098 {
entry:
  call void @llvm.dbg.value(metadata %class.CBFormat* %this, metadata !3100, metadata !DIExpression()), !dbg !3101
  call void @llvm.dbg.value(metadata %class.CBFormat* %this, metadata !3044, metadata !DIExpression()), !dbg !3102
  %0 = getelementptr inbounds %class.CBFormat, %class.CBFormat* %this, i64 0, i32 0, i32 0, !dbg !3104
  %1 = getelementptr inbounds %class.CBFormat, %class.CBFormat* %this, i64 0, i32 0, i32 1, !dbg !3105
  store i32 0, i32* %1, align 8, !dbg !3105, !tbaa !3052
  %2 = getelementptr inbounds %class.CBFormat, %class.CBFormat* %this, i64 0, i32 0, i32 2, !dbg !3106
  store i8 0, i8* %2, align 4, !dbg !3106, !tbaa !3058
  %3 = getelementptr inbounds %class.CBFormat, %class.CBFormat* %this, i64 0, i32 0, i32 4, !dbg !3107
  store i32 0, i32* %3, align 8, !dbg !3107, !tbaa !3060
  %4 = getelementptr inbounds %class.CBFormat, %class.CBFormat* %this, i64 0, i32 0, i32 5, !dbg !3108
  store i8 0, i8* %4, align 4, !dbg !3108, !tbaa !3062
  store i32 (...)** bitcast (i8** getelementptr inbounds ({ [7 x i8*] }, { [7 x i8*] }* @_ZTV8CBFormat, i64 0, inrange i32 0, i64 2) to i32 (...)**), i32 (...)*** %0, align 8, !dbg !3109, !tbaa !3048
  %m_nSamples = getelementptr inbounds %class.CBFormat, %class.CBFormat* %this, i64 0, i32 1, !dbg !3110
  %5 = bitcast i32* %m_nSamples to i8*, !dbg !3112
  call void @llvm.memset.p0i8.i64(i8* nonnull align 8 %5, i8 0, i64 40, i1 false), !dbg !3113
  ret void, !dbg !3112
}

; Function Attrs: norecurse nounwind readonly uwtable
define i32 @_ZN8CBFormat14GetSampleCountEv(%class.CBFormat* nocapture readonly %this) local_unnamed_addr #5 align 2 !dbg !3114 {
entry:
  call void @llvm.dbg.value(metadata %class.CBFormat* %this, metadata !3116, metadata !DIExpression()), !dbg !3117
  %m_nSamples = getelementptr inbounds %class.CBFormat, %class.CBFormat* %this, i64 0, i32 1, !dbg !3118
  %0 = load i32, i32* %m_nSamples, align 8, !dbg !3118, !tbaa !3119
  ret i32 %0, !dbg !3124
}

; Function Attrs: uwtable
define zeroext i1 @_ZN8CBFormat9ConfigureEjbj(%class.CBFormat* %this, i32 %nOrder, i1 zeroext %b3D, i32 %nSampleCount) unnamed_addr #6 align 2 personality i32 (...)* @__gxx_personality_v0 !dbg !3125 {
entry:
  call void @llvm.dbg.value(metadata %class.CBFormat* %this, metadata !3127, metadata !DIExpression()), !dbg !3134
  call void @llvm.dbg.value(metadata i32 %nOrder, metadata !3128, metadata !DIExpression()), !dbg !3134
  call void @llvm.dbg.value(metadata i1 %b3D, metadata !3129, metadata !DIExpression()), !dbg !3134
  call void @llvm.dbg.value(metadata i32 %nSampleCount, metadata !3130, metadata !DIExpression()), !dbg !3134
  call void @llvm.dbg.value(metadata %class.CBFormat* %this, metadata !3085, metadata !DIExpression()), !dbg !3135
  call void @llvm.dbg.value(metadata i32 %nOrder, metadata !3086, metadata !DIExpression()), !dbg !3135
  %frombool.i = zext i1 %b3D to i8
  call void @llvm.dbg.value(metadata i8 %frombool.i, metadata !3087, metadata !DIExpression()), !dbg !3135
  call void @llvm.dbg.value(metadata i32 undef, metadata !3088, metadata !DIExpression()), !dbg !3135
  %0 = getelementptr inbounds %class.CBFormat, %class.CBFormat* %this, i64 0, i32 0, i32 1, !dbg !3137
  store i32 %nOrder, i32* %0, align 8, !dbg !3138, !tbaa !3052
  %1 = getelementptr inbounds %class.CBFormat, %class.CBFormat* %this, i64 0, i32 0, i32 2, !dbg !3139
  store i8 %frombool.i, i8* %1, align 4, !dbg !3140, !tbaa !3058
  %call.i = tail call i32 @_Z17OrderToComponentsjb(i32 %nOrder, i1 zeroext %b3D), !dbg !3141
  %2 = getelementptr inbounds %class.CBFormat, %class.CBFormat* %this, i64 0, i32 0, i32 4, !dbg !3142
  store i32 %call.i, i32* %2, align 8, !dbg !3143, !tbaa !3060
  call void @llvm.dbg.value(metadata i8 1, metadata !3131, metadata !DIExpression()), !dbg !3134
  %m_nSamples = getelementptr inbounds %class.CBFormat, %class.CBFormat* %this, i64 0, i32 1, !dbg !3144
  store i32 %nSampleCount, i32* %m_nSamples, align 8, !dbg !3145, !tbaa !3119
  %mul = mul i32 %call.i, %nSampleCount, !dbg !3146
  %m_nDataLength = getelementptr inbounds %class.CBFormat, %class.CBFormat* %this, i64 0, i32 2, !dbg !3147
  store i32 %mul, i32* %m_nDataLength, align 4, !dbg !3148, !tbaa !3149
  %m_pfData = getelementptr inbounds %class.CBFormat, %class.CBFormat* %this, i64 0, i32 3, !dbg !3150
  %conv = zext i32 %mul to i64, !dbg !3151
  call void @llvm.dbg.value(metadata %"class.std::vector"* %m_pfData, metadata !3152, metadata !DIExpression()), !dbg !3157
  call void @llvm.dbg.value(metadata i64 %conv, metadata !3155, metadata !DIExpression()), !dbg !3157
  call void @llvm.dbg.value(metadata %"class.std::vector"* %m_pfData, metadata !3159, metadata !DIExpression()), !dbg !3163
  %_M_finish.i.i = getelementptr inbounds %class.CBFormat, %class.CBFormat* %this, i64 0, i32 3, i32 0, i32 0, i32 1, !dbg !3166
  %3 = bitcast float** %_M_finish.i.i to i64*, !dbg !3166
  %4 = load i64, i64* %3, align 8, !dbg !3166, !tbaa !3167
  %5 = bitcast %"class.std::vector"* %m_pfData to i64*, !dbg !3171
  %6 = load i64, i64* %5, align 8, !dbg !3171, !tbaa !3172
  %sub.ptr.sub.i.i = sub i64 %4, %6, !dbg !3173
  %sub.ptr.div.i.i = ashr exact i64 %sub.ptr.sub.i.i, 2, !dbg !3173
  %cmp.i = icmp ult i64 %sub.ptr.div.i.i, %conv, !dbg !3174
  call void @llvm.dbg.value(metadata %"class.std::vector"* %m_pfData, metadata !3159, metadata !DIExpression()), !dbg !3175
  %7 = inttoptr i64 %6 to float*, !dbg !3177
  %8 = inttoptr i64 %6 to i8*, !dbg !3177
  br i1 %cmp.i, label %if.then.i, label %if.else.i, !dbg !3177

if.then.i:                                        ; preds = %entry
  %sub.i = sub nsw i64 %conv, %sub.ptr.div.i.i, !dbg !3178
  tail call void @_ZNSt6vectorIfSaIfEE17_M_default_appendEm(%"class.std::vector"* nonnull %m_pfData, i64 %sub.i), !dbg !3179
  %.phi.trans.insert = bitcast %"class.std::vector"* %m_pfData to i8**, !dbg !3180
  %.pre = load i8*, i8** %.phi.trans.insert, align 8, !dbg !3185, !tbaa !3172
  %.pre33 = load i32, i32* %m_nDataLength, align 4, !dbg !3186, !tbaa !3149
  %.pre35 = zext i32 %.pre33 to i64, !dbg !3186
  br label %_ZNSt6vectorIfSaIfEE6resizeEm.exit, !dbg !3179

if.else.i:                                        ; preds = %entry
  %cmp4.i = icmp ugt i64 %sub.ptr.div.i.i, %conv, !dbg !3187
  br i1 %cmp4.i, label %if.then5.i, label %_ZNSt6vectorIfSaIfEE6resizeEm.exit, !dbg !3189

if.then5.i:                                       ; preds = %if.else.i
  %add.ptr.i = getelementptr inbounds float, float* %7, i64 %conv, !dbg !3190
  call void @llvm.dbg.value(metadata %"class.std::vector"* %m_pfData, metadata !3191, metadata !DIExpression()), !dbg !3195
  call void @llvm.dbg.value(metadata float* %add.ptr.i, metadata !3194, metadata !DIExpression()), !dbg !3195
  store float* %add.ptr.i, float** %_M_finish.i.i, align 8, !dbg !3197, !tbaa !3167
  br label %_ZNSt6vectorIfSaIfEE6resizeEm.exit, !dbg !3198

_ZNSt6vectorIfSaIfEE6resizeEm.exit:               ; preds = %if.then5.i, %if.else.i, %if.then.i
  %conv9.pre-phi = phi i64 [ %.pre35, %if.then.i ], [ %conv, %if.else.i ], [ %conv, %if.then5.i ], !dbg !3186
  %9 = phi i8* [ %.pre, %if.then.i ], [ %8, %if.else.i ], [ %8, %if.then5.i ], !dbg !3185
  call void @llvm.dbg.value(metadata %"class.std::vector"* %m_pfData, metadata !3183, metadata !DIExpression()), !dbg !3180
  %_M_start.i = getelementptr inbounds %"class.std::vector", %"class.std::vector"* %m_pfData, i64 0, i32 0, i32 0, i32 0, !dbg !3185
  %mul10 = shl nuw nsw i64 %conv9.pre-phi, 2, !dbg !3199
  tail call void @llvm.memset.p0i8.i64(i8* align 4 %9, i8 0, i64 %mul10, i1 false), !dbg !3200
  %m_ppfChannels = getelementptr inbounds %class.CBFormat, %class.CBFormat* %this, i64 0, i32 4, !dbg !3201
  %10 = load i32, i32* %2, align 8, !dbg !3202, !tbaa !3060
  %conv12 = zext i32 %10 to i64, !dbg !3202
  %11 = shl nuw nsw i64 %conv12, 3, !dbg !3203
  %call13 = tail call i8* @_Znam(i64 %11) #25, !dbg !3203
  call void @llvm.dbg.value(metadata %"class.std::unique_ptr"* %m_ppfChannels, metadata !3204, metadata !DIExpression()) #24, !dbg !3209
  %12 = ptrtoint i8* %call13 to i64
  call void @llvm.dbg.value(metadata i64 %12, metadata !3207, metadata !DIExpression()) #24, !dbg !3209
  call void @llvm.dbg.value(metadata float*** undef, metadata !3207, metadata !DIExpression(DW_OP_deref)) #24, !dbg !3209
  call void @llvm.dbg.value(metadata %"class.std::unique_ptr"* %m_ppfChannels, metadata !3211, metadata !DIExpression()) #24, !dbg !3221
  call void @llvm.dbg.value(metadata float*** undef, metadata !3217, metadata !DIExpression()) #24, !dbg !3221
  %13 = bitcast %"class.std::unique_ptr"* %m_ppfChannels to i64*, !dbg !3223
  %14 = getelementptr inbounds %"class.std::unique_ptr", %"class.std::unique_ptr"* %m_ppfChannels, i64 0, i32 0, i32 0, i32 0, i32 0, !dbg !3223
  %15 = load float**, float*** %14, align 8, !dbg !3223, !tbaa !3224
  store i64 %12, i64* %13, align 8, !dbg !3225, !tbaa !3224
  call void @llvm.dbg.value(metadata float*** undef, metadata !3218, metadata !DIExpression(DW_OP_deref)) #24, !dbg !3221
  call void @llvm.dbg.value(metadata float** %15, metadata !3207, metadata !DIExpression()) #24, !dbg !3209
  %cmp.i30 = icmp eq float** %15, null, !dbg !3226
  br i1 %cmp.i30, label %_ZNSt10unique_ptrIA_PfSt14default_deleteIS1_EE5resetEPS0_.exit, label %_ZNKSt14default_deleteIA_PfEclEPS0_.exit.i, !dbg !3228

_ZNKSt14default_deleteIA_PfEclEPS0_.exit.i:       ; preds = %_ZNSt6vectorIfSaIfEE6resizeEm.exit
  call void @llvm.dbg.value(metadata float** %15, metadata !3207, metadata !DIExpression()) #24, !dbg !3209
  call void @llvm.dbg.value(metadata float** %15, metadata !3229, metadata !DIExpression()) #24, !dbg !3234
  %16 = bitcast float** %15 to i8*, !dbg !3236
  tail call void @_ZdaPv(i8* %16) #26, !dbg !3236
  %.pre34 = load i32, i32* %2, align 8, !dbg !3237, !tbaa !3060
  br label %_ZNSt10unique_ptrIA_PfSt14default_deleteIS1_EE5resetEPS0_.exit, !dbg !3239

_ZNSt10unique_ptrIA_PfSt14default_deleteIS1_EE5resetEPS0_.exit: ; preds = %_ZNKSt14default_deleteIA_PfEclEPS0_.exit.i, %_ZNSt6vectorIfSaIfEE6resizeEm.exit
  %17 = phi i32 [ %10, %_ZNSt6vectorIfSaIfEE6resizeEm.exit ], [ %.pre34, %_ZNKSt14default_deleteIA_PfEclEPS0_.exit.i ], !dbg !3237
  call void @llvm.dbg.value(metadata i32 0, metadata !3132, metadata !DIExpression()), !dbg !3240
  %cmp31 = icmp eq i32 %17, 0, !dbg !3241
  br i1 %cmp31, label %cleanup, label %for.body.lr.ph, !dbg !3242

for.body.lr.ph:                                   ; preds = %_ZNSt10unique_ptrIA_PfSt14default_deleteIS1_EE5resetEPS0_.exit
  %18 = load i32, i32* %m_nSamples, align 8, !dbg !3243, !tbaa !3119
  %19 = zext i32 %17 to i64, !dbg !3242
  %20 = add nsw i64 %19, -1, !dbg !3242
  %xtraiter = and i64 %19, 3, !dbg !3242
  %21 = icmp ult i64 %20, 3, !dbg !3242
  br i1 %21, label %cleanup.loopexit.unr-lcssa, label %for.body.lr.ph.new, !dbg !3242

for.body.lr.ph.new:                               ; preds = %for.body.lr.ph
  %unroll_iter = sub nsw i64 %19, %xtraiter, !dbg !3242
  br label %for.body, !dbg !3242

for.body:                                         ; preds = %for.body, %for.body.lr.ph.new
  %indvars.iv = phi i64 [ 0, %for.body.lr.ph.new ], [ %indvars.iv.next.3, %for.body ]
  %niter = phi i64 [ %unroll_iter, %for.body.lr.ph.new ], [ %niter.nsub.3, %for.body ]
  call void @llvm.dbg.value(metadata i64 %indvars.iv, metadata !3132, metadata !DIExpression()), !dbg !3240
  %22 = trunc i64 %indvars.iv to i32, !dbg !3245
  %mul17 = mul i32 %18, %22, !dbg !3245
  %conv18 = zext i32 %mul17 to i64, !dbg !3246
  call void @llvm.dbg.value(metadata %"class.std::vector"* %m_pfData, metadata !3247, metadata !DIExpression()), !dbg !3251
  call void @llvm.dbg.value(metadata i64 %conv18, metadata !3250, metadata !DIExpression()), !dbg !3251
  %23 = load float*, float** %_M_start.i, align 8, !dbg !3253, !tbaa !3172
  %add.ptr.i29 = getelementptr inbounds float, float* %23, i64 %conv18, !dbg !3254
  call void @llvm.dbg.value(metadata %"class.std::unique_ptr"* %m_ppfChannels, metadata !3255, metadata !DIExpression()), !dbg !3260
  call void @llvm.dbg.value(metadata i64 %indvars.iv, metadata !3258, metadata !DIExpression()), !dbg !3260
  call void @llvm.dbg.value(metadata %"class.std::unique_ptr"* %m_ppfChannels, metadata !3262, metadata !DIExpression()), !dbg !3265
  %24 = load float**, float*** %14, align 8, !dbg !3267, !tbaa !3224
  %arrayidx.i = getelementptr inbounds float*, float** %24, i64 %indvars.iv, !dbg !3268
  store float* %add.ptr.i29, float** %arrayidx.i, align 8, !dbg !3269, !tbaa !3224
  %indvars.iv.next = or i64 %indvars.iv, 1, !dbg !3270
  call void @llvm.dbg.value(metadata i32 undef, metadata !3132, metadata !DIExpression(DW_OP_plus_uconst, 1, DW_OP_stack_value)), !dbg !3240
  call void @llvm.dbg.value(metadata i64 %indvars.iv.next, metadata !3132, metadata !DIExpression()), !dbg !3240
  %25 = trunc i64 %indvars.iv.next to i32, !dbg !3245
  %mul17.1 = mul i32 %18, %25, !dbg !3245
  %conv18.1 = zext i32 %mul17.1 to i64, !dbg !3246
  call void @llvm.dbg.value(metadata %"class.std::vector"* %m_pfData, metadata !3247, metadata !DIExpression()), !dbg !3251
  call void @llvm.dbg.value(metadata i64 %conv18.1, metadata !3250, metadata !DIExpression()), !dbg !3251
  %26 = load float*, float** %_M_start.i, align 8, !dbg !3253, !tbaa !3172
  %add.ptr.i29.1 = getelementptr inbounds float, float* %26, i64 %conv18.1, !dbg !3254
  call void @llvm.dbg.value(metadata %"class.std::unique_ptr"* %m_ppfChannels, metadata !3255, metadata !DIExpression()), !dbg !3260
  call void @llvm.dbg.value(metadata i64 %indvars.iv.next, metadata !3258, metadata !DIExpression()), !dbg !3260
  call void @llvm.dbg.value(metadata %"class.std::unique_ptr"* %m_ppfChannels, metadata !3262, metadata !DIExpression()), !dbg !3265
  %27 = load float**, float*** %14, align 8, !dbg !3267, !tbaa !3224
  %arrayidx.i.1 = getelementptr inbounds float*, float** %27, i64 %indvars.iv.next, !dbg !3268
  store float* %add.ptr.i29.1, float** %arrayidx.i.1, align 8, !dbg !3269, !tbaa !3224
  %indvars.iv.next.1 = or i64 %indvars.iv, 2, !dbg !3270
  call void @llvm.dbg.value(metadata i32 undef, metadata !3132, metadata !DIExpression(DW_OP_plus_uconst, 1, DW_OP_stack_value)), !dbg !3240
  call void @llvm.dbg.value(metadata i64 %indvars.iv.next.1, metadata !3132, metadata !DIExpression()), !dbg !3240
  %28 = trunc i64 %indvars.iv.next.1 to i32, !dbg !3245
  %mul17.2 = mul i32 %18, %28, !dbg !3245
  %conv18.2 = zext i32 %mul17.2 to i64, !dbg !3246
  call void @llvm.dbg.value(metadata %"class.std::vector"* %m_pfData, metadata !3247, metadata !DIExpression()), !dbg !3251
  call void @llvm.dbg.value(metadata i64 %conv18.2, metadata !3250, metadata !DIExpression()), !dbg !3251
  %29 = load float*, float** %_M_start.i, align 8, !dbg !3253, !tbaa !3172
  %add.ptr.i29.2 = getelementptr inbounds float, float* %29, i64 %conv18.2, !dbg !3254
  call void @llvm.dbg.value(metadata %"class.std::unique_ptr"* %m_ppfChannels, metadata !3255, metadata !DIExpression()), !dbg !3260
  call void @llvm.dbg.value(metadata i64 %indvars.iv.next.1, metadata !3258, metadata !DIExpression()), !dbg !3260
  call void @llvm.dbg.value(metadata %"class.std::unique_ptr"* %m_ppfChannels, metadata !3262, metadata !DIExpression()), !dbg !3265
  %30 = load float**, float*** %14, align 8, !dbg !3267, !tbaa !3224
  %arrayidx.i.2 = getelementptr inbounds float*, float** %30, i64 %indvars.iv.next.1, !dbg !3268
  store float* %add.ptr.i29.2, float** %arrayidx.i.2, align 8, !dbg !3269, !tbaa !3224
  %indvars.iv.next.2 = or i64 %indvars.iv, 3, !dbg !3270
  call void @llvm.dbg.value(metadata i32 undef, metadata !3132, metadata !DIExpression(DW_OP_plus_uconst, 1, DW_OP_stack_value)), !dbg !3240
  call void @llvm.dbg.value(metadata i64 %indvars.iv.next.2, metadata !3132, metadata !DIExpression()), !dbg !3240
  %31 = trunc i64 %indvars.iv.next.2 to i32, !dbg !3245
  %mul17.3 = mul i32 %18, %31, !dbg !3245
  %conv18.3 = zext i32 %mul17.3 to i64, !dbg !3246
  call void @llvm.dbg.value(metadata %"class.std::vector"* %m_pfData, metadata !3247, metadata !DIExpression()), !dbg !3251
  call void @llvm.dbg.value(metadata i64 %conv18.3, metadata !3250, metadata !DIExpression()), !dbg !3251
  %32 = load float*, float** %_M_start.i, align 8, !dbg !3253, !tbaa !3172
  %add.ptr.i29.3 = getelementptr inbounds float, float* %32, i64 %conv18.3, !dbg !3254
  call void @llvm.dbg.value(metadata %"class.std::unique_ptr"* %m_ppfChannels, metadata !3255, metadata !DIExpression()), !dbg !3260
  call void @llvm.dbg.value(metadata i64 %indvars.iv.next.2, metadata !3258, metadata !DIExpression()), !dbg !3260
  call void @llvm.dbg.value(metadata %"class.std::unique_ptr"* %m_ppfChannels, metadata !3262, metadata !DIExpression()), !dbg !3265
  %33 = load float**, float*** %14, align 8, !dbg !3267, !tbaa !3224
  %arrayidx.i.3 = getelementptr inbounds float*, float** %33, i64 %indvars.iv.next.2, !dbg !3268
  store float* %add.ptr.i29.3, float** %arrayidx.i.3, align 8, !dbg !3269, !tbaa !3224
  %indvars.iv.next.3 = add nuw nsw i64 %indvars.iv, 4, !dbg !3270
  call void @llvm.dbg.value(metadata i32 undef, metadata !3132, metadata !DIExpression(DW_OP_plus_uconst, 1, DW_OP_stack_value)), !dbg !3240
  %niter.nsub.3 = add i64 %niter, -4, !dbg !3242
  %niter.ncmp.3 = icmp eq i64 %niter.nsub.3, 0, !dbg !3242
  br i1 %niter.ncmp.3, label %cleanup.loopexit.unr-lcssa, label %for.body, !dbg !3242, !llvm.loop !3271

cleanup.loopexit.unr-lcssa:                       ; preds = %for.body, %for.body.lr.ph
  %indvars.iv.unr = phi i64 [ 0, %for.body.lr.ph ], [ %indvars.iv.next.3, %for.body ]
  %lcmp.mod = icmp eq i64 %xtraiter, 0, !dbg !3242
  br i1 %lcmp.mod, label %cleanup, label %for.body.epil, !dbg !3242

for.body.epil:                                    ; preds = %for.body.epil, %cleanup.loopexit.unr-lcssa
  %indvars.iv.epil = phi i64 [ %indvars.iv.next.epil, %for.body.epil ], [ %indvars.iv.unr, %cleanup.loopexit.unr-lcssa ]
  %epil.iter = phi i64 [ %epil.iter.sub, %for.body.epil ], [ %xtraiter, %cleanup.loopexit.unr-lcssa ]
  call void @llvm.dbg.value(metadata i64 %indvars.iv.epil, metadata !3132, metadata !DIExpression()), !dbg !3240
  %34 = trunc i64 %indvars.iv.epil to i32, !dbg !3245
  %mul17.epil = mul i32 %18, %34, !dbg !3245
  %conv18.epil = zext i32 %mul17.epil to i64, !dbg !3246
  call void @llvm.dbg.value(metadata %"class.std::vector"* %m_pfData, metadata !3247, metadata !DIExpression()), !dbg !3251
  call void @llvm.dbg.value(metadata i64 %conv18.epil, metadata !3250, metadata !DIExpression()), !dbg !3251
  %35 = load float*, float** %_M_start.i, align 8, !dbg !3253, !tbaa !3172
  %add.ptr.i29.epil = getelementptr inbounds float, float* %35, i64 %conv18.epil, !dbg !3254
  call void @llvm.dbg.value(metadata %"class.std::unique_ptr"* %m_ppfChannels, metadata !3255, metadata !DIExpression()), !dbg !3260
  call void @llvm.dbg.value(metadata i64 %indvars.iv.epil, metadata !3258, metadata !DIExpression()), !dbg !3260
  call void @llvm.dbg.value(metadata %"class.std::unique_ptr"* %m_ppfChannels, metadata !3262, metadata !DIExpression()), !dbg !3265
  %36 = load float**, float*** %14, align 8, !dbg !3267, !tbaa !3224
  %arrayidx.i.epil = getelementptr inbounds float*, float** %36, i64 %indvars.iv.epil, !dbg !3268
  store float* %add.ptr.i29.epil, float** %arrayidx.i.epil, align 8, !dbg !3269, !tbaa !3224
  %indvars.iv.next.epil = add nuw nsw i64 %indvars.iv.epil, 1, !dbg !3270
  call void @llvm.dbg.value(metadata i32 undef, metadata !3132, metadata !DIExpression(DW_OP_plus_uconst, 1, DW_OP_stack_value)), !dbg !3240
  %epil.iter.sub = add i64 %epil.iter, -1, !dbg !3242
  %epil.iter.cmp = icmp eq i64 %epil.iter.sub, 0, !dbg !3242
  br i1 %epil.iter.cmp, label %cleanup, label %for.body.epil, !dbg !3242, !llvm.loop !3273

cleanup:                                          ; preds = %for.body.epil, %cleanup.loopexit.unr-lcssa, %_ZNSt10unique_ptrIA_PfSt14default_deleteIS1_EE5resetEPS0_.exit
  ret i1 true, !dbg !3275
}

; Function Attrs: argmemonly nounwind
declare void @llvm.lifetime.start.p0i8(i64 immarg, i8* nocapture) #8

; Function Attrs: argmemonly nounwind
declare void @llvm.memset.p0i8.i64(i8* nocapture writeonly, i8, i64, i1 immarg) #8

; Function Attrs: nobuiltin nofree
declare noalias nonnull i8* @_Znam(i64) local_unnamed_addr #9

; Function Attrs: argmemonly nounwind
declare void @llvm.lifetime.end.p0i8(i64 immarg, i8* nocapture) #8

; Function Attrs: nounwind uwtable
define void @_ZN8CBFormat5ResetEv(%class.CBFormat* nocapture readonly %this) unnamed_addr #7 align 2 personality i32 (...)* @__gxx_personality_v0 !dbg !3276 {
entry:
  call void @llvm.dbg.value(metadata %class.CBFormat* %this, metadata !3278, metadata !DIExpression()), !dbg !3279
  call void @llvm.dbg.value(metadata %class.CBFormat* %this, metadata !3183, metadata !DIExpression(DW_OP_plus_uconst, 32, DW_OP_stack_value)), !dbg !3280
  %_M_start.i = getelementptr inbounds %class.CBFormat, %class.CBFormat* %this, i64 0, i32 3, i32 0, i32 0, i32 0, !dbg !3282
  %0 = bitcast float** %_M_start.i to i8**, !dbg !3282
  %1 = load i8*, i8** %0, align 8, !dbg !3282, !tbaa !3172
  %m_nDataLength = getelementptr inbounds %class.CBFormat, %class.CBFormat* %this, i64 0, i32 2, !dbg !3283
  %2 = load i32, i32* %m_nDataLength, align 4, !dbg !3283, !tbaa !3149
  %conv = zext i32 %2 to i64, !dbg !3283
  %mul = shl nuw nsw i64 %conv, 2, !dbg !3284
  tail call void @llvm.memset.p0i8.i64(i8* align 4 %1, i8 0, i64 %mul, i1 false), !dbg !3285
  ret void, !dbg !3286
}

; Function Attrs: norecurse nounwind readnone uwtable
define void @_ZN8CBFormat7RefreshEv(%class.CBFormat* nocapture %this) unnamed_addr #10 align 2 !dbg !3287 {
entry:
  call void @llvm.dbg.value(metadata %class.CBFormat* undef, metadata !3289, metadata !DIExpression()), !dbg !3290
  ret void, !dbg !3291
}

; Function Attrs: nounwind uwtable
define void @_ZN8CBFormat12InsertStreamEPfjj(%class.CBFormat* nocapture readonly %this, float* nocapture readonly %pfData, i32 %nChannel, i32 %nSamples) local_unnamed_addr #7 align 2 !dbg !3292 {
entry:
  call void @llvm.dbg.value(metadata %class.CBFormat* %this, metadata !3294, metadata !DIExpression()), !dbg !3298
  call void @llvm.dbg.value(metadata float* %pfData, metadata !3295, metadata !DIExpression()), !dbg !3298
  call void @llvm.dbg.value(metadata i32 %nChannel, metadata !3296, metadata !DIExpression()), !dbg !3298
  call void @llvm.dbg.value(metadata i32 %nSamples, metadata !3297, metadata !DIExpression()), !dbg !3298
  %conv = zext i32 %nChannel to i64, !dbg !3299
  call void @llvm.dbg.value(metadata %class.CBFormat* %this, metadata !3255, metadata !DIExpression(DW_OP_plus_uconst, 56, DW_OP_stack_value)), !dbg !3300
  call void @llvm.dbg.value(metadata i64 %conv, metadata !3258, metadata !DIExpression()), !dbg !3300
  call void @llvm.dbg.value(metadata %class.CBFormat* %this, metadata !3262, metadata !DIExpression(DW_OP_plus_uconst, 56, DW_OP_stack_value)), !dbg !3302
  call void @llvm.dbg.value(metadata %class.CBFormat* %this, metadata !3304, metadata !DIExpression(DW_OP_plus_uconst, 56, DW_OP_stack_value)), !dbg !3318
  call void @llvm.dbg.value(metadata %class.CBFormat* %this, metadata !3320, metadata !DIExpression(DW_OP_plus_uconst, 56, DW_OP_stack_value)), !dbg !3325
  call void @llvm.dbg.value(metadata %class.CBFormat* %this, metadata !3327, metadata !DIExpression(DW_OP_plus_uconst, 56, DW_OP_stack_value)), !dbg !3330
  call void @llvm.dbg.value(metadata %class.CBFormat* %this, metadata !3332, metadata !DIExpression(DW_OP_plus_uconst, 56, DW_OP_stack_value)), !dbg !3335
  %_M_head_impl.i.i.i.i.i.i = getelementptr inbounds %class.CBFormat, %class.CBFormat* %this, i64 0, i32 4, i32 0, i32 0, i32 0, i32 0, !dbg !3337
  %0 = load float**, float*** %_M_head_impl.i.i.i.i.i.i, align 8, !dbg !3338, !tbaa !3224
  %arrayidx.i = getelementptr inbounds float*, float** %0, i64 %conv, !dbg !3339
  %1 = bitcast float** %arrayidx.i to i8**, !dbg !3340
  %2 = load i8*, i8** %1, align 8, !dbg !3340, !tbaa !3224
  %3 = bitcast float* %pfData to i8*, !dbg !3341
  %conv2 = zext i32 %nSamples to i64, !dbg !3342
  %mul = shl nuw nsw i64 %conv2, 2, !dbg !3343
  tail call void @llvm.memcpy.p0i8.p0i8.i64(i8* align 4 %2, i8* align 4 %3, i64 %mul, i1 false), !dbg !3341
  ret void, !dbg !3344
}

; Function Attrs: argmemonly nounwind
declare void @llvm.memcpy.p0i8.p0i8.i64(i8* nocapture writeonly, i8* nocapture readonly, i64, i1 immarg) #8

; Function Attrs: nounwind uwtable
define void @_ZN8CBFormat13ExtractStreamEPfjj(%class.CBFormat* nocapture readonly %this, float* nocapture %pfData, i32 %nChannel, i32 %nSamples) local_unnamed_addr #7 align 2 !dbg !3345 {
entry:
  call void @llvm.dbg.value(metadata %class.CBFormat* %this, metadata !3347, metadata !DIExpression()), !dbg !3351
  call void @llvm.dbg.value(metadata float* %pfData, metadata !3348, metadata !DIExpression()), !dbg !3351
  call void @llvm.dbg.value(metadata i32 %nChannel, metadata !3349, metadata !DIExpression()), !dbg !3351
  call void @llvm.dbg.value(metadata i32 %nSamples, metadata !3350, metadata !DIExpression()), !dbg !3351
  %0 = bitcast float* %pfData to i8*, !dbg !3352
  %conv = zext i32 %nChannel to i64, !dbg !3353
  call void @llvm.dbg.value(metadata %class.CBFormat* %this, metadata !3255, metadata !DIExpression(DW_OP_plus_uconst, 56, DW_OP_stack_value)), !dbg !3354
  call void @llvm.dbg.value(metadata i64 %conv, metadata !3258, metadata !DIExpression()), !dbg !3354
  call void @llvm.dbg.value(metadata %class.CBFormat* %this, metadata !3262, metadata !DIExpression(DW_OP_plus_uconst, 56, DW_OP_stack_value)), !dbg !3356
  call void @llvm.dbg.value(metadata %class.CBFormat* %this, metadata !3304, metadata !DIExpression(DW_OP_plus_uconst, 56, DW_OP_stack_value)), !dbg !3358
  call void @llvm.dbg.value(metadata %class.CBFormat* %this, metadata !3320, metadata !DIExpression(DW_OP_plus_uconst, 56, DW_OP_stack_value)), !dbg !3360
  call void @llvm.dbg.value(metadata %class.CBFormat* %this, metadata !3327, metadata !DIExpression(DW_OP_plus_uconst, 56, DW_OP_stack_value)), !dbg !3362
  call void @llvm.dbg.value(metadata %class.CBFormat* %this, metadata !3332, metadata !DIExpression(DW_OP_plus_uconst, 56, DW_OP_stack_value)), !dbg !3364
  %_M_head_impl.i.i.i.i.i.i = getelementptr inbounds %class.CBFormat, %class.CBFormat* %this, i64 0, i32 4, i32 0, i32 0, i32 0, i32 0, !dbg !3366
  %1 = load float**, float*** %_M_head_impl.i.i.i.i.i.i, align 8, !dbg !3367, !tbaa !3224
  %arrayidx.i = getelementptr inbounds float*, float** %1, i64 %conv, !dbg !3368
  %2 = bitcast float** %arrayidx.i to i8**, !dbg !3369
  %3 = load i8*, i8** %2, align 8, !dbg !3369, !tbaa !3224
  %conv2 = zext i32 %nSamples to i64, !dbg !3370
  %mul = shl nuw nsw i64 %conv2, 2, !dbg !3371
  tail call void @llvm.memcpy.p0i8.p0i8.i64(i8* align 4 %0, i8* align 4 %3, i64 %mul, i1 false), !dbg !3352
  ret void, !dbg !3372
}

; Function Attrs: nounwind uwtable
define void @_ZN8CBFormataSERKS_(%class.CBFormat* nocapture readonly %this, %class.CBFormat* nocapture readonly dereferenceable(64) %bf) local_unnamed_addr #7 align 2 personality i32 (...)* @__gxx_personality_v0 !dbg !3373 {
entry:
  call void @llvm.dbg.value(metadata %class.CBFormat* %this, metadata !3375, metadata !DIExpression()), !dbg !3377
  call void @llvm.dbg.value(metadata %class.CBFormat* %bf, metadata !3376, metadata !DIExpression()), !dbg !3377
  call void @llvm.dbg.value(metadata %class.CBFormat* %this, metadata !3183, metadata !DIExpression(DW_OP_plus_uconst, 32, DW_OP_stack_value)), !dbg !3378
  %_M_start.i = getelementptr inbounds %class.CBFormat, %class.CBFormat* %this, i64 0, i32 3, i32 0, i32 0, i32 0, !dbg !3380
  %0 = bitcast float** %_M_start.i to i8**, !dbg !3380
  %1 = load i8*, i8** %0, align 8, !dbg !3380, !tbaa !3172
  call void @llvm.dbg.value(metadata %class.CBFormat* %bf, metadata !3381, metadata !DIExpression(DW_OP_plus_uconst, 32, DW_OP_stack_value)), !dbg !3384
  %_M_start.i4 = getelementptr inbounds %class.CBFormat, %class.CBFormat* %bf, i64 0, i32 3, i32 0, i32 0, i32 0, !dbg !3386
  %2 = bitcast float** %_M_start.i4 to i8**, !dbg !3386
  %3 = load i8*, i8** %2, align 8, !dbg !3386, !tbaa !3172
  %m_nDataLength = getelementptr inbounds %class.CBFormat, %class.CBFormat* %this, i64 0, i32 2, !dbg !3387
  %4 = load i32, i32* %m_nDataLength, align 4, !dbg !3387, !tbaa !3149
  %conv = zext i32 %4 to i64, !dbg !3387
  %mul = shl nuw nsw i64 %conv, 2, !dbg !3388
  tail call void @llvm.memcpy.p0i8.p0i8.i64(i8* align 4 %1, i8* align 4 %3, i64 %mul, i1 false), !dbg !3389
  ret void, !dbg !3390
}

; Function Attrs: norecurse nounwind readonly uwtable
define zeroext i1 @_ZN8CBFormateqERKS_(%class.CBFormat* nocapture readonly %this, %class.CBFormat* nocapture readonly dereferenceable(64) %bf) local_unnamed_addr #5 align 2 !dbg !3391 {
entry:
  call void @llvm.dbg.value(metadata %class.CBFormat* %this, metadata !3393, metadata !DIExpression()), !dbg !3395
  call void @llvm.dbg.value(metadata %class.CBFormat* %bf, metadata !3394, metadata !DIExpression()), !dbg !3395
  %0 = getelementptr inbounds %class.CBFormat, %class.CBFormat* %this, i64 0, i32 0, i32 2, !dbg !3396
  %1 = load i8, i8* %0, align 4, !dbg !3396, !tbaa !3058, !range !3075
  %2 = getelementptr inbounds %class.CBFormat, %class.CBFormat* %bf, i64 0, i32 0, i32 2, !dbg !3398
  %3 = load i8, i8* %2, align 4, !dbg !3398, !tbaa !3058, !range !3075
  %cmp = icmp eq i8 %1, %3, !dbg !3399
  br i1 %cmp, label %land.lhs.true, label %if.else, !dbg !3400

land.lhs.true:                                    ; preds = %entry
  %4 = getelementptr inbounds %class.CBFormat, %class.CBFormat* %this, i64 0, i32 0, i32 1, !dbg !3401
  %5 = load i32, i32* %4, align 8, !dbg !3401, !tbaa !3052
  %6 = getelementptr inbounds %class.CBFormat, %class.CBFormat* %bf, i64 0, i32 0, i32 1, !dbg !3402
  %7 = load i32, i32* %6, align 8, !dbg !3402, !tbaa !3052
  %cmp6 = icmp eq i32 %5, %7, !dbg !3403
  br i1 %cmp6, label %land.lhs.true7, label %if.else, !dbg !3404

land.lhs.true7:                                   ; preds = %land.lhs.true
  %m_nDataLength = getelementptr inbounds %class.CBFormat, %class.CBFormat* %this, i64 0, i32 2, !dbg !3405
  %8 = load i32, i32* %m_nDataLength, align 4, !dbg !3405, !tbaa !3149
  %m_nDataLength8 = getelementptr inbounds %class.CBFormat, %class.CBFormat* %bf, i64 0, i32 2, !dbg !3406
  %9 = load i32, i32* %m_nDataLength8, align 4, !dbg !3406, !tbaa !3149
  %cmp9 = icmp eq i32 %8, %9, !dbg !3407
  br i1 %cmp9, label %return, label %if.else, !dbg !3408

if.else:                                          ; preds = %land.lhs.true7, %land.lhs.true, %entry
  br label %return, !dbg !3409

return:                                           ; preds = %if.else, %land.lhs.true7
  %retval.0 = phi i1 [ false, %if.else ], [ true, %land.lhs.true7 ], !dbg !3410
  ret i1 %retval.0, !dbg !3411
}

; Function Attrs: norecurse nounwind readonly uwtable
define zeroext i1 @_ZN8CBFormatneERKS_(%class.CBFormat* nocapture readonly %this, %class.CBFormat* nocapture readonly dereferenceable(64) %bf) local_unnamed_addr #5 align 2 !dbg !3412 {
entry:
  call void @llvm.dbg.value(metadata %class.CBFormat* %this, metadata !3414, metadata !DIExpression()), !dbg !3416
  call void @llvm.dbg.value(metadata %class.CBFormat* %bf, metadata !3415, metadata !DIExpression()), !dbg !3416
  %0 = getelementptr inbounds %class.CBFormat, %class.CBFormat* %this, i64 0, i32 0, i32 2, !dbg !3417
  %1 = load i8, i8* %0, align 4, !dbg !3417, !tbaa !3058, !range !3075
  %2 = getelementptr inbounds %class.CBFormat, %class.CBFormat* %bf, i64 0, i32 0, i32 2, !dbg !3419
  %3 = load i8, i8* %2, align 4, !dbg !3419, !tbaa !3058, !range !3075
  %cmp = icmp eq i8 %1, %3, !dbg !3420
  br i1 %cmp, label %lor.lhs.false, label %return, !dbg !3421

lor.lhs.false:                                    ; preds = %entry
  %4 = getelementptr inbounds %class.CBFormat, %class.CBFormat* %this, i64 0, i32 0, i32 1, !dbg !3422
  %5 = load i32, i32* %4, align 8, !dbg !3422, !tbaa !3052
  %6 = getelementptr inbounds %class.CBFormat, %class.CBFormat* %bf, i64 0, i32 0, i32 1, !dbg !3423
  %7 = load i32, i32* %6, align 8, !dbg !3423, !tbaa !3052
  %cmp6 = icmp eq i32 %5, %7, !dbg !3424
  br i1 %cmp6, label %lor.lhs.false7, label %return, !dbg !3425

lor.lhs.false7:                                   ; preds = %lor.lhs.false
  %m_nDataLength = getelementptr inbounds %class.CBFormat, %class.CBFormat* %this, i64 0, i32 2, !dbg !3426
  %8 = load i32, i32* %m_nDataLength, align 4, !dbg !3426, !tbaa !3149
  %m_nDataLength8 = getelementptr inbounds %class.CBFormat, %class.CBFormat* %bf, i64 0, i32 2, !dbg !3427
  %9 = load i32, i32* %m_nDataLength8, align 4, !dbg !3427, !tbaa !3149
  %cmp9 = icmp ne i32 %8, %9, !dbg !3428
  ret i1 %cmp9, !dbg !3429

return:                                           ; preds = %lor.lhs.false, %entry
  ret i1 true, !dbg !3430
}

; Function Attrs: nofree norecurse nounwind uwtable
define dereferenceable(64) %class.CBFormat* @_ZN8CBFormatpLERKS_(%class.CBFormat* readonly returned %this, %class.CBFormat* nocapture readonly dereferenceable(64) %bf) local_unnamed_addr #11 align 2 !dbg !3431 {
entry:
  call void @llvm.dbg.value(metadata %class.CBFormat* %this, metadata !3433, metadata !DIExpression()), !dbg !3437
  call void @llvm.dbg.value(metadata %class.CBFormat* %bf, metadata !3434, metadata !DIExpression()), !dbg !3437
  call void @llvm.dbg.value(metadata i32 0, metadata !3435, metadata !DIExpression()), !dbg !3437
  call void @llvm.dbg.value(metadata i32 0, metadata !3436, metadata !DIExpression()), !dbg !3437
  call void @llvm.dbg.value(metadata i32 0, metadata !3435, metadata !DIExpression()), !dbg !3437
  %0 = getelementptr inbounds %class.CBFormat, %class.CBFormat* %this, i64 0, i32 0, i32 4, !dbg !3438
  %1 = load i32, i32* %0, align 8, !dbg !3438, !tbaa !3060
  %cmp25 = icmp eq i32 %1, 0, !dbg !3441
  br i1 %cmp25, label %for.end12, label %for.cond2.preheader.lr.ph, !dbg !3442

for.cond2.preheader.lr.ph:                        ; preds = %entry
  %m_nSamples = getelementptr inbounds %class.CBFormat, %class.CBFormat* %this, i64 0, i32 1, !dbg !3443
  %2 = load i32, i32* %m_nSamples, align 8, !dbg !3443, !tbaa !3119
  %cmp323 = icmp eq i32 %2, 0, !dbg !3443
  %_M_head_impl.i.i.i.i.i.i = getelementptr inbounds %class.CBFormat, %class.CBFormat* %bf, i64 0, i32 4, i32 0, i32 0, i32 0, i32 0, !dbg !3447
  %3 = load float**, float*** %_M_head_impl.i.i.i.i.i.i, align 8, !dbg !3455
  br i1 %cmp323, label %for.end12, label %for.cond2.preheader.us.preheader, !dbg !3442

for.cond2.preheader.us.preheader:                 ; preds = %for.cond2.preheader.lr.ph
  %_M_head_impl.i.i.i.i.i.i21 = getelementptr inbounds %class.CBFormat, %class.CBFormat* %this, i64 0, i32 4, i32 0, i32 0, i32 0, i32 0, !dbg !3456
  %4 = zext i32 %1 to i64, !dbg !3442
  %.pre = load float**, float*** %_M_head_impl.i.i.i.i.i.i21, align 8, !dbg !3463, !tbaa !3224
  %5 = zext i32 %2 to i64, !dbg !3464
  %6 = and i64 %5, 4294967288, !dbg !3442
  %7 = add nsw i64 %6, -8, !dbg !3442
  %8 = lshr exact i64 %7, 3, !dbg !3442
  %9 = add nuw nsw i64 %8, 1, !dbg !3442
  %min.iters.check = icmp ult i32 %2, 8, !dbg !3464
  %n.vec = and i64 %5, 4294967288, !dbg !3464
  %xtraiter = and i64 %9, 1, !dbg !3464
  %10 = icmp eq i64 %7, 0, !dbg !3464
  %unroll_iter = sub nuw nsw i64 %9, %xtraiter, !dbg !3464
  %lcmp.mod = icmp eq i64 %xtraiter, 0, !dbg !3443
  %cmp.n = icmp eq i64 %n.vec, %5, !dbg !3464
  br label %for.cond2.preheader.us, !dbg !3442

for.cond2.preheader.us:                           ; preds = %for.cond2.for.inc10_crit_edge.us, %for.cond2.preheader.us.preheader
  %indvars.iv29 = phi i64 [ 0, %for.cond2.preheader.us.preheader ], [ %indvars.iv.next30, %for.cond2.for.inc10_crit_edge.us ]
  call void @llvm.dbg.value(metadata i64 %indvars.iv29, metadata !3435, metadata !DIExpression()), !dbg !3437
  call void @llvm.dbg.value(metadata i32 0, metadata !3436, metadata !DIExpression()), !dbg !3437
  %arrayidx.i.us = getelementptr inbounds float*, float** %3, i64 %indvars.iv29, !dbg !3465
  %11 = load float*, float** %arrayidx.i.us, align 8, !dbg !3466, !tbaa !3224
  %arrayidx.i22.us = getelementptr inbounds float*, float** %.pre, i64 %indvars.iv29, !dbg !3467
  %12 = load float*, float** %arrayidx.i22.us, align 8, !dbg !3466, !tbaa !3224
  br i1 %min.iters.check, label %for.body4.us.preheader, label %vector.memcheck, !dbg !3468

vector.memcheck:                                  ; preds = %for.cond2.preheader.us
  %scevgep = getelementptr float, float* %12, i64 %5, !dbg !3468
  %scevgep32 = getelementptr float, float* %11, i64 %5, !dbg !3468
  %bound0 = icmp ult float* %12, %scevgep32, !dbg !3468
  %bound1 = icmp ult float* %11, %scevgep, !dbg !3468
  %found.conflict = and i1 %bound0, %bound1, !dbg !3468
  br i1 %found.conflict, label %for.body4.us.preheader, label %vector.ph, !dbg !3468

vector.ph:                                        ; preds = %vector.memcheck
  br i1 %10, label %middle.block.unr-lcssa, label %vector.body, !dbg !3468

vector.body:                                      ; preds = %vector.body, %vector.ph
  %index = phi i64 [ %index.next.1, %vector.body ], [ 0, %vector.ph ], !dbg !3469
  %niter = phi i64 [ %niter.nsub.1, %vector.body ], [ %unroll_iter, %vector.ph ]
  %13 = getelementptr inbounds float, float* %11, i64 %index, !dbg !3470
  %14 = bitcast float* %13 to <4 x float>*, !dbg !3470
  %wide.load = load <4 x float>, <4 x float>* %14, align 4, !dbg !3470, !tbaa !3471, !alias.scope !3473
  %15 = getelementptr inbounds float, float* %13, i64 4, !dbg !3470
  %16 = bitcast float* %15 to <4 x float>*, !dbg !3470
  %wide.load35 = load <4 x float>, <4 x float>* %16, align 4, !dbg !3470, !tbaa !3471, !alias.scope !3473
  %17 = getelementptr inbounds float, float* %12, i64 %index, !dbg !3476
  %18 = bitcast float* %17 to <4 x float>*, !dbg !3477
  %wide.load36 = load <4 x float>, <4 x float>* %18, align 4, !dbg !3477, !tbaa !3471, !alias.scope !3478, !noalias !3473
  %19 = getelementptr inbounds float, float* %17, i64 4, !dbg !3477
  %20 = bitcast float* %19 to <4 x float>*, !dbg !3477
  %wide.load37 = load <4 x float>, <4 x float>* %20, align 4, !dbg !3477, !tbaa !3471, !alias.scope !3478, !noalias !3473
  %21 = fadd <4 x float> %wide.load, %wide.load36, !dbg !3477
  %22 = fadd <4 x float> %wide.load35, %wide.load37, !dbg !3477
  %23 = bitcast float* %17 to <4 x float>*, !dbg !3477
  store <4 x float> %21, <4 x float>* %23, align 4, !dbg !3477, !tbaa !3471, !alias.scope !3478, !noalias !3473
  %24 = bitcast float* %19 to <4 x float>*, !dbg !3477
  store <4 x float> %22, <4 x float>* %24, align 4, !dbg !3477, !tbaa !3471, !alias.scope !3478, !noalias !3473
  %index.next = or i64 %index, 8, !dbg !3469
  %25 = getelementptr inbounds float, float* %11, i64 %index.next, !dbg !3470
  %26 = bitcast float* %25 to <4 x float>*, !dbg !3470
  %wide.load.1 = load <4 x float>, <4 x float>* %26, align 4, !dbg !3470, !tbaa !3471, !alias.scope !3473
  %27 = getelementptr inbounds float, float* %25, i64 4, !dbg !3470
  %28 = bitcast float* %27 to <4 x float>*, !dbg !3470
  %wide.load35.1 = load <4 x float>, <4 x float>* %28, align 4, !dbg !3470, !tbaa !3471, !alias.scope !3473
  %29 = getelementptr inbounds float, float* %12, i64 %index.next, !dbg !3476
  %30 = bitcast float* %29 to <4 x float>*, !dbg !3477
  %wide.load36.1 = load <4 x float>, <4 x float>* %30, align 4, !dbg !3477, !tbaa !3471, !alias.scope !3478, !noalias !3473
  %31 = getelementptr inbounds float, float* %29, i64 4, !dbg !3477
  %32 = bitcast float* %31 to <4 x float>*, !dbg !3477
  %wide.load37.1 = load <4 x float>, <4 x float>* %32, align 4, !dbg !3477, !tbaa !3471, !alias.scope !3478, !noalias !3473
  %33 = fadd <4 x float> %wide.load.1, %wide.load36.1, !dbg !3477
  %34 = fadd <4 x float> %wide.load35.1, %wide.load37.1, !dbg !3477
  %35 = bitcast float* %29 to <4 x float>*, !dbg !3477
  store <4 x float> %33, <4 x float>* %35, align 4, !dbg !3477, !tbaa !3471, !alias.scope !3478, !noalias !3473
  %36 = bitcast float* %31 to <4 x float>*, !dbg !3477
  store <4 x float> %34, <4 x float>* %36, align 4, !dbg !3477, !tbaa !3471, !alias.scope !3478, !noalias !3473
  %index.next.1 = add i64 %index, 16, !dbg !3469
  %niter.nsub.1 = add i64 %niter, -2, !dbg !3469
  %niter.ncmp.1 = icmp eq i64 %niter.nsub.1, 0, !dbg !3469
  br i1 %niter.ncmp.1, label %middle.block.unr-lcssa, label %vector.body, !dbg !3469, !llvm.loop !3480

middle.block.unr-lcssa:                           ; preds = %vector.body, %vector.ph
  %index.unr = phi i64 [ 0, %vector.ph ], [ %index.next.1, %vector.body ]
  br i1 %lcmp.mod, label %middle.block, label %vector.body.epil, !dbg !3469

vector.body.epil:                                 ; preds = %middle.block.unr-lcssa
  %37 = getelementptr inbounds float, float* %11, i64 %index.unr, !dbg !3470
  %38 = bitcast float* %37 to <4 x float>*, !dbg !3470
  %wide.load.epil = load <4 x float>, <4 x float>* %38, align 4, !dbg !3470, !tbaa !3471, !alias.scope !3473
  %39 = getelementptr inbounds float, float* %37, i64 4, !dbg !3470
  %40 = bitcast float* %39 to <4 x float>*, !dbg !3470
  %wide.load35.epil = load <4 x float>, <4 x float>* %40, align 4, !dbg !3470, !tbaa !3471, !alias.scope !3473
  %41 = getelementptr inbounds float, float* %12, i64 %index.unr, !dbg !3476
  %42 = bitcast float* %41 to <4 x float>*, !dbg !3477
  %wide.load36.epil = load <4 x float>, <4 x float>* %42, align 4, !dbg !3477, !tbaa !3471, !alias.scope !3478, !noalias !3473
  %43 = getelementptr inbounds float, float* %41, i64 4, !dbg !3477
  %44 = bitcast float* %43 to <4 x float>*, !dbg !3477
  %wide.load37.epil = load <4 x float>, <4 x float>* %44, align 4, !dbg !3477, !tbaa !3471, !alias.scope !3478, !noalias !3473
  %45 = fadd <4 x float> %wide.load.epil, %wide.load36.epil, !dbg !3477
  %46 = fadd <4 x float> %wide.load35.epil, %wide.load37.epil, !dbg !3477
  %47 = bitcast float* %41 to <4 x float>*, !dbg !3477
  store <4 x float> %45, <4 x float>* %47, align 4, !dbg !3477, !tbaa !3471, !alias.scope !3478, !noalias !3473
  %48 = bitcast float* %43 to <4 x float>*, !dbg !3477
  store <4 x float> %46, <4 x float>* %48, align 4, !dbg !3477, !tbaa !3471, !alias.scope !3478, !noalias !3473
  br label %middle.block, !dbg !3468

middle.block:                                     ; preds = %vector.body.epil, %middle.block.unr-lcssa
  br i1 %cmp.n, label %for.cond2.for.inc10_crit_edge.us, label %for.body4.us.preheader, !dbg !3468

for.body4.us.preheader:                           ; preds = %middle.block, %vector.memcheck, %for.cond2.preheader.us
  %indvars.iv.ph = phi i64 [ 0, %vector.memcheck ], [ 0, %for.cond2.preheader.us ], [ %n.vec, %middle.block ]
  br label %for.body4.us, !dbg !3468

for.body4.us:                                     ; preds = %for.body4.us, %for.body4.us.preheader
  %indvars.iv = phi i64 [ %indvars.iv.next, %for.body4.us ], [ %indvars.iv.ph, %for.body4.us.preheader ]
  call void @llvm.dbg.value(metadata i64 %indvars.iv, metadata !3436, metadata !DIExpression()), !dbg !3437
  call void @llvm.dbg.value(metadata %class.CBFormat* %bf, metadata !3255, metadata !DIExpression(DW_OP_plus_uconst, 56, DW_OP_stack_value)), !dbg !3465
  call void @llvm.dbg.value(metadata i64 %indvars.iv29, metadata !3258, metadata !DIExpression()), !dbg !3465
  call void @llvm.dbg.value(metadata %class.CBFormat* %bf, metadata !3262, metadata !DIExpression(DW_OP_plus_uconst, 56, DW_OP_stack_value)), !dbg !3455
  call void @llvm.dbg.value(metadata %class.CBFormat* %bf, metadata !3304, metadata !DIExpression(DW_OP_plus_uconst, 56, DW_OP_stack_value)), !dbg !3483
  call void @llvm.dbg.value(metadata %class.CBFormat* %bf, metadata !3320, metadata !DIExpression(DW_OP_plus_uconst, 56, DW_OP_stack_value)), !dbg !3484
  call void @llvm.dbg.value(metadata %class.CBFormat* %bf, metadata !3327, metadata !DIExpression(DW_OP_plus_uconst, 56, DW_OP_stack_value)), !dbg !3485
  call void @llvm.dbg.value(metadata %class.CBFormat* %bf, metadata !3332, metadata !DIExpression(DW_OP_plus_uconst, 56, DW_OP_stack_value)), !dbg !3447
  %arrayidx.us = getelementptr inbounds float, float* %11, i64 %indvars.iv, !dbg !3470
  %49 = load float, float* %arrayidx.us, align 4, !dbg !3470, !tbaa !3471
  call void @llvm.dbg.value(metadata %class.CBFormat* %this, metadata !3255, metadata !DIExpression(DW_OP_plus_uconst, 56, DW_OP_stack_value)), !dbg !3467
  call void @llvm.dbg.value(metadata i64 %indvars.iv29, metadata !3258, metadata !DIExpression()), !dbg !3467
  call void @llvm.dbg.value(metadata %class.CBFormat* %this, metadata !3262, metadata !DIExpression(DW_OP_plus_uconst, 56, DW_OP_stack_value)), !dbg !3463
  call void @llvm.dbg.value(metadata %class.CBFormat* %this, metadata !3304, metadata !DIExpression(DW_OP_plus_uconst, 56, DW_OP_stack_value)), !dbg !3486
  call void @llvm.dbg.value(metadata %class.CBFormat* %this, metadata !3320, metadata !DIExpression(DW_OP_plus_uconst, 56, DW_OP_stack_value)), !dbg !3487
  call void @llvm.dbg.value(metadata %class.CBFormat* %this, metadata !3327, metadata !DIExpression(DW_OP_plus_uconst, 56, DW_OP_stack_value)), !dbg !3488
  call void @llvm.dbg.value(metadata %class.CBFormat* %this, metadata !3332, metadata !DIExpression(DW_OP_plus_uconst, 56, DW_OP_stack_value)), !dbg !3456
  %arrayidx9.us = getelementptr inbounds float, float* %12, i64 %indvars.iv, !dbg !3476
  %50 = load float, float* %arrayidx9.us, align 4, !dbg !3477, !tbaa !3471
  %add.us = fadd float %49, %50, !dbg !3477
  store float %add.us, float* %arrayidx9.us, align 4, !dbg !3477, !tbaa !3471
  %indvars.iv.next = add nuw nsw i64 %indvars.iv, 1, !dbg !3469
  call void @llvm.dbg.value(metadata i32 undef, metadata !3436, metadata !DIExpression(DW_OP_plus_uconst, 1, DW_OP_stack_value)), !dbg !3437
  %cmp3.us = icmp ult i64 %indvars.iv.next, %5, !dbg !3489
  br i1 %cmp3.us, label %for.body4.us, label %for.cond2.for.inc10_crit_edge.us, !dbg !3468, !llvm.loop !3490

for.cond2.for.inc10_crit_edge.us:                 ; preds = %for.body4.us, %middle.block
  %indvars.iv.next30 = add nuw nsw i64 %indvars.iv29, 1, !dbg !3491
  call void @llvm.dbg.value(metadata i32 undef, metadata !3435, metadata !DIExpression(DW_OP_plus_uconst, 1, DW_OP_stack_value)), !dbg !3437
  %cmp.us = icmp ult i64 %indvars.iv.next30, %4, !dbg !3441
  br i1 %cmp.us, label %for.cond2.preheader.us, label %for.end12, !dbg !3442, !llvm.loop !3492

for.end12:                                        ; preds = %for.cond2.for.inc10_crit_edge.us, %for.cond2.preheader.lr.ph, %entry
  ret %class.CBFormat* %this, !dbg !3494
}

; Function Attrs: nofree norecurse nounwind uwtable
define dereferenceable(64) %class.CBFormat* @_ZN8CBFormatmIERKS_(%class.CBFormat* readonly returned %this, %class.CBFormat* nocapture readonly dereferenceable(64) %bf) local_unnamed_addr #11 align 2 !dbg !3495 {
entry:
  call void @llvm.dbg.value(metadata %class.CBFormat* %this, metadata !3497, metadata !DIExpression()), !dbg !3501
  call void @llvm.dbg.value(metadata %class.CBFormat* %bf, metadata !3498, metadata !DIExpression()), !dbg !3501
  call void @llvm.dbg.value(metadata i32 0, metadata !3499, metadata !DIExpression()), !dbg !3501
  call void @llvm.dbg.value(metadata i32 0, metadata !3500, metadata !DIExpression()), !dbg !3501
  call void @llvm.dbg.value(metadata i32 0, metadata !3499, metadata !DIExpression()), !dbg !3501
  %0 = getelementptr inbounds %class.CBFormat, %class.CBFormat* %this, i64 0, i32 0, i32 4, !dbg !3502
  %1 = load i32, i32* %0, align 8, !dbg !3502, !tbaa !3060
  %cmp25 = icmp eq i32 %1, 0, !dbg !3505
  br i1 %cmp25, label %for.end12, label %for.cond2.preheader.lr.ph, !dbg !3506

for.cond2.preheader.lr.ph:                        ; preds = %entry
  %m_nSamples = getelementptr inbounds %class.CBFormat, %class.CBFormat* %this, i64 0, i32 1, !dbg !3507
  %2 = load i32, i32* %m_nSamples, align 8, !dbg !3507, !tbaa !3119
  %cmp323 = icmp eq i32 %2, 0, !dbg !3507
  %_M_head_impl.i.i.i.i.i.i = getelementptr inbounds %class.CBFormat, %class.CBFormat* %bf, i64 0, i32 4, i32 0, i32 0, i32 0, i32 0, !dbg !3511
  %3 = load float**, float*** %_M_head_impl.i.i.i.i.i.i, align 8, !dbg !3519
  br i1 %cmp323, label %for.end12, label %for.cond2.preheader.us.preheader, !dbg !3506

for.cond2.preheader.us.preheader:                 ; preds = %for.cond2.preheader.lr.ph
  %_M_head_impl.i.i.i.i.i.i21 = getelementptr inbounds %class.CBFormat, %class.CBFormat* %this, i64 0, i32 4, i32 0, i32 0, i32 0, i32 0, !dbg !3520
  %4 = zext i32 %1 to i64, !dbg !3506
  %.pre = load float**, float*** %_M_head_impl.i.i.i.i.i.i21, align 8, !dbg !3527, !tbaa !3224
  %5 = zext i32 %2 to i64, !dbg !3528
  %6 = and i64 %5, 4294967288, !dbg !3506
  %7 = add nsw i64 %6, -8, !dbg !3506
  %8 = lshr exact i64 %7, 3, !dbg !3506
  %9 = add nuw nsw i64 %8, 1, !dbg !3506
  %min.iters.check = icmp ult i32 %2, 8, !dbg !3528
  %n.vec = and i64 %5, 4294967288, !dbg !3528
  %xtraiter = and i64 %9, 1, !dbg !3528
  %10 = icmp eq i64 %7, 0, !dbg !3528
  %unroll_iter = sub nuw nsw i64 %9, %xtraiter, !dbg !3528
  %lcmp.mod = icmp eq i64 %xtraiter, 0, !dbg !3507
  %cmp.n = icmp eq i64 %n.vec, %5, !dbg !3528
  br label %for.cond2.preheader.us, !dbg !3506

for.cond2.preheader.us:                           ; preds = %for.cond2.for.inc10_crit_edge.us, %for.cond2.preheader.us.preheader
  %indvars.iv29 = phi i64 [ 0, %for.cond2.preheader.us.preheader ], [ %indvars.iv.next30, %for.cond2.for.inc10_crit_edge.us ]
  call void @llvm.dbg.value(metadata i64 %indvars.iv29, metadata !3499, metadata !DIExpression()), !dbg !3501
  call void @llvm.dbg.value(metadata i32 0, metadata !3500, metadata !DIExpression()), !dbg !3501
  %arrayidx.i.us = getelementptr inbounds float*, float** %3, i64 %indvars.iv29, !dbg !3529
  %11 = load float*, float** %arrayidx.i.us, align 8, !dbg !3530, !tbaa !3224
  %arrayidx.i22.us = getelementptr inbounds float*, float** %.pre, i64 %indvars.iv29, !dbg !3531
  %12 = load float*, float** %arrayidx.i22.us, align 8, !dbg !3530, !tbaa !3224
  br i1 %min.iters.check, label %for.body4.us.preheader, label %vector.memcheck, !dbg !3532

vector.memcheck:                                  ; preds = %for.cond2.preheader.us
  %scevgep = getelementptr float, float* %12, i64 %5, !dbg !3532
  %scevgep32 = getelementptr float, float* %11, i64 %5, !dbg !3532
  %bound0 = icmp ult float* %12, %scevgep32, !dbg !3532
  %bound1 = icmp ult float* %11, %scevgep, !dbg !3532
  %found.conflict = and i1 %bound0, %bound1, !dbg !3532
  br i1 %found.conflict, label %for.body4.us.preheader, label %vector.ph, !dbg !3532

vector.ph:                                        ; preds = %vector.memcheck
  br i1 %10, label %middle.block.unr-lcssa, label %vector.body, !dbg !3532

vector.body:                                      ; preds = %vector.body, %vector.ph
  %index = phi i64 [ %index.next.1, %vector.body ], [ 0, %vector.ph ], !dbg !3533
  %niter = phi i64 [ %niter.nsub.1, %vector.body ], [ %unroll_iter, %vector.ph ]
  %13 = getelementptr inbounds float, float* %11, i64 %index, !dbg !3534
  %14 = bitcast float* %13 to <4 x float>*, !dbg !3534
  %wide.load = load <4 x float>, <4 x float>* %14, align 4, !dbg !3534, !tbaa !3471, !alias.scope !3535
  %15 = getelementptr inbounds float, float* %13, i64 4, !dbg !3534
  %16 = bitcast float* %15 to <4 x float>*, !dbg !3534
  %wide.load35 = load <4 x float>, <4 x float>* %16, align 4, !dbg !3534, !tbaa !3471, !alias.scope !3535
  %17 = getelementptr inbounds float, float* %12, i64 %index, !dbg !3538
  %18 = bitcast float* %17 to <4 x float>*, !dbg !3539
  %wide.load36 = load <4 x float>, <4 x float>* %18, align 4, !dbg !3539, !tbaa !3471, !alias.scope !3540, !noalias !3535
  %19 = getelementptr inbounds float, float* %17, i64 4, !dbg !3539
  %20 = bitcast float* %19 to <4 x float>*, !dbg !3539
  %wide.load37 = load <4 x float>, <4 x float>* %20, align 4, !dbg !3539, !tbaa !3471, !alias.scope !3540, !noalias !3535
  %21 = fsub <4 x float> %wide.load36, %wide.load, !dbg !3539
  %22 = fsub <4 x float> %wide.load37, %wide.load35, !dbg !3539
  %23 = bitcast float* %17 to <4 x float>*, !dbg !3539
  store <4 x float> %21, <4 x float>* %23, align 4, !dbg !3539, !tbaa !3471, !alias.scope !3540, !noalias !3535
  %24 = bitcast float* %19 to <4 x float>*, !dbg !3539
  store <4 x float> %22, <4 x float>* %24, align 4, !dbg !3539, !tbaa !3471, !alias.scope !3540, !noalias !3535
  %index.next = or i64 %index, 8, !dbg !3533
  %25 = getelementptr inbounds float, float* %11, i64 %index.next, !dbg !3534
  %26 = bitcast float* %25 to <4 x float>*, !dbg !3534
  %wide.load.1 = load <4 x float>, <4 x float>* %26, align 4, !dbg !3534, !tbaa !3471, !alias.scope !3535
  %27 = getelementptr inbounds float, float* %25, i64 4, !dbg !3534
  %28 = bitcast float* %27 to <4 x float>*, !dbg !3534
  %wide.load35.1 = load <4 x float>, <4 x float>* %28, align 4, !dbg !3534, !tbaa !3471, !alias.scope !3535
  %29 = getelementptr inbounds float, float* %12, i64 %index.next, !dbg !3538
  %30 = bitcast float* %29 to <4 x float>*, !dbg !3539
  %wide.load36.1 = load <4 x float>, <4 x float>* %30, align 4, !dbg !3539, !tbaa !3471, !alias.scope !3540, !noalias !3535
  %31 = getelementptr inbounds float, float* %29, i64 4, !dbg !3539
  %32 = bitcast float* %31 to <4 x float>*, !dbg !3539
  %wide.load37.1 = load <4 x float>, <4 x float>* %32, align 4, !dbg !3539, !tbaa !3471, !alias.scope !3540, !noalias !3535
  %33 = fsub <4 x float> %wide.load36.1, %wide.load.1, !dbg !3539
  %34 = fsub <4 x float> %wide.load37.1, %wide.load35.1, !dbg !3539
  %35 = bitcast float* %29 to <4 x float>*, !dbg !3539
  store <4 x float> %33, <4 x float>* %35, align 4, !dbg !3539, !tbaa !3471, !alias.scope !3540, !noalias !3535
  %36 = bitcast float* %31 to <4 x float>*, !dbg !3539
  store <4 x float> %34, <4 x float>* %36, align 4, !dbg !3539, !tbaa !3471, !alias.scope !3540, !noalias !3535
  %index.next.1 = add i64 %index, 16, !dbg !3533
  %niter.nsub.1 = add i64 %niter, -2, !dbg !3533
  %niter.ncmp.1 = icmp eq i64 %niter.nsub.1, 0, !dbg !3533
  br i1 %niter.ncmp.1, label %middle.block.unr-lcssa, label %vector.body, !dbg !3533, !llvm.loop !3542

middle.block.unr-lcssa:                           ; preds = %vector.body, %vector.ph
  %index.unr = phi i64 [ 0, %vector.ph ], [ %index.next.1, %vector.body ]
  br i1 %lcmp.mod, label %middle.block, label %vector.body.epil, !dbg !3533

vector.body.epil:                                 ; preds = %middle.block.unr-lcssa
  %37 = getelementptr inbounds float, float* %11, i64 %index.unr, !dbg !3534
  %38 = bitcast float* %37 to <4 x float>*, !dbg !3534
  %wide.load.epil = load <4 x float>, <4 x float>* %38, align 4, !dbg !3534, !tbaa !3471, !alias.scope !3535
  %39 = getelementptr inbounds float, float* %37, i64 4, !dbg !3534
  %40 = bitcast float* %39 to <4 x float>*, !dbg !3534
  %wide.load35.epil = load <4 x float>, <4 x float>* %40, align 4, !dbg !3534, !tbaa !3471, !alias.scope !3535
  %41 = getelementptr inbounds float, float* %12, i64 %index.unr, !dbg !3538
  %42 = bitcast float* %41 to <4 x float>*, !dbg !3539
  %wide.load36.epil = load <4 x float>, <4 x float>* %42, align 4, !dbg !3539, !tbaa !3471, !alias.scope !3540, !noalias !3535
  %43 = getelementptr inbounds float, float* %41, i64 4, !dbg !3539
  %44 = bitcast float* %43 to <4 x float>*, !dbg !3539
  %wide.load37.epil = load <4 x float>, <4 x float>* %44, align 4, !dbg !3539, !tbaa !3471, !alias.scope !3540, !noalias !3535
  %45 = fsub <4 x float> %wide.load36.epil, %wide.load.epil, !dbg !3539
  %46 = fsub <4 x float> %wide.load37.epil, %wide.load35.epil, !dbg !3539
  %47 = bitcast float* %41 to <4 x float>*, !dbg !3539
  store <4 x float> %45, <4 x float>* %47, align 4, !dbg !3539, !tbaa !3471, !alias.scope !3540, !noalias !3535
  %48 = bitcast float* %43 to <4 x float>*, !dbg !3539
  store <4 x float> %46, <4 x float>* %48, align 4, !dbg !3539, !tbaa !3471, !alias.scope !3540, !noalias !3535
  br label %middle.block, !dbg !3532

middle.block:                                     ; preds = %vector.body.epil, %middle.block.unr-lcssa
  br i1 %cmp.n, label %for.cond2.for.inc10_crit_edge.us, label %for.body4.us.preheader, !dbg !3532

for.body4.us.preheader:                           ; preds = %middle.block, %vector.memcheck, %for.cond2.preheader.us
  %indvars.iv.ph = phi i64 [ 0, %vector.memcheck ], [ 0, %for.cond2.preheader.us ], [ %n.vec, %middle.block ]
  br label %for.body4.us, !dbg !3532

for.body4.us:                                     ; preds = %for.body4.us, %for.body4.us.preheader
  %indvars.iv = phi i64 [ %indvars.iv.next, %for.body4.us ], [ %indvars.iv.ph, %for.body4.us.preheader ]
  call void @llvm.dbg.value(metadata i64 %indvars.iv, metadata !3500, metadata !DIExpression()), !dbg !3501
  call void @llvm.dbg.value(metadata %class.CBFormat* %bf, metadata !3255, metadata !DIExpression(DW_OP_plus_uconst, 56, DW_OP_stack_value)), !dbg !3529
  call void @llvm.dbg.value(metadata i64 %indvars.iv29, metadata !3258, metadata !DIExpression()), !dbg !3529
  call void @llvm.dbg.value(metadata %class.CBFormat* %bf, metadata !3262, metadata !DIExpression(DW_OP_plus_uconst, 56, DW_OP_stack_value)), !dbg !3519
  call void @llvm.dbg.value(metadata %class.CBFormat* %bf, metadata !3304, metadata !DIExpression(DW_OP_plus_uconst, 56, DW_OP_stack_value)), !dbg !3544
  call void @llvm.dbg.value(metadata %class.CBFormat* %bf, metadata !3320, metadata !DIExpression(DW_OP_plus_uconst, 56, DW_OP_stack_value)), !dbg !3545
  call void @llvm.dbg.value(metadata %class.CBFormat* %bf, metadata !3327, metadata !DIExpression(DW_OP_plus_uconst, 56, DW_OP_stack_value)), !dbg !3546
  call void @llvm.dbg.value(metadata %class.CBFormat* %bf, metadata !3332, metadata !DIExpression(DW_OP_plus_uconst, 56, DW_OP_stack_value)), !dbg !3511
  %arrayidx.us = getelementptr inbounds float, float* %11, i64 %indvars.iv, !dbg !3534
  %49 = load float, float* %arrayidx.us, align 4, !dbg !3534, !tbaa !3471
  call void @llvm.dbg.value(metadata %class.CBFormat* %this, metadata !3255, metadata !DIExpression(DW_OP_plus_uconst, 56, DW_OP_stack_value)), !dbg !3531
  call void @llvm.dbg.value(metadata i64 %indvars.iv29, metadata !3258, metadata !DIExpression()), !dbg !3531
  call void @llvm.dbg.value(metadata %class.CBFormat* %this, metadata !3262, metadata !DIExpression(DW_OP_plus_uconst, 56, DW_OP_stack_value)), !dbg !3527
  call void @llvm.dbg.value(metadata %class.CBFormat* %this, metadata !3304, metadata !DIExpression(DW_OP_plus_uconst, 56, DW_OP_stack_value)), !dbg !3547
  call void @llvm.dbg.value(metadata %class.CBFormat* %this, metadata !3320, metadata !DIExpression(DW_OP_plus_uconst, 56, DW_OP_stack_value)), !dbg !3548
  call void @llvm.dbg.value(metadata %class.CBFormat* %this, metadata !3327, metadata !DIExpression(DW_OP_plus_uconst, 56, DW_OP_stack_value)), !dbg !3549
  call void @llvm.dbg.value(metadata %class.CBFormat* %this, metadata !3332, metadata !DIExpression(DW_OP_plus_uconst, 56, DW_OP_stack_value)), !dbg !3520
  %arrayidx9.us = getelementptr inbounds float, float* %12, i64 %indvars.iv, !dbg !3538
  %50 = load float, float* %arrayidx9.us, align 4, !dbg !3539, !tbaa !3471
  %sub.us = fsub float %50, %49, !dbg !3539
  store float %sub.us, float* %arrayidx9.us, align 4, !dbg !3539, !tbaa !3471
  %indvars.iv.next = add nuw nsw i64 %indvars.iv, 1, !dbg !3533
  call void @llvm.dbg.value(metadata i32 undef, metadata !3500, metadata !DIExpression(DW_OP_plus_uconst, 1, DW_OP_stack_value)), !dbg !3501
  %cmp3.us = icmp ult i64 %indvars.iv.next, %5, !dbg !3550
  br i1 %cmp3.us, label %for.body4.us, label %for.cond2.for.inc10_crit_edge.us, !dbg !3532, !llvm.loop !3551

for.cond2.for.inc10_crit_edge.us:                 ; preds = %for.body4.us, %middle.block
  %indvars.iv.next30 = add nuw nsw i64 %indvars.iv29, 1, !dbg !3552
  call void @llvm.dbg.value(metadata i32 undef, metadata !3499, metadata !DIExpression(DW_OP_plus_uconst, 1, DW_OP_stack_value)), !dbg !3501
  %cmp.us = icmp ult i64 %indvars.iv.next30, %4, !dbg !3505
  br i1 %cmp.us, label %for.cond2.preheader.us, label %for.end12, !dbg !3506, !llvm.loop !3553

for.end12:                                        ; preds = %for.cond2.for.inc10_crit_edge.us, %for.cond2.preheader.lr.ph, %entry
  ret %class.CBFormat* %this, !dbg !3555
}

; Function Attrs: nofree norecurse nounwind uwtable
define dereferenceable(64) %class.CBFormat* @_ZN8CBFormatmLERKS_(%class.CBFormat* readonly returned %this, %class.CBFormat* nocapture readonly dereferenceable(64) %bf) local_unnamed_addr #11 align 2 !dbg !3556 {
entry:
  call void @llvm.dbg.value(metadata %class.CBFormat* %this, metadata !3558, metadata !DIExpression()), !dbg !3562
  call void @llvm.dbg.value(metadata %class.CBFormat* %bf, metadata !3559, metadata !DIExpression()), !dbg !3562
  call void @llvm.dbg.value(metadata i32 0, metadata !3560, metadata !DIExpression()), !dbg !3562
  call void @llvm.dbg.value(metadata i32 0, metadata !3561, metadata !DIExpression()), !dbg !3562
  call void @llvm.dbg.value(metadata i32 0, metadata !3560, metadata !DIExpression()), !dbg !3562
  %0 = getelementptr inbounds %class.CBFormat, %class.CBFormat* %this, i64 0, i32 0, i32 4, !dbg !3563
  %1 = load i32, i32* %0, align 8, !dbg !3563, !tbaa !3060
  %cmp25 = icmp eq i32 %1, 0, !dbg !3566
  br i1 %cmp25, label %for.end12, label %for.cond2.preheader.lr.ph, !dbg !3567

for.cond2.preheader.lr.ph:                        ; preds = %entry
  %m_nSamples = getelementptr inbounds %class.CBFormat, %class.CBFormat* %this, i64 0, i32 1, !dbg !3568
  %2 = load i32, i32* %m_nSamples, align 8, !dbg !3568, !tbaa !3119
  %cmp323 = icmp eq i32 %2, 0, !dbg !3568
  %_M_head_impl.i.i.i.i.i.i = getelementptr inbounds %class.CBFormat, %class.CBFormat* %bf, i64 0, i32 4, i32 0, i32 0, i32 0, i32 0, !dbg !3572
  %3 = load float**, float*** %_M_head_impl.i.i.i.i.i.i, align 8, !dbg !3580
  br i1 %cmp323, label %for.end12, label %for.cond2.preheader.us.preheader, !dbg !3567

for.cond2.preheader.us.preheader:                 ; preds = %for.cond2.preheader.lr.ph
  %_M_head_impl.i.i.i.i.i.i21 = getelementptr inbounds %class.CBFormat, %class.CBFormat* %this, i64 0, i32 4, i32 0, i32 0, i32 0, i32 0, !dbg !3581
  %4 = zext i32 %1 to i64, !dbg !3567
  %.pre = load float**, float*** %_M_head_impl.i.i.i.i.i.i21, align 8, !dbg !3588, !tbaa !3224
  %5 = zext i32 %2 to i64, !dbg !3589
  %6 = and i64 %5, 4294967288, !dbg !3567
  %7 = add nsw i64 %6, -8, !dbg !3567
  %8 = lshr exact i64 %7, 3, !dbg !3567
  %9 = add nuw nsw i64 %8, 1, !dbg !3567
  %min.iters.check = icmp ult i32 %2, 8, !dbg !3589
  %n.vec = and i64 %5, 4294967288, !dbg !3589
  %xtraiter = and i64 %9, 1, !dbg !3589
  %10 = icmp eq i64 %7, 0, !dbg !3589
  %unroll_iter = sub nuw nsw i64 %9, %xtraiter, !dbg !3589
  %lcmp.mod = icmp eq i64 %xtraiter, 0, !dbg !3568
  %cmp.n = icmp eq i64 %n.vec, %5, !dbg !3589
  br label %for.cond2.preheader.us, !dbg !3567

for.cond2.preheader.us:                           ; preds = %for.cond2.for.inc10_crit_edge.us, %for.cond2.preheader.us.preheader
  %indvars.iv29 = phi i64 [ 0, %for.cond2.preheader.us.preheader ], [ %indvars.iv.next30, %for.cond2.for.inc10_crit_edge.us ]
  call void @llvm.dbg.value(metadata i64 %indvars.iv29, metadata !3560, metadata !DIExpression()), !dbg !3562
  call void @llvm.dbg.value(metadata i32 0, metadata !3561, metadata !DIExpression()), !dbg !3562
  %arrayidx.i.us = getelementptr inbounds float*, float** %3, i64 %indvars.iv29, !dbg !3590
  %11 = load float*, float** %arrayidx.i.us, align 8, !dbg !3591, !tbaa !3224
  %arrayidx.i22.us = getelementptr inbounds float*, float** %.pre, i64 %indvars.iv29, !dbg !3592
  %12 = load float*, float** %arrayidx.i22.us, align 8, !dbg !3591, !tbaa !3224
  br i1 %min.iters.check, label %for.body4.us.preheader, label %vector.memcheck, !dbg !3593

vector.memcheck:                                  ; preds = %for.cond2.preheader.us
  %scevgep = getelementptr float, float* %12, i64 %5, !dbg !3593
  %scevgep32 = getelementptr float, float* %11, i64 %5, !dbg !3593
  %bound0 = icmp ult float* %12, %scevgep32, !dbg !3593
  %bound1 = icmp ult float* %11, %scevgep, !dbg !3593
  %found.conflict = and i1 %bound0, %bound1, !dbg !3593
  br i1 %found.conflict, label %for.body4.us.preheader, label %vector.ph, !dbg !3593

vector.ph:                                        ; preds = %vector.memcheck
  br i1 %10, label %middle.block.unr-lcssa, label %vector.body, !dbg !3593

vector.body:                                      ; preds = %vector.body, %vector.ph
  %index = phi i64 [ %index.next.1, %vector.body ], [ 0, %vector.ph ], !dbg !3594
  %niter = phi i64 [ %niter.nsub.1, %vector.body ], [ %unroll_iter, %vector.ph ]
  %13 = getelementptr inbounds float, float* %11, i64 %index, !dbg !3595
  %14 = bitcast float* %13 to <4 x float>*, !dbg !3595
  %wide.load = load <4 x float>, <4 x float>* %14, align 4, !dbg !3595, !tbaa !3471, !alias.scope !3596
  %15 = getelementptr inbounds float, float* %13, i64 4, !dbg !3595
  %16 = bitcast float* %15 to <4 x float>*, !dbg !3595
  %wide.load35 = load <4 x float>, <4 x float>* %16, align 4, !dbg !3595, !tbaa !3471, !alias.scope !3596
  %17 = getelementptr inbounds float, float* %12, i64 %index, !dbg !3599
  %18 = bitcast float* %17 to <4 x float>*, !dbg !3600
  %wide.load36 = load <4 x float>, <4 x float>* %18, align 4, !dbg !3600, !tbaa !3471, !alias.scope !3601, !noalias !3596
  %19 = getelementptr inbounds float, float* %17, i64 4, !dbg !3600
  %20 = bitcast float* %19 to <4 x float>*, !dbg !3600
  %wide.load37 = load <4 x float>, <4 x float>* %20, align 4, !dbg !3600, !tbaa !3471, !alias.scope !3601, !noalias !3596
  %21 = fmul <4 x float> %wide.load, %wide.load36, !dbg !3600
  %22 = fmul <4 x float> %wide.load35, %wide.load37, !dbg !3600
  %23 = bitcast float* %17 to <4 x float>*, !dbg !3600
  store <4 x float> %21, <4 x float>* %23, align 4, !dbg !3600, !tbaa !3471, !alias.scope !3601, !noalias !3596
  %24 = bitcast float* %19 to <4 x float>*, !dbg !3600
  store <4 x float> %22, <4 x float>* %24, align 4, !dbg !3600, !tbaa !3471, !alias.scope !3601, !noalias !3596
  %index.next = or i64 %index, 8, !dbg !3594
  %25 = getelementptr inbounds float, float* %11, i64 %index.next, !dbg !3595
  %26 = bitcast float* %25 to <4 x float>*, !dbg !3595
  %wide.load.1 = load <4 x float>, <4 x float>* %26, align 4, !dbg !3595, !tbaa !3471, !alias.scope !3596
  %27 = getelementptr inbounds float, float* %25, i64 4, !dbg !3595
  %28 = bitcast float* %27 to <4 x float>*, !dbg !3595
  %wide.load35.1 = load <4 x float>, <4 x float>* %28, align 4, !dbg !3595, !tbaa !3471, !alias.scope !3596
  %29 = getelementptr inbounds float, float* %12, i64 %index.next, !dbg !3599
  %30 = bitcast float* %29 to <4 x float>*, !dbg !3600
  %wide.load36.1 = load <4 x float>, <4 x float>* %30, align 4, !dbg !3600, !tbaa !3471, !alias.scope !3601, !noalias !3596
  %31 = getelementptr inbounds float, float* %29, i64 4, !dbg !3600
  %32 = bitcast float* %31 to <4 x float>*, !dbg !3600
  %wide.load37.1 = load <4 x float>, <4 x float>* %32, align 4, !dbg !3600, !tbaa !3471, !alias.scope !3601, !noalias !3596
  %33 = fmul <4 x float> %wide.load.1, %wide.load36.1, !dbg !3600
  %34 = fmul <4 x float> %wide.load35.1, %wide.load37.1, !dbg !3600
  %35 = bitcast float* %29 to <4 x float>*, !dbg !3600
  store <4 x float> %33, <4 x float>* %35, align 4, !dbg !3600, !tbaa !3471, !alias.scope !3601, !noalias !3596
  %36 = bitcast float* %31 to <4 x float>*, !dbg !3600
  store <4 x float> %34, <4 x float>* %36, align 4, !dbg !3600, !tbaa !3471, !alias.scope !3601, !noalias !3596
  %index.next.1 = add i64 %index, 16, !dbg !3594
  %niter.nsub.1 = add i64 %niter, -2, !dbg !3594
  %niter.ncmp.1 = icmp eq i64 %niter.nsub.1, 0, !dbg !3594
  br i1 %niter.ncmp.1, label %middle.block.unr-lcssa, label %vector.body, !dbg !3594, !llvm.loop !3603

middle.block.unr-lcssa:                           ; preds = %vector.body, %vector.ph
  %index.unr = phi i64 [ 0, %vector.ph ], [ %index.next.1, %vector.body ]
  br i1 %lcmp.mod, label %middle.block, label %vector.body.epil, !dbg !3594

vector.body.epil:                                 ; preds = %middle.block.unr-lcssa
  %37 = getelementptr inbounds float, float* %11, i64 %index.unr, !dbg !3595
  %38 = bitcast float* %37 to <4 x float>*, !dbg !3595
  %wide.load.epil = load <4 x float>, <4 x float>* %38, align 4, !dbg !3595, !tbaa !3471, !alias.scope !3596
  %39 = getelementptr inbounds float, float* %37, i64 4, !dbg !3595
  %40 = bitcast float* %39 to <4 x float>*, !dbg !3595
  %wide.load35.epil = load <4 x float>, <4 x float>* %40, align 4, !dbg !3595, !tbaa !3471, !alias.scope !3596
  %41 = getelementptr inbounds float, float* %12, i64 %index.unr, !dbg !3599
  %42 = bitcast float* %41 to <4 x float>*, !dbg !3600
  %wide.load36.epil = load <4 x float>, <4 x float>* %42, align 4, !dbg !3600, !tbaa !3471, !alias.scope !3601, !noalias !3596
  %43 = getelementptr inbounds float, float* %41, i64 4, !dbg !3600
  %44 = bitcast float* %43 to <4 x float>*, !dbg !3600
  %wide.load37.epil = load <4 x float>, <4 x float>* %44, align 4, !dbg !3600, !tbaa !3471, !alias.scope !3601, !noalias !3596
  %45 = fmul <4 x float> %wide.load.epil, %wide.load36.epil, !dbg !3600
  %46 = fmul <4 x float> %wide.load35.epil, %wide.load37.epil, !dbg !3600
  %47 = bitcast float* %41 to <4 x float>*, !dbg !3600
  store <4 x float> %45, <4 x float>* %47, align 4, !dbg !3600, !tbaa !3471, !alias.scope !3601, !noalias !3596
  %48 = bitcast float* %43 to <4 x float>*, !dbg !3600
  store <4 x float> %46, <4 x float>* %48, align 4, !dbg !3600, !tbaa !3471, !alias.scope !3601, !noalias !3596
  br label %middle.block, !dbg !3593

middle.block:                                     ; preds = %vector.body.epil, %middle.block.unr-lcssa
  br i1 %cmp.n, label %for.cond2.for.inc10_crit_edge.us, label %for.body4.us.preheader, !dbg !3593

for.body4.us.preheader:                           ; preds = %middle.block, %vector.memcheck, %for.cond2.preheader.us
  %indvars.iv.ph = phi i64 [ 0, %vector.memcheck ], [ 0, %for.cond2.preheader.us ], [ %n.vec, %middle.block ]
  br label %for.body4.us, !dbg !3593

for.body4.us:                                     ; preds = %for.body4.us, %for.body4.us.preheader
  %indvars.iv = phi i64 [ %indvars.iv.next, %for.body4.us ], [ %indvars.iv.ph, %for.body4.us.preheader ]
  call void @llvm.dbg.value(metadata i64 %indvars.iv, metadata !3561, metadata !DIExpression()), !dbg !3562
  call void @llvm.dbg.value(metadata %class.CBFormat* %bf, metadata !3255, metadata !DIExpression(DW_OP_plus_uconst, 56, DW_OP_stack_value)), !dbg !3590
  call void @llvm.dbg.value(metadata i64 %indvars.iv29, metadata !3258, metadata !DIExpression()), !dbg !3590
  call void @llvm.dbg.value(metadata %class.CBFormat* %bf, metadata !3262, metadata !DIExpression(DW_OP_plus_uconst, 56, DW_OP_stack_value)), !dbg !3580
  call void @llvm.dbg.value(metadata %class.CBFormat* %bf, metadata !3304, metadata !DIExpression(DW_OP_plus_uconst, 56, DW_OP_stack_value)), !dbg !3605
  call void @llvm.dbg.value(metadata %class.CBFormat* %bf, metadata !3320, metadata !DIExpression(DW_OP_plus_uconst, 56, DW_OP_stack_value)), !dbg !3606
  call void @llvm.dbg.value(metadata %class.CBFormat* %bf, metadata !3327, metadata !DIExpression(DW_OP_plus_uconst, 56, DW_OP_stack_value)), !dbg !3607
  call void @llvm.dbg.value(metadata %class.CBFormat* %bf, metadata !3332, metadata !DIExpression(DW_OP_plus_uconst, 56, DW_OP_stack_value)), !dbg !3572
  %arrayidx.us = getelementptr inbounds float, float* %11, i64 %indvars.iv, !dbg !3595
  %49 = load float, float* %arrayidx.us, align 4, !dbg !3595, !tbaa !3471
  call void @llvm.dbg.value(metadata %class.CBFormat* %this, metadata !3255, metadata !DIExpression(DW_OP_plus_uconst, 56, DW_OP_stack_value)), !dbg !3592
  call void @llvm.dbg.value(metadata i64 %indvars.iv29, metadata !3258, metadata !DIExpression()), !dbg !3592
  call void @llvm.dbg.value(metadata %class.CBFormat* %this, metadata !3262, metadata !DIExpression(DW_OP_plus_uconst, 56, DW_OP_stack_value)), !dbg !3588
  call void @llvm.dbg.value(metadata %class.CBFormat* %this, metadata !3304, metadata !DIExpression(DW_OP_plus_uconst, 56, DW_OP_stack_value)), !dbg !3608
  call void @llvm.dbg.value(metadata %class.CBFormat* %this, metadata !3320, metadata !DIExpression(DW_OP_plus_uconst, 56, DW_OP_stack_value)), !dbg !3609
  call void @llvm.dbg.value(metadata %class.CBFormat* %this, metadata !3327, metadata !DIExpression(DW_OP_plus_uconst, 56, DW_OP_stack_value)), !dbg !3610
  call void @llvm.dbg.value(metadata %class.CBFormat* %this, metadata !3332, metadata !DIExpression(DW_OP_plus_uconst, 56, DW_OP_stack_value)), !dbg !3581
  %arrayidx9.us = getelementptr inbounds float, float* %12, i64 %indvars.iv, !dbg !3599
  %50 = load float, float* %arrayidx9.us, align 4, !dbg !3600, !tbaa !3471
  %mul.us = fmul float %49, %50, !dbg !3600
  store float %mul.us, float* %arrayidx9.us, align 4, !dbg !3600, !tbaa !3471
  %indvars.iv.next = add nuw nsw i64 %indvars.iv, 1, !dbg !3594
  call void @llvm.dbg.value(metadata i32 undef, metadata !3561, metadata !DIExpression(DW_OP_plus_uconst, 1, DW_OP_stack_value)), !dbg !3562
  %cmp3.us = icmp ult i64 %indvars.iv.next, %5, !dbg !3611
  br i1 %cmp3.us, label %for.body4.us, label %for.cond2.for.inc10_crit_edge.us, !dbg !3593, !llvm.loop !3612

for.cond2.for.inc10_crit_edge.us:                 ; preds = %for.body4.us, %middle.block
  %indvars.iv.next30 = add nuw nsw i64 %indvars.iv29, 1, !dbg !3613
  call void @llvm.dbg.value(metadata i32 undef, metadata !3560, metadata !DIExpression(DW_OP_plus_uconst, 1, DW_OP_stack_value)), !dbg !3562
  %cmp.us = icmp ult i64 %indvars.iv.next30, %4, !dbg !3566
  br i1 %cmp.us, label %for.cond2.preheader.us, label %for.end12, !dbg !3567, !llvm.loop !3614

for.end12:                                        ; preds = %for.cond2.for.inc10_crit_edge.us, %for.cond2.preheader.lr.ph, %entry
  ret %class.CBFormat* %this, !dbg !3616
}

; Function Attrs: nofree norecurse nounwind uwtable
define dereferenceable(64) %class.CBFormat* @_ZN8CBFormatdVERKS_(%class.CBFormat* readonly returned %this, %class.CBFormat* nocapture readonly dereferenceable(64) %bf) local_unnamed_addr #11 align 2 !dbg !3617 {
entry:
  call void @llvm.dbg.value(metadata %class.CBFormat* %this, metadata !3619, metadata !DIExpression()), !dbg !3623
  call void @llvm.dbg.value(metadata %class.CBFormat* %bf, metadata !3620, metadata !DIExpression()), !dbg !3623
  call void @llvm.dbg.value(metadata i32 0, metadata !3621, metadata !DIExpression()), !dbg !3623
  call void @llvm.dbg.value(metadata i32 0, metadata !3622, metadata !DIExpression()), !dbg !3623
  call void @llvm.dbg.value(metadata i32 0, metadata !3621, metadata !DIExpression()), !dbg !3623
  %0 = getelementptr inbounds %class.CBFormat, %class.CBFormat* %this, i64 0, i32 0, i32 4, !dbg !3624
  %1 = load i32, i32* %0, align 8, !dbg !3624, !tbaa !3060
  %cmp25 = icmp eq i32 %1, 0, !dbg !3627
  br i1 %cmp25, label %for.end12, label %for.cond2.preheader.lr.ph, !dbg !3628

for.cond2.preheader.lr.ph:                        ; preds = %entry
  %m_nSamples = getelementptr inbounds %class.CBFormat, %class.CBFormat* %this, i64 0, i32 1, !dbg !3629
  %2 = load i32, i32* %m_nSamples, align 8, !dbg !3629, !tbaa !3119
  %cmp323 = icmp eq i32 %2, 0, !dbg !3629
  %_M_head_impl.i.i.i.i.i.i = getelementptr inbounds %class.CBFormat, %class.CBFormat* %bf, i64 0, i32 4, i32 0, i32 0, i32 0, i32 0, !dbg !3633
  %3 = load float**, float*** %_M_head_impl.i.i.i.i.i.i, align 8, !dbg !3641
  br i1 %cmp323, label %for.end12, label %for.cond2.preheader.us.preheader, !dbg !3628

for.cond2.preheader.us.preheader:                 ; preds = %for.cond2.preheader.lr.ph
  %_M_head_impl.i.i.i.i.i.i21 = getelementptr inbounds %class.CBFormat, %class.CBFormat* %this, i64 0, i32 4, i32 0, i32 0, i32 0, i32 0, !dbg !3642
  %4 = zext i32 %1 to i64, !dbg !3628
  %.pre = load float**, float*** %_M_head_impl.i.i.i.i.i.i21, align 8, !dbg !3649, !tbaa !3224
  %5 = zext i32 %2 to i64, !dbg !3650
  %6 = and i64 %5, 4294967292, !dbg !3628
  %7 = add nsw i64 %6, -4, !dbg !3628
  %8 = lshr exact i64 %7, 2, !dbg !3628
  %9 = add nuw nsw i64 %8, 1, !dbg !3628
  %min.iters.check = icmp ult i32 %2, 4, !dbg !3650
  %n.vec = and i64 %5, 4294967292, !dbg !3650
  %xtraiter = and i64 %9, 1, !dbg !3650
  %10 = icmp eq i64 %7, 0, !dbg !3650
  %unroll_iter = sub nuw nsw i64 %9, %xtraiter, !dbg !3650
  %lcmp.mod = icmp eq i64 %xtraiter, 0, !dbg !3629
  %cmp.n = icmp eq i64 %n.vec, %5, !dbg !3650
  br label %for.cond2.preheader.us, !dbg !3628

for.cond2.preheader.us:                           ; preds = %for.cond2.for.inc10_crit_edge.us, %for.cond2.preheader.us.preheader
  %indvars.iv29 = phi i64 [ 0, %for.cond2.preheader.us.preheader ], [ %indvars.iv.next30, %for.cond2.for.inc10_crit_edge.us ]
  call void @llvm.dbg.value(metadata i64 %indvars.iv29, metadata !3621, metadata !DIExpression()), !dbg !3623
  call void @llvm.dbg.value(metadata i32 0, metadata !3622, metadata !DIExpression()), !dbg !3623
  %arrayidx.i.us = getelementptr inbounds float*, float** %3, i64 %indvars.iv29, !dbg !3651
  %11 = load float*, float** %arrayidx.i.us, align 8, !dbg !3652, !tbaa !3224
  %arrayidx.i22.us = getelementptr inbounds float*, float** %.pre, i64 %indvars.iv29, !dbg !3653
  %12 = load float*, float** %arrayidx.i22.us, align 8, !dbg !3652, !tbaa !3224
  br i1 %min.iters.check, label %for.body4.us.preheader, label %vector.memcheck, !dbg !3654

vector.memcheck:                                  ; preds = %for.cond2.preheader.us
  %scevgep = getelementptr float, float* %12, i64 %5, !dbg !3654
  %scevgep32 = getelementptr float, float* %11, i64 %5, !dbg !3654
  %bound0 = icmp ult float* %12, %scevgep32, !dbg !3654
  %bound1 = icmp ult float* %11, %scevgep, !dbg !3654
  %found.conflict = and i1 %bound0, %bound1, !dbg !3654
  br i1 %found.conflict, label %for.body4.us.preheader, label %vector.ph, !dbg !3654

vector.ph:                                        ; preds = %vector.memcheck
  br i1 %10, label %middle.block.unr-lcssa, label %vector.body, !dbg !3654

vector.body:                                      ; preds = %vector.body, %vector.ph
  %index = phi i64 [ %index.next.1, %vector.body ], [ 0, %vector.ph ], !dbg !3655
  %niter = phi i64 [ %niter.nsub.1, %vector.body ], [ %unroll_iter, %vector.ph ]
  %13 = getelementptr inbounds float, float* %11, i64 %index, !dbg !3656
  %14 = bitcast float* %13 to <4 x float>*, !dbg !3656
  %wide.load = load <4 x float>, <4 x float>* %14, align 4, !dbg !3656, !tbaa !3471, !alias.scope !3657
  %15 = getelementptr inbounds float, float* %12, i64 %index, !dbg !3660
  %16 = bitcast float* %15 to <4 x float>*, !dbg !3661
  %wide.load34 = load <4 x float>, <4 x float>* %16, align 4, !dbg !3661, !tbaa !3471, !alias.scope !3662, !noalias !3657
  %17 = fdiv <4 x float> %wide.load34, %wide.load, !dbg !3661
  %18 = bitcast float* %15 to <4 x float>*, !dbg !3661
  store <4 x float> %17, <4 x float>* %18, align 4, !dbg !3661, !tbaa !3471, !alias.scope !3662, !noalias !3657
  %index.next = or i64 %index, 4, !dbg !3655
  %19 = getelementptr inbounds float, float* %11, i64 %index.next, !dbg !3656
  %20 = bitcast float* %19 to <4 x float>*, !dbg !3656
  %wide.load.1 = load <4 x float>, <4 x float>* %20, align 4, !dbg !3656, !tbaa !3471, !alias.scope !3657
  %21 = getelementptr inbounds float, float* %12, i64 %index.next, !dbg !3660
  %22 = bitcast float* %21 to <4 x float>*, !dbg !3661
  %wide.load34.1 = load <4 x float>, <4 x float>* %22, align 4, !dbg !3661, !tbaa !3471, !alias.scope !3662, !noalias !3657
  %23 = fdiv <4 x float> %wide.load34.1, %wide.load.1, !dbg !3661
  %24 = bitcast float* %21 to <4 x float>*, !dbg !3661
  store <4 x float> %23, <4 x float>* %24, align 4, !dbg !3661, !tbaa !3471, !alias.scope !3662, !noalias !3657
  %index.next.1 = add i64 %index, 8, !dbg !3655
  %niter.nsub.1 = add i64 %niter, -2, !dbg !3655
  %niter.ncmp.1 = icmp eq i64 %niter.nsub.1, 0, !dbg !3655
  br i1 %niter.ncmp.1, label %middle.block.unr-lcssa, label %vector.body, !dbg !3655, !llvm.loop !3664

middle.block.unr-lcssa:                           ; preds = %vector.body, %vector.ph
  %index.unr = phi i64 [ 0, %vector.ph ], [ %index.next.1, %vector.body ]
  br i1 %lcmp.mod, label %middle.block, label %vector.body.epil, !dbg !3655

vector.body.epil:                                 ; preds = %middle.block.unr-lcssa
  %25 = getelementptr inbounds float, float* %11, i64 %index.unr, !dbg !3656
  %26 = bitcast float* %25 to <4 x float>*, !dbg !3656
  %wide.load.epil = load <4 x float>, <4 x float>* %26, align 4, !dbg !3656, !tbaa !3471, !alias.scope !3657
  %27 = getelementptr inbounds float, float* %12, i64 %index.unr, !dbg !3660
  %28 = bitcast float* %27 to <4 x float>*, !dbg !3661
  %wide.load34.epil = load <4 x float>, <4 x float>* %28, align 4, !dbg !3661, !tbaa !3471, !alias.scope !3662, !noalias !3657
  %29 = fdiv <4 x float> %wide.load34.epil, %wide.load.epil, !dbg !3661
  %30 = bitcast float* %27 to <4 x float>*, !dbg !3661
  store <4 x float> %29, <4 x float>* %30, align 4, !dbg !3661, !tbaa !3471, !alias.scope !3662, !noalias !3657
  br label %middle.block, !dbg !3654

middle.block:                                     ; preds = %vector.body.epil, %middle.block.unr-lcssa
  br i1 %cmp.n, label %for.cond2.for.inc10_crit_edge.us, label %for.body4.us.preheader, !dbg !3654

for.body4.us.preheader:                           ; preds = %middle.block, %vector.memcheck, %for.cond2.preheader.us
  %indvars.iv.ph = phi i64 [ 0, %vector.memcheck ], [ 0, %for.cond2.preheader.us ], [ %n.vec, %middle.block ]
  br label %for.body4.us, !dbg !3654

for.body4.us:                                     ; preds = %for.body4.us, %for.body4.us.preheader
  %indvars.iv = phi i64 [ %indvars.iv.next, %for.body4.us ], [ %indvars.iv.ph, %for.body4.us.preheader ]
  call void @llvm.dbg.value(metadata i64 %indvars.iv, metadata !3622, metadata !DIExpression()), !dbg !3623
  call void @llvm.dbg.value(metadata %class.CBFormat* %bf, metadata !3255, metadata !DIExpression(DW_OP_plus_uconst, 56, DW_OP_stack_value)), !dbg !3651
  call void @llvm.dbg.value(metadata i64 %indvars.iv29, metadata !3258, metadata !DIExpression()), !dbg !3651
  call void @llvm.dbg.value(metadata %class.CBFormat* %bf, metadata !3262, metadata !DIExpression(DW_OP_plus_uconst, 56, DW_OP_stack_value)), !dbg !3641
  call void @llvm.dbg.value(metadata %class.CBFormat* %bf, metadata !3304, metadata !DIExpression(DW_OP_plus_uconst, 56, DW_OP_stack_value)), !dbg !3666
  call void @llvm.dbg.value(metadata %class.CBFormat* %bf, metadata !3320, metadata !DIExpression(DW_OP_plus_uconst, 56, DW_OP_stack_value)), !dbg !3667
  call void @llvm.dbg.value(metadata %class.CBFormat* %bf, metadata !3327, metadata !DIExpression(DW_OP_plus_uconst, 56, DW_OP_stack_value)), !dbg !3668
  call void @llvm.dbg.value(metadata %class.CBFormat* %bf, metadata !3332, metadata !DIExpression(DW_OP_plus_uconst, 56, DW_OP_stack_value)), !dbg !3633
  %arrayidx.us = getelementptr inbounds float, float* %11, i64 %indvars.iv, !dbg !3656
  %31 = load float, float* %arrayidx.us, align 4, !dbg !3656, !tbaa !3471
  call void @llvm.dbg.value(metadata %class.CBFormat* %this, metadata !3255, metadata !DIExpression(DW_OP_plus_uconst, 56, DW_OP_stack_value)), !dbg !3653
  call void @llvm.dbg.value(metadata i64 %indvars.iv29, metadata !3258, metadata !DIExpression()), !dbg !3653
  call void @llvm.dbg.value(metadata %class.CBFormat* %this, metadata !3262, metadata !DIExpression(DW_OP_plus_uconst, 56, DW_OP_stack_value)), !dbg !3649
  call void @llvm.dbg.value(metadata %class.CBFormat* %this, metadata !3304, metadata !DIExpression(DW_OP_plus_uconst, 56, DW_OP_stack_value)), !dbg !3669
  call void @llvm.dbg.value(metadata %class.CBFormat* %this, metadata !3320, metadata !DIExpression(DW_OP_plus_uconst, 56, DW_OP_stack_value)), !dbg !3670
  call void @llvm.dbg.value(metadata %class.CBFormat* %this, metadata !3327, metadata !DIExpression(DW_OP_plus_uconst, 56, DW_OP_stack_value)), !dbg !3671
  call void @llvm.dbg.value(metadata %class.CBFormat* %this, metadata !3332, metadata !DIExpression(DW_OP_plus_uconst, 56, DW_OP_stack_value)), !dbg !3642
  %arrayidx9.us = getelementptr inbounds float, float* %12, i64 %indvars.iv, !dbg !3660
  %32 = load float, float* %arrayidx9.us, align 4, !dbg !3661, !tbaa !3471
  %div.us = fdiv float %32, %31, !dbg !3661
  store float %div.us, float* %arrayidx9.us, align 4, !dbg !3661, !tbaa !3471
  %indvars.iv.next = add nuw nsw i64 %indvars.iv, 1, !dbg !3655
  call void @llvm.dbg.value(metadata i32 undef, metadata !3622, metadata !DIExpression(DW_OP_plus_uconst, 1, DW_OP_stack_value)), !dbg !3623
  %cmp3.us = icmp ult i64 %indvars.iv.next, %5, !dbg !3672
  br i1 %cmp3.us, label %for.body4.us, label %for.cond2.for.inc10_crit_edge.us, !dbg !3654, !llvm.loop !3673

for.cond2.for.inc10_crit_edge.us:                 ; preds = %for.body4.us, %middle.block
  %indvars.iv.next30 = add nuw nsw i64 %indvars.iv29, 1, !dbg !3674
  call void @llvm.dbg.value(metadata i32 undef, metadata !3621, metadata !DIExpression(DW_OP_plus_uconst, 1, DW_OP_stack_value)), !dbg !3623
  %cmp.us = icmp ult i64 %indvars.iv.next30, %4, !dbg !3627
  br i1 %cmp.us, label %for.cond2.preheader.us, label %for.end12, !dbg !3628, !llvm.loop !3675

for.end12:                                        ; preds = %for.cond2.for.inc10_crit_edge.us, %for.cond2.preheader.lr.ph, %entry
  ret %class.CBFormat* %this, !dbg !3677
}

; Function Attrs: nofree norecurse nounwind uwtable
define dereferenceable(64) %class.CBFormat* @_ZN8CBFormatpLERKf(%class.CBFormat* readonly returned %this, float* nocapture readonly dereferenceable(4) %fValue) local_unnamed_addr #11 align 2 !dbg !3678 {
entry:
  call void @llvm.dbg.value(metadata %class.CBFormat* %this, metadata !3680, metadata !DIExpression()), !dbg !3684
  call void @llvm.dbg.value(metadata float* %fValue, metadata !3681, metadata !DIExpression()), !dbg !3684
  call void @llvm.dbg.value(metadata i32 0, metadata !3682, metadata !DIExpression()), !dbg !3684
  call void @llvm.dbg.value(metadata i32 0, metadata !3683, metadata !DIExpression()), !dbg !3684
  call void @llvm.dbg.value(metadata i32 0, metadata !3682, metadata !DIExpression()), !dbg !3684
  %fValue23 = bitcast float* %fValue to i8*
  %0 = getelementptr inbounds %class.CBFormat, %class.CBFormat* %this, i64 0, i32 0, i32 4, !dbg !3685
  %1 = load i32, i32* %0, align 8, !dbg !3685, !tbaa !3060
  %cmp16 = icmp eq i32 %1, 0, !dbg !3688
  br i1 %cmp16, label %for.end7, label %for.cond2.preheader.lr.ph, !dbg !3689

for.cond2.preheader.lr.ph:                        ; preds = %entry
  %m_nSamples = getelementptr inbounds %class.CBFormat, %class.CBFormat* %this, i64 0, i32 1, !dbg !3690
  %2 = load i32, i32* %m_nSamples, align 8, !dbg !3690, !tbaa !3119
  %cmp314 = icmp eq i32 %2, 0, !dbg !3690
  br i1 %cmp314, label %for.end7, label %for.cond2.preheader.us.preheader, !dbg !3689

for.cond2.preheader.us.preheader:                 ; preds = %for.cond2.preheader.lr.ph
  %_M_head_impl.i.i.i.i.i.i = getelementptr inbounds %class.CBFormat, %class.CBFormat* %this, i64 0, i32 4, i32 0, i32 0, i32 0, i32 0, !dbg !3694
  %3 = zext i32 %1 to i64, !dbg !3689
  %.pre = load float**, float*** %_M_head_impl.i.i.i.i.i.i, align 8, !dbg !3702, !tbaa !3224
  %4 = zext i32 %2 to i64, !dbg !3703
  %uglygep = getelementptr i8, i8* %fValue23, i64 1, !dbg !3689
  %5 = and i64 %4, 4294967288, !dbg !3689
  %6 = add nsw i64 %5, -8, !dbg !3689
  %7 = lshr exact i64 %6, 3, !dbg !3689
  %8 = add nuw nsw i64 %7, 1, !dbg !3689
  %min.iters.check = icmp ult i32 %2, 8, !dbg !3703
  %n.vec = and i64 %4, 4294967288, !dbg !3703
  %xtraiter = and i64 %8, 1, !dbg !3703
  %9 = icmp eq i64 %6, 0, !dbg !3703
  %unroll_iter = sub nuw nsw i64 %8, %xtraiter, !dbg !3703
  %lcmp.mod = icmp eq i64 %xtraiter, 0, !dbg !3690
  %cmp.n = icmp eq i64 %n.vec, %4, !dbg !3703
  br label %for.cond2.preheader.us, !dbg !3689

for.cond2.preheader.us:                           ; preds = %for.cond2.for.inc5_crit_edge.us, %for.cond2.preheader.us.preheader
  %indvars.iv20 = phi i64 [ 0, %for.cond2.preheader.us.preheader ], [ %indvars.iv.next21, %for.cond2.for.inc5_crit_edge.us ]
  call void @llvm.dbg.value(metadata i64 %indvars.iv20, metadata !3682, metadata !DIExpression()), !dbg !3684
  call void @llvm.dbg.value(metadata i32 0, metadata !3683, metadata !DIExpression()), !dbg !3684
  %arrayidx.i.us = getelementptr inbounds float*, float** %.pre, i64 %indvars.iv20, !dbg !3704
  %10 = load float*, float** %arrayidx.i.us, align 8, !dbg !3705, !tbaa !3224
  br i1 %min.iters.check, label %for.body4.us.preheader, label %vector.memcheck, !dbg !3706

vector.memcheck:                                  ; preds = %for.cond2.preheader.us
  %11 = bitcast float* %10 to i8*
  %scevgep = getelementptr float, float* %10, i64 %4, !dbg !3706
  %bound0 = icmp ugt i8* %uglygep, %11, !dbg !3706
  %bound1 = icmp ugt float* %scevgep, %fValue, !dbg !3706
  %found.conflict = and i1 %bound0, %bound1, !dbg !3706
  br i1 %found.conflict, label %for.body4.us.preheader, label %vector.ph, !dbg !3706

vector.ph:                                        ; preds = %vector.memcheck
  br i1 %9, label %middle.block.unr-lcssa, label %vector.ph.new, !dbg !3706

vector.ph.new:                                    ; preds = %vector.ph
  %12 = load float, float* %fValue, align 4, !dbg !3705, !tbaa !3471, !alias.scope !3707
  %13 = insertelement <4 x float> undef, float %12, i32 0, !dbg !3705
  %14 = shufflevector <4 x float> %13, <4 x float> undef, <4 x i32> zeroinitializer, !dbg !3705
  %15 = insertelement <4 x float> undef, float %12, i32 0, !dbg !3705
  %16 = shufflevector <4 x float> %15, <4 x float> undef, <4 x i32> zeroinitializer, !dbg !3705
  %17 = load float, float* %fValue, align 4, !dbg !3705, !tbaa !3471, !alias.scope !3707
  %18 = insertelement <4 x float> undef, float %17, i32 0, !dbg !3705
  %19 = shufflevector <4 x float> %18, <4 x float> undef, <4 x i32> zeroinitializer, !dbg !3705
  %20 = insertelement <4 x float> undef, float %17, i32 0, !dbg !3705
  %21 = shufflevector <4 x float> %20, <4 x float> undef, <4 x i32> zeroinitializer, !dbg !3705
  br label %vector.body, !dbg !3706

vector.body:                                      ; preds = %vector.body, %vector.ph.new
  %index = phi i64 [ 0, %vector.ph.new ], [ %index.next.1, %vector.body ], !dbg !3710
  %niter = phi i64 [ %unroll_iter, %vector.ph.new ], [ %niter.nsub.1, %vector.body ]
  %22 = getelementptr inbounds float, float* %10, i64 %index, !dbg !3711
  %23 = bitcast float* %22 to <4 x float>*, !dbg !3712
  %wide.load = load <4 x float>, <4 x float>* %23, align 4, !dbg !3712, !tbaa !3471, !alias.scope !3713, !noalias !3707
  %24 = getelementptr inbounds float, float* %22, i64 4, !dbg !3712
  %25 = bitcast float* %24 to <4 x float>*, !dbg !3712
  %wide.load25 = load <4 x float>, <4 x float>* %25, align 4, !dbg !3712, !tbaa !3471, !alias.scope !3713, !noalias !3707
  %26 = fadd <4 x float> %14, %wide.load, !dbg !3710
  %27 = fadd <4 x float> %16, %wide.load25, !dbg !3710
  %28 = bitcast float* %22 to <4 x float>*, !dbg !3712
  store <4 x float> %26, <4 x float>* %28, align 4, !dbg !3712, !tbaa !3471, !alias.scope !3713, !noalias !3707
  %29 = bitcast float* %24 to <4 x float>*, !dbg !3712
  store <4 x float> %27, <4 x float>* %29, align 4, !dbg !3712, !tbaa !3471, !alias.scope !3713, !noalias !3707
  %index.next = or i64 %index, 8, !dbg !3710
  %30 = getelementptr inbounds float, float* %10, i64 %index.next, !dbg !3711
  %31 = bitcast float* %30 to <4 x float>*, !dbg !3712
  %wide.load.1 = load <4 x float>, <4 x float>* %31, align 4, !dbg !3712, !tbaa !3471, !alias.scope !3713, !noalias !3707
  %32 = getelementptr inbounds float, float* %30, i64 4, !dbg !3712
  %33 = bitcast float* %32 to <4 x float>*, !dbg !3712
  %wide.load25.1 = load <4 x float>, <4 x float>* %33, align 4, !dbg !3712, !tbaa !3471, !alias.scope !3713, !noalias !3707
  %34 = fadd <4 x float> %19, %wide.load.1, !dbg !3710
  %35 = fadd <4 x float> %21, %wide.load25.1, !dbg !3710
  %36 = bitcast float* %30 to <4 x float>*, !dbg !3712
  store <4 x float> %34, <4 x float>* %36, align 4, !dbg !3712, !tbaa !3471, !alias.scope !3713, !noalias !3707
  %37 = bitcast float* %32 to <4 x float>*, !dbg !3712
  store <4 x float> %35, <4 x float>* %37, align 4, !dbg !3712, !tbaa !3471, !alias.scope !3713, !noalias !3707
  %index.next.1 = add i64 %index, 16, !dbg !3710
  %niter.nsub.1 = add i64 %niter, -2, !dbg !3710
  %niter.ncmp.1 = icmp eq i64 %niter.nsub.1, 0, !dbg !3710
  br i1 %niter.ncmp.1, label %middle.block.unr-lcssa, label %vector.body, !dbg !3710, !llvm.loop !3715

middle.block.unr-lcssa:                           ; preds = %vector.body, %vector.ph
  %index.unr = phi i64 [ 0, %vector.ph ], [ %index.next.1, %vector.body ]
  br i1 %lcmp.mod, label %middle.block, label %vector.body.epil, !dbg !3710

vector.body.epil:                                 ; preds = %middle.block.unr-lcssa
  %38 = load float, float* %fValue, align 4, !dbg !3717, !tbaa !3471, !alias.scope !3707
  %39 = insertelement <4 x float> undef, float %38, i32 0, !dbg !3717
  %40 = shufflevector <4 x float> %39, <4 x float> undef, <4 x i32> zeroinitializer, !dbg !3717
  %41 = insertelement <4 x float> undef, float %38, i32 0, !dbg !3711
  %42 = shufflevector <4 x float> %41, <4 x float> undef, <4 x i32> zeroinitializer, !dbg !3711
  %43 = getelementptr inbounds float, float* %10, i64 %index.unr, !dbg !3711
  %44 = bitcast float* %43 to <4 x float>*, !dbg !3712
  %wide.load.epil = load <4 x float>, <4 x float>* %44, align 4, !dbg !3712, !tbaa !3471, !alias.scope !3713, !noalias !3707
  %45 = getelementptr inbounds float, float* %43, i64 4, !dbg !3712
  %46 = bitcast float* %45 to <4 x float>*, !dbg !3712
  %wide.load25.epil = load <4 x float>, <4 x float>* %46, align 4, !dbg !3712, !tbaa !3471, !alias.scope !3713, !noalias !3707
  %47 = fadd <4 x float> %40, %wide.load.epil, !dbg !3710
  %48 = fadd <4 x float> %42, %wide.load25.epil, !dbg !3710
  %49 = bitcast float* %43 to <4 x float>*, !dbg !3712
  store <4 x float> %47, <4 x float>* %49, align 4, !dbg !3712, !tbaa !3471, !alias.scope !3713, !noalias !3707
  %50 = bitcast float* %45 to <4 x float>*, !dbg !3712
  store <4 x float> %48, <4 x float>* %50, align 4, !dbg !3712, !tbaa !3471, !alias.scope !3713, !noalias !3707
  br label %middle.block, !dbg !3706

middle.block:                                     ; preds = %vector.body.epil, %middle.block.unr-lcssa
  br i1 %cmp.n, label %for.cond2.for.inc5_crit_edge.us, label %for.body4.us.preheader, !dbg !3706

for.body4.us.preheader:                           ; preds = %middle.block, %vector.memcheck, %for.cond2.preheader.us
  %indvars.iv.ph = phi i64 [ 0, %vector.memcheck ], [ 0, %for.cond2.preheader.us ], [ %n.vec, %middle.block ]
  br label %for.body4.us, !dbg !3706

for.body4.us:                                     ; preds = %for.body4.us, %for.body4.us.preheader
  %indvars.iv = phi i64 [ %indvars.iv.next, %for.body4.us ], [ %indvars.iv.ph, %for.body4.us.preheader ]
  call void @llvm.dbg.value(metadata i64 %indvars.iv, metadata !3683, metadata !DIExpression()), !dbg !3684
  %51 = load float, float* %fValue, align 4, !dbg !3717, !tbaa !3471
  call void @llvm.dbg.value(metadata %class.CBFormat* %this, metadata !3255, metadata !DIExpression(DW_OP_plus_uconst, 56, DW_OP_stack_value)), !dbg !3704
  call void @llvm.dbg.value(metadata i64 %indvars.iv20, metadata !3258, metadata !DIExpression()), !dbg !3704
  call void @llvm.dbg.value(metadata %class.CBFormat* %this, metadata !3262, metadata !DIExpression(DW_OP_plus_uconst, 56, DW_OP_stack_value)), !dbg !3702
  call void @llvm.dbg.value(metadata %class.CBFormat* %this, metadata !3304, metadata !DIExpression(DW_OP_plus_uconst, 56, DW_OP_stack_value)), !dbg !3718
  call void @llvm.dbg.value(metadata %class.CBFormat* %this, metadata !3320, metadata !DIExpression(DW_OP_plus_uconst, 56, DW_OP_stack_value)), !dbg !3719
  call void @llvm.dbg.value(metadata %class.CBFormat* %this, metadata !3327, metadata !DIExpression(DW_OP_plus_uconst, 56, DW_OP_stack_value)), !dbg !3720
  call void @llvm.dbg.value(metadata %class.CBFormat* %this, metadata !3332, metadata !DIExpression(DW_OP_plus_uconst, 56, DW_OP_stack_value)), !dbg !3694
  %arrayidx.us = getelementptr inbounds float, float* %10, i64 %indvars.iv, !dbg !3711
  %52 = load float, float* %arrayidx.us, align 4, !dbg !3712, !tbaa !3471
  %add.us = fadd float %51, %52, !dbg !3712
  store float %add.us, float* %arrayidx.us, align 4, !dbg !3712, !tbaa !3471
  %indvars.iv.next = add nuw nsw i64 %indvars.iv, 1, !dbg !3710
  call void @llvm.dbg.value(metadata i32 undef, metadata !3683, metadata !DIExpression(DW_OP_plus_uconst, 1, DW_OP_stack_value)), !dbg !3684
  %cmp3.us = icmp ult i64 %indvars.iv.next, %4, !dbg !3721
  br i1 %cmp3.us, label %for.body4.us, label %for.cond2.for.inc5_crit_edge.us, !dbg !3706, !llvm.loop !3722

for.cond2.for.inc5_crit_edge.us:                  ; preds = %for.body4.us, %middle.block
  %indvars.iv.next21 = add nuw nsw i64 %indvars.iv20, 1, !dbg !3723
  call void @llvm.dbg.value(metadata i32 undef, metadata !3682, metadata !DIExpression(DW_OP_plus_uconst, 1, DW_OP_stack_value)), !dbg !3684
  %cmp.us = icmp ult i64 %indvars.iv.next21, %3, !dbg !3688
  br i1 %cmp.us, label %for.cond2.preheader.us, label %for.end7, !dbg !3689, !llvm.loop !3724

for.end7:                                         ; preds = %for.cond2.for.inc5_crit_edge.us, %for.cond2.preheader.lr.ph, %entry
  ret %class.CBFormat* %this, !dbg !3726
}

; Function Attrs: nofree norecurse nounwind uwtable
define dereferenceable(64) %class.CBFormat* @_ZN8CBFormatmIERKf(%class.CBFormat* readonly returned %this, float* nocapture readonly dereferenceable(4) %fValue) local_unnamed_addr #11 align 2 !dbg !3727 {
entry:
  call void @llvm.dbg.value(metadata %class.CBFormat* %this, metadata !3729, metadata !DIExpression()), !dbg !3733
  call void @llvm.dbg.value(metadata float* %fValue, metadata !3730, metadata !DIExpression()), !dbg !3733
  call void @llvm.dbg.value(metadata i32 0, metadata !3731, metadata !DIExpression()), !dbg !3733
  call void @llvm.dbg.value(metadata i32 0, metadata !3732, metadata !DIExpression()), !dbg !3733
  call void @llvm.dbg.value(metadata i32 0, metadata !3731, metadata !DIExpression()), !dbg !3733
  %fValue23 = bitcast float* %fValue to i8*
  %0 = getelementptr inbounds %class.CBFormat, %class.CBFormat* %this, i64 0, i32 0, i32 4, !dbg !3734
  %1 = load i32, i32* %0, align 8, !dbg !3734, !tbaa !3060
  %cmp16 = icmp eq i32 %1, 0, !dbg !3737
  br i1 %cmp16, label %for.end7, label %for.cond2.preheader.lr.ph, !dbg !3738

for.cond2.preheader.lr.ph:                        ; preds = %entry
  %m_nSamples = getelementptr inbounds %class.CBFormat, %class.CBFormat* %this, i64 0, i32 1, !dbg !3739
  %2 = load i32, i32* %m_nSamples, align 8, !dbg !3739, !tbaa !3119
  %cmp314 = icmp eq i32 %2, 0, !dbg !3739
  br i1 %cmp314, label %for.end7, label %for.cond2.preheader.us.preheader, !dbg !3738

for.cond2.preheader.us.preheader:                 ; preds = %for.cond2.preheader.lr.ph
  %_M_head_impl.i.i.i.i.i.i = getelementptr inbounds %class.CBFormat, %class.CBFormat* %this, i64 0, i32 4, i32 0, i32 0, i32 0, i32 0, !dbg !3743
  %3 = zext i32 %1 to i64, !dbg !3738
  %.pre = load float**, float*** %_M_head_impl.i.i.i.i.i.i, align 8, !dbg !3751, !tbaa !3224
  %4 = zext i32 %2 to i64, !dbg !3752
  %uglygep = getelementptr i8, i8* %fValue23, i64 1, !dbg !3738
  %5 = and i64 %4, 4294967288, !dbg !3738
  %6 = add nsw i64 %5, -8, !dbg !3738
  %7 = lshr exact i64 %6, 3, !dbg !3738
  %8 = add nuw nsw i64 %7, 1, !dbg !3738
  %min.iters.check = icmp ult i32 %2, 8, !dbg !3752
  %n.vec = and i64 %4, 4294967288, !dbg !3752
  %xtraiter = and i64 %8, 1, !dbg !3752
  %9 = icmp eq i64 %6, 0, !dbg !3752
  %unroll_iter = sub nuw nsw i64 %8, %xtraiter, !dbg !3752
  %lcmp.mod = icmp eq i64 %xtraiter, 0, !dbg !3739
  %cmp.n = icmp eq i64 %n.vec, %4, !dbg !3752
  br label %for.cond2.preheader.us, !dbg !3738

for.cond2.preheader.us:                           ; preds = %for.cond2.for.inc5_crit_edge.us, %for.cond2.preheader.us.preheader
  %indvars.iv20 = phi i64 [ 0, %for.cond2.preheader.us.preheader ], [ %indvars.iv.next21, %for.cond2.for.inc5_crit_edge.us ]
  call void @llvm.dbg.value(metadata i64 %indvars.iv20, metadata !3731, metadata !DIExpression()), !dbg !3733
  call void @llvm.dbg.value(metadata i32 0, metadata !3732, metadata !DIExpression()), !dbg !3733
  %arrayidx.i.us = getelementptr inbounds float*, float** %.pre, i64 %indvars.iv20, !dbg !3753
  %10 = load float*, float** %arrayidx.i.us, align 8, !dbg !3754, !tbaa !3224
  br i1 %min.iters.check, label %for.body4.us.preheader, label %vector.memcheck, !dbg !3755

vector.memcheck:                                  ; preds = %for.cond2.preheader.us
  %11 = bitcast float* %10 to i8*
  %scevgep = getelementptr float, float* %10, i64 %4, !dbg !3755
  %bound0 = icmp ugt i8* %uglygep, %11, !dbg !3755
  %bound1 = icmp ugt float* %scevgep, %fValue, !dbg !3755
  %found.conflict = and i1 %bound0, %bound1, !dbg !3755
  br i1 %found.conflict, label %for.body4.us.preheader, label %vector.ph, !dbg !3755

vector.ph:                                        ; preds = %vector.memcheck
  br i1 %9, label %middle.block.unr-lcssa, label %vector.ph.new, !dbg !3755

vector.ph.new:                                    ; preds = %vector.ph
  %12 = load float, float* %fValue, align 4, !dbg !3754, !tbaa !3471, !alias.scope !3756
  %13 = insertelement <4 x float> undef, float %12, i32 0, !dbg !3754
  %14 = shufflevector <4 x float> %13, <4 x float> undef, <4 x i32> zeroinitializer, !dbg !3754
  %15 = insertelement <4 x float> undef, float %12, i32 0, !dbg !3754
  %16 = shufflevector <4 x float> %15, <4 x float> undef, <4 x i32> zeroinitializer, !dbg !3754
  %17 = load float, float* %fValue, align 4, !dbg !3754, !tbaa !3471, !alias.scope !3756
  %18 = insertelement <4 x float> undef, float %17, i32 0, !dbg !3754
  %19 = shufflevector <4 x float> %18, <4 x float> undef, <4 x i32> zeroinitializer, !dbg !3754
  %20 = insertelement <4 x float> undef, float %17, i32 0, !dbg !3754
  %21 = shufflevector <4 x float> %20, <4 x float> undef, <4 x i32> zeroinitializer, !dbg !3754
  br label %vector.body, !dbg !3755

vector.body:                                      ; preds = %vector.body, %vector.ph.new
  %index = phi i64 [ 0, %vector.ph.new ], [ %index.next.1, %vector.body ], !dbg !3759
  %niter = phi i64 [ %unroll_iter, %vector.ph.new ], [ %niter.nsub.1, %vector.body ]
  %22 = getelementptr inbounds float, float* %10, i64 %index, !dbg !3760
  %23 = bitcast float* %22 to <4 x float>*, !dbg !3761
  %wide.load = load <4 x float>, <4 x float>* %23, align 4, !dbg !3761, !tbaa !3471, !alias.scope !3762, !noalias !3756
  %24 = getelementptr inbounds float, float* %22, i64 4, !dbg !3761
  %25 = bitcast float* %24 to <4 x float>*, !dbg !3761
  %wide.load25 = load <4 x float>, <4 x float>* %25, align 4, !dbg !3761, !tbaa !3471, !alias.scope !3762, !noalias !3756
  %26 = fsub <4 x float> %wide.load, %14, !dbg !3759
  %27 = fsub <4 x float> %wide.load25, %16, !dbg !3759
  %28 = bitcast float* %22 to <4 x float>*, !dbg !3761
  store <4 x float> %26, <4 x float>* %28, align 4, !dbg !3761, !tbaa !3471, !alias.scope !3762, !noalias !3756
  %29 = bitcast float* %24 to <4 x float>*, !dbg !3761
  store <4 x float> %27, <4 x float>* %29, align 4, !dbg !3761, !tbaa !3471, !alias.scope !3762, !noalias !3756
  %index.next = or i64 %index, 8, !dbg !3759
  %30 = getelementptr inbounds float, float* %10, i64 %index.next, !dbg !3760
  %31 = bitcast float* %30 to <4 x float>*, !dbg !3761
  %wide.load.1 = load <4 x float>, <4 x float>* %31, align 4, !dbg !3761, !tbaa !3471, !alias.scope !3762, !noalias !3756
  %32 = getelementptr inbounds float, float* %30, i64 4, !dbg !3761
  %33 = bitcast float* %32 to <4 x float>*, !dbg !3761
  %wide.load25.1 = load <4 x float>, <4 x float>* %33, align 4, !dbg !3761, !tbaa !3471, !alias.scope !3762, !noalias !3756
  %34 = fsub <4 x float> %wide.load.1, %19, !dbg !3759
  %35 = fsub <4 x float> %wide.load25.1, %21, !dbg !3759
  %36 = bitcast float* %30 to <4 x float>*, !dbg !3761
  store <4 x float> %34, <4 x float>* %36, align 4, !dbg !3761, !tbaa !3471, !alias.scope !3762, !noalias !3756
  %37 = bitcast float* %32 to <4 x float>*, !dbg !3761
  store <4 x float> %35, <4 x float>* %37, align 4, !dbg !3761, !tbaa !3471, !alias.scope !3762, !noalias !3756
  %index.next.1 = add i64 %index, 16, !dbg !3759
  %niter.nsub.1 = add i64 %niter, -2, !dbg !3759
  %niter.ncmp.1 = icmp eq i64 %niter.nsub.1, 0, !dbg !3759
  br i1 %niter.ncmp.1, label %middle.block.unr-lcssa, label %vector.body, !dbg !3759, !llvm.loop !3764

middle.block.unr-lcssa:                           ; preds = %vector.body, %vector.ph
  %index.unr = phi i64 [ 0, %vector.ph ], [ %index.next.1, %vector.body ]
  br i1 %lcmp.mod, label %middle.block, label %vector.body.epil, !dbg !3759

vector.body.epil:                                 ; preds = %middle.block.unr-lcssa
  %38 = load float, float* %fValue, align 4, !dbg !3766, !tbaa !3471, !alias.scope !3756
  %39 = insertelement <4 x float> undef, float %38, i32 0, !dbg !3766
  %40 = shufflevector <4 x float> %39, <4 x float> undef, <4 x i32> zeroinitializer, !dbg !3766
  %41 = insertelement <4 x float> undef, float %38, i32 0, !dbg !3760
  %42 = shufflevector <4 x float> %41, <4 x float> undef, <4 x i32> zeroinitializer, !dbg !3760
  %43 = getelementptr inbounds float, float* %10, i64 %index.unr, !dbg !3760
  %44 = bitcast float* %43 to <4 x float>*, !dbg !3761
  %wide.load.epil = load <4 x float>, <4 x float>* %44, align 4, !dbg !3761, !tbaa !3471, !alias.scope !3762, !noalias !3756
  %45 = getelementptr inbounds float, float* %43, i64 4, !dbg !3761
  %46 = bitcast float* %45 to <4 x float>*, !dbg !3761
  %wide.load25.epil = load <4 x float>, <4 x float>* %46, align 4, !dbg !3761, !tbaa !3471, !alias.scope !3762, !noalias !3756
  %47 = fsub <4 x float> %wide.load.epil, %40, !dbg !3759
  %48 = fsub <4 x float> %wide.load25.epil, %42, !dbg !3759
  %49 = bitcast float* %43 to <4 x float>*, !dbg !3761
  store <4 x float> %47, <4 x float>* %49, align 4, !dbg !3761, !tbaa !3471, !alias.scope !3762, !noalias !3756
  %50 = bitcast float* %45 to <4 x float>*, !dbg !3761
  store <4 x float> %48, <4 x float>* %50, align 4, !dbg !3761, !tbaa !3471, !alias.scope !3762, !noalias !3756
  br label %middle.block, !dbg !3755

middle.block:                                     ; preds = %vector.body.epil, %middle.block.unr-lcssa
  br i1 %cmp.n, label %for.cond2.for.inc5_crit_edge.us, label %for.body4.us.preheader, !dbg !3755

for.body4.us.preheader:                           ; preds = %middle.block, %vector.memcheck, %for.cond2.preheader.us
  %indvars.iv.ph = phi i64 [ 0, %vector.memcheck ], [ 0, %for.cond2.preheader.us ], [ %n.vec, %middle.block ]
  br label %for.body4.us, !dbg !3755

for.body4.us:                                     ; preds = %for.body4.us, %for.body4.us.preheader
  %indvars.iv = phi i64 [ %indvars.iv.next, %for.body4.us ], [ %indvars.iv.ph, %for.body4.us.preheader ]
  call void @llvm.dbg.value(metadata i64 %indvars.iv, metadata !3732, metadata !DIExpression()), !dbg !3733
  %51 = load float, float* %fValue, align 4, !dbg !3766, !tbaa !3471
  call void @llvm.dbg.value(metadata %class.CBFormat* %this, metadata !3255, metadata !DIExpression(DW_OP_plus_uconst, 56, DW_OP_stack_value)), !dbg !3753
  call void @llvm.dbg.value(metadata i64 %indvars.iv20, metadata !3258, metadata !DIExpression()), !dbg !3753
  call void @llvm.dbg.value(metadata %class.CBFormat* %this, metadata !3262, metadata !DIExpression(DW_OP_plus_uconst, 56, DW_OP_stack_value)), !dbg !3751
  call void @llvm.dbg.value(metadata %class.CBFormat* %this, metadata !3304, metadata !DIExpression(DW_OP_plus_uconst, 56, DW_OP_stack_value)), !dbg !3767
  call void @llvm.dbg.value(metadata %class.CBFormat* %this, metadata !3320, metadata !DIExpression(DW_OP_plus_uconst, 56, DW_OP_stack_value)), !dbg !3768
  call void @llvm.dbg.value(metadata %class.CBFormat* %this, metadata !3327, metadata !DIExpression(DW_OP_plus_uconst, 56, DW_OP_stack_value)), !dbg !3769
  call void @llvm.dbg.value(metadata %class.CBFormat* %this, metadata !3332, metadata !DIExpression(DW_OP_plus_uconst, 56, DW_OP_stack_value)), !dbg !3743
  %arrayidx.us = getelementptr inbounds float, float* %10, i64 %indvars.iv, !dbg !3760
  %52 = load float, float* %arrayidx.us, align 4, !dbg !3761, !tbaa !3471
  %sub.us = fsub float %52, %51, !dbg !3761
  store float %sub.us, float* %arrayidx.us, align 4, !dbg !3761, !tbaa !3471
  %indvars.iv.next = add nuw nsw i64 %indvars.iv, 1, !dbg !3759
  call void @llvm.dbg.value(metadata i32 undef, metadata !3732, metadata !DIExpression(DW_OP_plus_uconst, 1, DW_OP_stack_value)), !dbg !3733
  %cmp3.us = icmp ult i64 %indvars.iv.next, %4, !dbg !3770
  br i1 %cmp3.us, label %for.body4.us, label %for.cond2.for.inc5_crit_edge.us, !dbg !3755, !llvm.loop !3771

for.cond2.for.inc5_crit_edge.us:                  ; preds = %for.body4.us, %middle.block
  %indvars.iv.next21 = add nuw nsw i64 %indvars.iv20, 1, !dbg !3772
  call void @llvm.dbg.value(metadata i32 undef, metadata !3731, metadata !DIExpression(DW_OP_plus_uconst, 1, DW_OP_stack_value)), !dbg !3733
  %cmp.us = icmp ult i64 %indvars.iv.next21, %3, !dbg !3737
  br i1 %cmp.us, label %for.cond2.preheader.us, label %for.end7, !dbg !3738, !llvm.loop !3773

for.end7:                                         ; preds = %for.cond2.for.inc5_crit_edge.us, %for.cond2.preheader.lr.ph, %entry
  ret %class.CBFormat* %this, !dbg !3775
}

; Function Attrs: nofree norecurse nounwind uwtable
define dereferenceable(64) %class.CBFormat* @_ZN8CBFormatmLERKf(%class.CBFormat* readonly returned %this, float* nocapture readonly dereferenceable(4) %fValue) local_unnamed_addr #11 align 2 !dbg !3776 {
entry:
  call void @llvm.dbg.value(metadata %class.CBFormat* %this, metadata !3778, metadata !DIExpression()), !dbg !3782
  call void @llvm.dbg.value(metadata float* %fValue, metadata !3779, metadata !DIExpression()), !dbg !3782
  call void @llvm.dbg.value(metadata i32 0, metadata !3780, metadata !DIExpression()), !dbg !3782
  call void @llvm.dbg.value(metadata i32 0, metadata !3781, metadata !DIExpression()), !dbg !3782
  call void @llvm.dbg.value(metadata i32 0, metadata !3780, metadata !DIExpression()), !dbg !3782
  %fValue23 = bitcast float* %fValue to i8*
  %0 = getelementptr inbounds %class.CBFormat, %class.CBFormat* %this, i64 0, i32 0, i32 4, !dbg !3783
  %1 = load i32, i32* %0, align 8, !dbg !3783, !tbaa !3060
  %cmp16 = icmp eq i32 %1, 0, !dbg !3786
  br i1 %cmp16, label %for.end7, label %for.cond2.preheader.lr.ph, !dbg !3787

for.cond2.preheader.lr.ph:                        ; preds = %entry
  %m_nSamples = getelementptr inbounds %class.CBFormat, %class.CBFormat* %this, i64 0, i32 1, !dbg !3788
  %2 = load i32, i32* %m_nSamples, align 8, !dbg !3788, !tbaa !3119
  %cmp314 = icmp eq i32 %2, 0, !dbg !3788
  br i1 %cmp314, label %for.end7, label %for.cond2.preheader.us.preheader, !dbg !3787

for.cond2.preheader.us.preheader:                 ; preds = %for.cond2.preheader.lr.ph
  %_M_head_impl.i.i.i.i.i.i = getelementptr inbounds %class.CBFormat, %class.CBFormat* %this, i64 0, i32 4, i32 0, i32 0, i32 0, i32 0, !dbg !3792
  %3 = zext i32 %1 to i64, !dbg !3787
  %.pre = load float**, float*** %_M_head_impl.i.i.i.i.i.i, align 8, !dbg !3800, !tbaa !3224
  %4 = zext i32 %2 to i64, !dbg !3801
  %uglygep = getelementptr i8, i8* %fValue23, i64 1, !dbg !3787
  %5 = and i64 %4, 4294967288, !dbg !3787
  %6 = add nsw i64 %5, -8, !dbg !3787
  %7 = lshr exact i64 %6, 3, !dbg !3787
  %8 = add nuw nsw i64 %7, 1, !dbg !3787
  %min.iters.check = icmp ult i32 %2, 8, !dbg !3801
  %n.vec = and i64 %4, 4294967288, !dbg !3801
  %xtraiter = and i64 %8, 1, !dbg !3801
  %9 = icmp eq i64 %6, 0, !dbg !3801
  %unroll_iter = sub nuw nsw i64 %8, %xtraiter, !dbg !3801
  %lcmp.mod = icmp eq i64 %xtraiter, 0, !dbg !3788
  %cmp.n = icmp eq i64 %n.vec, %4, !dbg !3801
  br label %for.cond2.preheader.us, !dbg !3787

for.cond2.preheader.us:                           ; preds = %for.cond2.for.inc5_crit_edge.us, %for.cond2.preheader.us.preheader
  %indvars.iv20 = phi i64 [ 0, %for.cond2.preheader.us.preheader ], [ %indvars.iv.next21, %for.cond2.for.inc5_crit_edge.us ]
  call void @llvm.dbg.value(metadata i64 %indvars.iv20, metadata !3780, metadata !DIExpression()), !dbg !3782
  call void @llvm.dbg.value(metadata i32 0, metadata !3781, metadata !DIExpression()), !dbg !3782
  %arrayidx.i.us = getelementptr inbounds float*, float** %.pre, i64 %indvars.iv20, !dbg !3802
  %10 = load float*, float** %arrayidx.i.us, align 8, !dbg !3803, !tbaa !3224
  br i1 %min.iters.check, label %for.body4.us.preheader, label %vector.memcheck, !dbg !3804

vector.memcheck:                                  ; preds = %for.cond2.preheader.us
  %11 = bitcast float* %10 to i8*
  %scevgep = getelementptr float, float* %10, i64 %4, !dbg !3804
  %bound0 = icmp ugt i8* %uglygep, %11, !dbg !3804
  %bound1 = icmp ugt float* %scevgep, %fValue, !dbg !3804
  %found.conflict = and i1 %bound0, %bound1, !dbg !3804
  br i1 %found.conflict, label %for.body4.us.preheader, label %vector.ph, !dbg !3804

vector.ph:                                        ; preds = %vector.memcheck
  br i1 %9, label %middle.block.unr-lcssa, label %vector.ph.new, !dbg !3804

vector.ph.new:                                    ; preds = %vector.ph
  %12 = load float, float* %fValue, align 4, !dbg !3803, !tbaa !3471, !alias.scope !3805
  %13 = insertelement <4 x float> undef, float %12, i32 0, !dbg !3803
  %14 = shufflevector <4 x float> %13, <4 x float> undef, <4 x i32> zeroinitializer, !dbg !3803
  %15 = insertelement <4 x float> undef, float %12, i32 0, !dbg !3803
  %16 = shufflevector <4 x float> %15, <4 x float> undef, <4 x i32> zeroinitializer, !dbg !3803
  %17 = load float, float* %fValue, align 4, !dbg !3803, !tbaa !3471, !alias.scope !3805
  %18 = insertelement <4 x float> undef, float %17, i32 0, !dbg !3803
  %19 = shufflevector <4 x float> %18, <4 x float> undef, <4 x i32> zeroinitializer, !dbg !3803
  %20 = insertelement <4 x float> undef, float %17, i32 0, !dbg !3803
  %21 = shufflevector <4 x float> %20, <4 x float> undef, <4 x i32> zeroinitializer, !dbg !3803
  br label %vector.body, !dbg !3804

vector.body:                                      ; preds = %vector.body, %vector.ph.new
  %index = phi i64 [ 0, %vector.ph.new ], [ %index.next.1, %vector.body ], !dbg !3808
  %niter = phi i64 [ %unroll_iter, %vector.ph.new ], [ %niter.nsub.1, %vector.body ]
  %22 = getelementptr inbounds float, float* %10, i64 %index, !dbg !3809
  %23 = bitcast float* %22 to <4 x float>*, !dbg !3810
  %wide.load = load <4 x float>, <4 x float>* %23, align 4, !dbg !3810, !tbaa !3471, !alias.scope !3811, !noalias !3805
  %24 = getelementptr inbounds float, float* %22, i64 4, !dbg !3810
  %25 = bitcast float* %24 to <4 x float>*, !dbg !3810
  %wide.load25 = load <4 x float>, <4 x float>* %25, align 4, !dbg !3810, !tbaa !3471, !alias.scope !3811, !noalias !3805
  %26 = fmul <4 x float> %14, %wide.load, !dbg !3808
  %27 = fmul <4 x float> %16, %wide.load25, !dbg !3808
  %28 = bitcast float* %22 to <4 x float>*, !dbg !3810
  store <4 x float> %26, <4 x float>* %28, align 4, !dbg !3810, !tbaa !3471, !alias.scope !3811, !noalias !3805
  %29 = bitcast float* %24 to <4 x float>*, !dbg !3810
  store <4 x float> %27, <4 x float>* %29, align 4, !dbg !3810, !tbaa !3471, !alias.scope !3811, !noalias !3805
  %index.next = or i64 %index, 8, !dbg !3808
  %30 = getelementptr inbounds float, float* %10, i64 %index.next, !dbg !3809
  %31 = bitcast float* %30 to <4 x float>*, !dbg !3810
  %wide.load.1 = load <4 x float>, <4 x float>* %31, align 4, !dbg !3810, !tbaa !3471, !alias.scope !3811, !noalias !3805
  %32 = getelementptr inbounds float, float* %30, i64 4, !dbg !3810
  %33 = bitcast float* %32 to <4 x float>*, !dbg !3810
  %wide.load25.1 = load <4 x float>, <4 x float>* %33, align 4, !dbg !3810, !tbaa !3471, !alias.scope !3811, !noalias !3805
  %34 = fmul <4 x float> %19, %wide.load.1, !dbg !3808
  %35 = fmul <4 x float> %21, %wide.load25.1, !dbg !3808
  %36 = bitcast float* %30 to <4 x float>*, !dbg !3810
  store <4 x float> %34, <4 x float>* %36, align 4, !dbg !3810, !tbaa !3471, !alias.scope !3811, !noalias !3805
  %37 = bitcast float* %32 to <4 x float>*, !dbg !3810
  store <4 x float> %35, <4 x float>* %37, align 4, !dbg !3810, !tbaa !3471, !alias.scope !3811, !noalias !3805
  %index.next.1 = add i64 %index, 16, !dbg !3808
  %niter.nsub.1 = add i64 %niter, -2, !dbg !3808
  %niter.ncmp.1 = icmp eq i64 %niter.nsub.1, 0, !dbg !3808
  br i1 %niter.ncmp.1, label %middle.block.unr-lcssa, label %vector.body, !dbg !3808, !llvm.loop !3813

middle.block.unr-lcssa:                           ; preds = %vector.body, %vector.ph
  %index.unr = phi i64 [ 0, %vector.ph ], [ %index.next.1, %vector.body ]
  br i1 %lcmp.mod, label %middle.block, label %vector.body.epil, !dbg !3808

vector.body.epil:                                 ; preds = %middle.block.unr-lcssa
  %38 = load float, float* %fValue, align 4, !dbg !3815, !tbaa !3471, !alias.scope !3805
  %39 = insertelement <4 x float> undef, float %38, i32 0, !dbg !3815
  %40 = shufflevector <4 x float> %39, <4 x float> undef, <4 x i32> zeroinitializer, !dbg !3815
  %41 = insertelement <4 x float> undef, float %38, i32 0, !dbg !3809
  %42 = shufflevector <4 x float> %41, <4 x float> undef, <4 x i32> zeroinitializer, !dbg !3809
  %43 = getelementptr inbounds float, float* %10, i64 %index.unr, !dbg !3809
  %44 = bitcast float* %43 to <4 x float>*, !dbg !3810
  %wide.load.epil = load <4 x float>, <4 x float>* %44, align 4, !dbg !3810, !tbaa !3471, !alias.scope !3811, !noalias !3805
  %45 = getelementptr inbounds float, float* %43, i64 4, !dbg !3810
  %46 = bitcast float* %45 to <4 x float>*, !dbg !3810
  %wide.load25.epil = load <4 x float>, <4 x float>* %46, align 4, !dbg !3810, !tbaa !3471, !alias.scope !3811, !noalias !3805
  %47 = fmul <4 x float> %40, %wide.load.epil, !dbg !3808
  %48 = fmul <4 x float> %42, %wide.load25.epil, !dbg !3808
  %49 = bitcast float* %43 to <4 x float>*, !dbg !3810
  store <4 x float> %47, <4 x float>* %49, align 4, !dbg !3810, !tbaa !3471, !alias.scope !3811, !noalias !3805
  %50 = bitcast float* %45 to <4 x float>*, !dbg !3810
  store <4 x float> %48, <4 x float>* %50, align 4, !dbg !3810, !tbaa !3471, !alias.scope !3811, !noalias !3805
  br label %middle.block, !dbg !3804

middle.block:                                     ; preds = %vector.body.epil, %middle.block.unr-lcssa
  br i1 %cmp.n, label %for.cond2.for.inc5_crit_edge.us, label %for.body4.us.preheader, !dbg !3804

for.body4.us.preheader:                           ; preds = %middle.block, %vector.memcheck, %for.cond2.preheader.us
  %indvars.iv.ph = phi i64 [ 0, %vector.memcheck ], [ 0, %for.cond2.preheader.us ], [ %n.vec, %middle.block ]
  br label %for.body4.us, !dbg !3804

for.body4.us:                                     ; preds = %for.body4.us, %for.body4.us.preheader
  %indvars.iv = phi i64 [ %indvars.iv.next, %for.body4.us ], [ %indvars.iv.ph, %for.body4.us.preheader ]
  call void @llvm.dbg.value(metadata i64 %indvars.iv, metadata !3781, metadata !DIExpression()), !dbg !3782
  %51 = load float, float* %fValue, align 4, !dbg !3815, !tbaa !3471
  call void @llvm.dbg.value(metadata %class.CBFormat* %this, metadata !3255, metadata !DIExpression(DW_OP_plus_uconst, 56, DW_OP_stack_value)), !dbg !3802
  call void @llvm.dbg.value(metadata i64 %indvars.iv20, metadata !3258, metadata !DIExpression()), !dbg !3802
  call void @llvm.dbg.value(metadata %class.CBFormat* %this, metadata !3262, metadata !DIExpression(DW_OP_plus_uconst, 56, DW_OP_stack_value)), !dbg !3800
  call void @llvm.dbg.value(metadata %class.CBFormat* %this, metadata !3304, metadata !DIExpression(DW_OP_plus_uconst, 56, DW_OP_stack_value)), !dbg !3816
  call void @llvm.dbg.value(metadata %class.CBFormat* %this, metadata !3320, metadata !DIExpression(DW_OP_plus_uconst, 56, DW_OP_stack_value)), !dbg !3817
  call void @llvm.dbg.value(metadata %class.CBFormat* %this, metadata !3327, metadata !DIExpression(DW_OP_plus_uconst, 56, DW_OP_stack_value)), !dbg !3818
  call void @llvm.dbg.value(metadata %class.CBFormat* %this, metadata !3332, metadata !DIExpression(DW_OP_plus_uconst, 56, DW_OP_stack_value)), !dbg !3792
  %arrayidx.us = getelementptr inbounds float, float* %10, i64 %indvars.iv, !dbg !3809
  %52 = load float, float* %arrayidx.us, align 4, !dbg !3810, !tbaa !3471
  %mul.us = fmul float %51, %52, !dbg !3810
  store float %mul.us, float* %arrayidx.us, align 4, !dbg !3810, !tbaa !3471
  %indvars.iv.next = add nuw nsw i64 %indvars.iv, 1, !dbg !3808
  call void @llvm.dbg.value(metadata i32 undef, metadata !3781, metadata !DIExpression(DW_OP_plus_uconst, 1, DW_OP_stack_value)), !dbg !3782
  %cmp3.us = icmp ult i64 %indvars.iv.next, %4, !dbg !3819
  br i1 %cmp3.us, label %for.body4.us, label %for.cond2.for.inc5_crit_edge.us, !dbg !3804, !llvm.loop !3820

for.cond2.for.inc5_crit_edge.us:                  ; preds = %for.body4.us, %middle.block
  %indvars.iv.next21 = add nuw nsw i64 %indvars.iv20, 1, !dbg !3821
  call void @llvm.dbg.value(metadata i32 undef, metadata !3780, metadata !DIExpression(DW_OP_plus_uconst, 1, DW_OP_stack_value)), !dbg !3782
  %cmp.us = icmp ult i64 %indvars.iv.next21, %3, !dbg !3786
  br i1 %cmp.us, label %for.cond2.preheader.us, label %for.end7, !dbg !3787, !llvm.loop !3822

for.end7:                                         ; preds = %for.cond2.for.inc5_crit_edge.us, %for.cond2.preheader.lr.ph, %entry
  ret %class.CBFormat* %this, !dbg !3824
}

; Function Attrs: nofree norecurse nounwind uwtable
define dereferenceable(64) %class.CBFormat* @_ZN8CBFormatdVERKf(%class.CBFormat* readonly returned %this, float* nocapture readonly dereferenceable(4) %fValue) local_unnamed_addr #11 align 2 !dbg !3825 {
entry:
  call void @llvm.dbg.value(metadata %class.CBFormat* %this, metadata !3827, metadata !DIExpression()), !dbg !3831
  call void @llvm.dbg.value(metadata float* %fValue, metadata !3828, metadata !DIExpression()), !dbg !3831
  call void @llvm.dbg.value(metadata i32 0, metadata !3829, metadata !DIExpression()), !dbg !3831
  call void @llvm.dbg.value(metadata i32 0, metadata !3830, metadata !DIExpression()), !dbg !3831
  call void @llvm.dbg.value(metadata i32 0, metadata !3829, metadata !DIExpression()), !dbg !3831
  %fValue23 = bitcast float* %fValue to i8*
  %0 = getelementptr inbounds %class.CBFormat, %class.CBFormat* %this, i64 0, i32 0, i32 4, !dbg !3832
  %1 = load i32, i32* %0, align 8, !dbg !3832, !tbaa !3060
  %cmp16 = icmp eq i32 %1, 0, !dbg !3835
  br i1 %cmp16, label %for.end7, label %for.cond2.preheader.lr.ph, !dbg !3836

for.cond2.preheader.lr.ph:                        ; preds = %entry
  %m_nSamples = getelementptr inbounds %class.CBFormat, %class.CBFormat* %this, i64 0, i32 1, !dbg !3837
  %2 = load i32, i32* %m_nSamples, align 8, !dbg !3837, !tbaa !3119
  %cmp314 = icmp eq i32 %2, 0, !dbg !3837
  br i1 %cmp314, label %for.end7, label %for.cond2.preheader.us.preheader, !dbg !3836

for.cond2.preheader.us.preheader:                 ; preds = %for.cond2.preheader.lr.ph
  %_M_head_impl.i.i.i.i.i.i = getelementptr inbounds %class.CBFormat, %class.CBFormat* %this, i64 0, i32 4, i32 0, i32 0, i32 0, i32 0, !dbg !3841
  %3 = zext i32 %1 to i64, !dbg !3836
  %.pre = load float**, float*** %_M_head_impl.i.i.i.i.i.i, align 8, !dbg !3849, !tbaa !3224
  %4 = zext i32 %2 to i64, !dbg !3850
  %uglygep = getelementptr i8, i8* %fValue23, i64 1, !dbg !3836
  %5 = and i64 %4, 4294967292, !dbg !3836
  %6 = add nsw i64 %5, -4, !dbg !3836
  %7 = lshr exact i64 %6, 2, !dbg !3836
  %8 = add nuw nsw i64 %7, 1, !dbg !3836
  %min.iters.check = icmp ult i32 %2, 4, !dbg !3850
  %n.vec = and i64 %4, 4294967292, !dbg !3850
  %xtraiter = and i64 %8, 1, !dbg !3850
  %9 = icmp eq i64 %6, 0, !dbg !3850
  %unroll_iter = sub nuw nsw i64 %8, %xtraiter, !dbg !3850
  %lcmp.mod = icmp eq i64 %xtraiter, 0, !dbg !3837
  %cmp.n = icmp eq i64 %n.vec, %4, !dbg !3850
  br label %for.cond2.preheader.us, !dbg !3836

for.cond2.preheader.us:                           ; preds = %for.cond2.for.inc5_crit_edge.us, %for.cond2.preheader.us.preheader
  %indvars.iv20 = phi i64 [ 0, %for.cond2.preheader.us.preheader ], [ %indvars.iv.next21, %for.cond2.for.inc5_crit_edge.us ]
  call void @llvm.dbg.value(metadata i64 %indvars.iv20, metadata !3829, metadata !DIExpression()), !dbg !3831
  call void @llvm.dbg.value(metadata i32 0, metadata !3830, metadata !DIExpression()), !dbg !3831
  %arrayidx.i.us = getelementptr inbounds float*, float** %.pre, i64 %indvars.iv20, !dbg !3851
  %10 = load float*, float** %arrayidx.i.us, align 8, !dbg !3852, !tbaa !3224
  br i1 %min.iters.check, label %for.body4.us.preheader, label %vector.memcheck, !dbg !3853

vector.memcheck:                                  ; preds = %for.cond2.preheader.us
  %11 = bitcast float* %10 to i8*
  %scevgep = getelementptr float, float* %10, i64 %4, !dbg !3853
  %bound0 = icmp ugt i8* %uglygep, %11, !dbg !3853
  %bound1 = icmp ugt float* %scevgep, %fValue, !dbg !3853
  %found.conflict = and i1 %bound0, %bound1, !dbg !3853
  br i1 %found.conflict, label %for.body4.us.preheader, label %vector.ph, !dbg !3853

vector.ph:                                        ; preds = %vector.memcheck
  br i1 %9, label %middle.block.unr-lcssa, label %vector.ph.new, !dbg !3853

vector.ph.new:                                    ; preds = %vector.ph
  %12 = load float, float* %fValue, align 4, !dbg !3852, !tbaa !3471, !alias.scope !3854
  %13 = insertelement <4 x float> undef, float %12, i32 0, !dbg !3852
  %14 = shufflevector <4 x float> %13, <4 x float> undef, <4 x i32> zeroinitializer, !dbg !3852
  %15 = load float, float* %fValue, align 4, !dbg !3852, !tbaa !3471, !alias.scope !3854
  %16 = insertelement <4 x float> undef, float %15, i32 0, !dbg !3852
  %17 = shufflevector <4 x float> %16, <4 x float> undef, <4 x i32> zeroinitializer, !dbg !3852
  br label %vector.body, !dbg !3853

vector.body:                                      ; preds = %vector.body, %vector.ph.new
  %index = phi i64 [ 0, %vector.ph.new ], [ %index.next.1, %vector.body ], !dbg !3857
  %niter = phi i64 [ %unroll_iter, %vector.ph.new ], [ %niter.nsub.1, %vector.body ]
  %18 = getelementptr inbounds float, float* %10, i64 %index, !dbg !3858
  %19 = bitcast float* %18 to <4 x float>*, !dbg !3859
  %wide.load = load <4 x float>, <4 x float>* %19, align 4, !dbg !3859, !tbaa !3471, !alias.scope !3860, !noalias !3854
  %20 = fdiv <4 x float> %wide.load, %14, !dbg !3857
  %21 = bitcast float* %18 to <4 x float>*, !dbg !3859
  store <4 x float> %20, <4 x float>* %21, align 4, !dbg !3859, !tbaa !3471, !alias.scope !3860, !noalias !3854
  %index.next = or i64 %index, 4, !dbg !3857
  %22 = getelementptr inbounds float, float* %10, i64 %index.next, !dbg !3858
  %23 = bitcast float* %22 to <4 x float>*, !dbg !3859
  %wide.load.1 = load <4 x float>, <4 x float>* %23, align 4, !dbg !3859, !tbaa !3471, !alias.scope !3860, !noalias !3854
  %24 = fdiv <4 x float> %wide.load.1, %17, !dbg !3857
  %25 = bitcast float* %22 to <4 x float>*, !dbg !3859
  store <4 x float> %24, <4 x float>* %25, align 4, !dbg !3859, !tbaa !3471, !alias.scope !3860, !noalias !3854
  %index.next.1 = add i64 %index, 8, !dbg !3857
  %niter.nsub.1 = add i64 %niter, -2, !dbg !3857
  %niter.ncmp.1 = icmp eq i64 %niter.nsub.1, 0, !dbg !3857
  br i1 %niter.ncmp.1, label %middle.block.unr-lcssa, label %vector.body, !dbg !3857, !llvm.loop !3862

middle.block.unr-lcssa:                           ; preds = %vector.body, %vector.ph
  %index.unr = phi i64 [ 0, %vector.ph ], [ %index.next.1, %vector.body ]
  br i1 %lcmp.mod, label %middle.block, label %vector.body.epil, !dbg !3857

vector.body.epil:                                 ; preds = %middle.block.unr-lcssa
  %26 = load float, float* %fValue, align 4, !dbg !3864, !tbaa !3471, !alias.scope !3854
  %27 = insertelement <4 x float> undef, float %26, i32 0, !dbg !3858
  %28 = shufflevector <4 x float> %27, <4 x float> undef, <4 x i32> zeroinitializer, !dbg !3858
  %29 = getelementptr inbounds float, float* %10, i64 %index.unr, !dbg !3858
  %30 = bitcast float* %29 to <4 x float>*, !dbg !3859
  %wide.load.epil = load <4 x float>, <4 x float>* %30, align 4, !dbg !3859, !tbaa !3471, !alias.scope !3860, !noalias !3854
  %31 = fdiv <4 x float> %wide.load.epil, %28, !dbg !3857
  %32 = bitcast float* %29 to <4 x float>*, !dbg !3859
  store <4 x float> %31, <4 x float>* %32, align 4, !dbg !3859, !tbaa !3471, !alias.scope !3860, !noalias !3854
  br label %middle.block, !dbg !3853

middle.block:                                     ; preds = %vector.body.epil, %middle.block.unr-lcssa
  br i1 %cmp.n, label %for.cond2.for.inc5_crit_edge.us, label %for.body4.us.preheader, !dbg !3853

for.body4.us.preheader:                           ; preds = %middle.block, %vector.memcheck, %for.cond2.preheader.us
  %indvars.iv.ph = phi i64 [ 0, %vector.memcheck ], [ 0, %for.cond2.preheader.us ], [ %n.vec, %middle.block ]
  br label %for.body4.us, !dbg !3853

for.body4.us:                                     ; preds = %for.body4.us, %for.body4.us.preheader
  %indvars.iv = phi i64 [ %indvars.iv.next, %for.body4.us ], [ %indvars.iv.ph, %for.body4.us.preheader ]
  call void @llvm.dbg.value(metadata i64 %indvars.iv, metadata !3830, metadata !DIExpression()), !dbg !3831
  %33 = load float, float* %fValue, align 4, !dbg !3864, !tbaa !3471
  call void @llvm.dbg.value(metadata %class.CBFormat* %this, metadata !3255, metadata !DIExpression(DW_OP_plus_uconst, 56, DW_OP_stack_value)), !dbg !3851
  call void @llvm.dbg.value(metadata i64 %indvars.iv20, metadata !3258, metadata !DIExpression()), !dbg !3851
  call void @llvm.dbg.value(metadata %class.CBFormat* %this, metadata !3262, metadata !DIExpression(DW_OP_plus_uconst, 56, DW_OP_stack_value)), !dbg !3849
  call void @llvm.dbg.value(metadata %class.CBFormat* %this, metadata !3304, metadata !DIExpression(DW_OP_plus_uconst, 56, DW_OP_stack_value)), !dbg !3865
  call void @llvm.dbg.value(metadata %class.CBFormat* %this, metadata !3320, metadata !DIExpression(DW_OP_plus_uconst, 56, DW_OP_stack_value)), !dbg !3866
  call void @llvm.dbg.value(metadata %class.CBFormat* %this, metadata !3327, metadata !DIExpression(DW_OP_plus_uconst, 56, DW_OP_stack_value)), !dbg !3867
  call void @llvm.dbg.value(metadata %class.CBFormat* %this, metadata !3332, metadata !DIExpression(DW_OP_plus_uconst, 56, DW_OP_stack_value)), !dbg !3841
  %arrayidx.us = getelementptr inbounds float, float* %10, i64 %indvars.iv, !dbg !3858
  %34 = load float, float* %arrayidx.us, align 4, !dbg !3859, !tbaa !3471
  %div.us = fdiv float %34, %33, !dbg !3859
  store float %div.us, float* %arrayidx.us, align 4, !dbg !3859, !tbaa !3471
  %indvars.iv.next = add nuw nsw i64 %indvars.iv, 1, !dbg !3857
  call void @llvm.dbg.value(metadata i32 undef, metadata !3830, metadata !DIExpression(DW_OP_plus_uconst, 1, DW_OP_stack_value)), !dbg !3831
  %cmp3.us = icmp ult i64 %indvars.iv.next, %4, !dbg !3868
  br i1 %cmp3.us, label %for.body4.us, label %for.cond2.for.inc5_crit_edge.us, !dbg !3853, !llvm.loop !3869

for.cond2.for.inc5_crit_edge.us:                  ; preds = %for.body4.us, %middle.block
  %indvars.iv.next21 = add nuw nsw i64 %indvars.iv20, 1, !dbg !3870
  call void @llvm.dbg.value(metadata i32 undef, metadata !3829, metadata !DIExpression(DW_OP_plus_uconst, 1, DW_OP_stack_value)), !dbg !3831
  %cmp.us = icmp ult i64 %indvars.iv.next21, %3, !dbg !3835
  br i1 %cmp.us, label %for.cond2.preheader.us, label %for.end7, !dbg !3836, !llvm.loop !3871

for.end7:                                         ; preds = %for.cond2.for.inc5_crit_edge.us, %for.cond2.preheader.lr.ph, %entry
  ret %class.CBFormat* %this, !dbg !3873
}

; Function Attrs: nounwind uwtable
define void @_ZN16CAmbisonicSourceC2Ev(%class.CAmbisonicSource* nocapture %this) unnamed_addr #7 align 2 personality i32 (...)* @__gxx_personality_v0 !dbg !3874 {
entry:
  call void @llvm.dbg.value(metadata %class.CAmbisonicSource* %this, metadata !3876, metadata !DIExpression()), !dbg !3878
  call void @llvm.dbg.value(metadata %class.CAmbisonicSource* %this, metadata !3044, metadata !DIExpression()), !dbg !3879
  %0 = getelementptr inbounds %class.CAmbisonicSource, %class.CAmbisonicSource* %this, i64 0, i32 0, i32 0, !dbg !3881
  %1 = getelementptr inbounds %class.CAmbisonicSource, %class.CAmbisonicSource* %this, i64 0, i32 0, i32 1, !dbg !3882
  store i32 0, i32* %1, align 8, !dbg !3882, !tbaa !3052
  %2 = getelementptr inbounds %class.CAmbisonicSource, %class.CAmbisonicSource* %this, i64 0, i32 0, i32 2, !dbg !3883
  store i8 0, i8* %2, align 4, !dbg !3883, !tbaa !3058
  %3 = getelementptr inbounds %class.CAmbisonicSource, %class.CAmbisonicSource* %this, i64 0, i32 0, i32 4, !dbg !3884
  store i32 0, i32* %3, align 8, !dbg !3884, !tbaa !3060
  %4 = getelementptr inbounds %class.CAmbisonicSource, %class.CAmbisonicSource* %this, i64 0, i32 0, i32 5, !dbg !3885
  store i8 0, i8* %4, align 4, !dbg !3885, !tbaa !3062
  store i32 (...)** bitcast (i8** getelementptr inbounds ({ [16 x i8*] }, { [16 x i8*] }* @_ZTV16CAmbisonicSource, i64 0, inrange i32 0, i64 2) to i32 (...)**), i32 (...)*** %0, align 8, !dbg !3886, !tbaa !3048
  %m_pfCoeff = getelementptr inbounds %class.CAmbisonicSource, %class.CAmbisonicSource* %this, i64 0, i32 1, !dbg !3887
  call void @llvm.dbg.value(metadata %"class.std::vector"* %m_pfCoeff, metadata !3888, metadata !DIExpression()) #24, !dbg !3891
  call void @llvm.dbg.value(metadata %"class.std::vector"* %m_pfCoeff, metadata !3893, metadata !DIExpression()) #24, !dbg !3897
  call void @llvm.dbg.value(metadata %"class.std::vector"* %m_pfCoeff, metadata !3899, metadata !DIExpression()) #24, !dbg !3903
  call void @llvm.dbg.value(metadata %class.CAmbisonicSource* %this, metadata !3888, metadata !DIExpression(DW_OP_plus_uconst, 48, DW_OP_stack_value)) #24, !dbg !3905
  call void @llvm.dbg.value(metadata %class.CAmbisonicSource* %this, metadata !3893, metadata !DIExpression(DW_OP_plus_uconst, 48, DW_OP_stack_value)) #24, !dbg !3907
  call void @llvm.dbg.value(metadata %class.CAmbisonicSource* %this, metadata !3899, metadata !DIExpression(DW_OP_plus_uconst, 48, DW_OP_stack_value)) #24, !dbg !3909
  %fDistance = getelementptr inbounds %class.CAmbisonicSource, %class.CAmbisonicSource* %this, i64 0, i32 3, i32 2, !dbg !3911
  %5 = bitcast %"class.std::vector"* %m_pfCoeff to i8*, !dbg !3913
  call void @llvm.memset.p0i8.i64(i8* nonnull align 8 %5, i8 0, i64 56, i1 false), !dbg !3914
  store float 1.000000e+00, float* %fDistance, align 8, !dbg !3913, !tbaa !3915
  %m_fGain = getelementptr inbounds %class.CAmbisonicSource, %class.CAmbisonicSource* %this, i64 0, i32 4, !dbg !3918
  store float 1.000000e+00, float* %m_fGain, align 4, !dbg !3919, !tbaa !3920
  ret void, !dbg !3921
}

; Function Attrs: uwtable
define zeroext i1 @_ZN16CAmbisonicSource9ConfigureEjbj(%class.CAmbisonicSource* %this, i32 %nOrder, i1 zeroext %b3D, i32 %nMisc) unnamed_addr #6 align 2 personality i32 (...)* @__gxx_personality_v0 !dbg !3922 {
entry:
  %ref.tmp = alloca float, align 4
  %ref.tmp5 = alloca float, align 4
  call void @llvm.dbg.value(metadata %class.CAmbisonicSource* %this, metadata !3924, metadata !DIExpression()), !dbg !3929
  call void @llvm.dbg.value(metadata i32 %nOrder, metadata !3925, metadata !DIExpression()), !dbg !3929
  call void @llvm.dbg.value(metadata i1 %b3D, metadata !3926, metadata !DIExpression()), !dbg !3929
  call void @llvm.dbg.value(metadata i32 undef, metadata !3927, metadata !DIExpression()), !dbg !3929
  call void @llvm.dbg.value(metadata %class.CAmbisonicSource* %this, metadata !3085, metadata !DIExpression()), !dbg !3930
  call void @llvm.dbg.value(metadata i32 %nOrder, metadata !3086, metadata !DIExpression()), !dbg !3930
  %frombool.i = zext i1 %b3D to i8
  call void @llvm.dbg.value(metadata i8 %frombool.i, metadata !3087, metadata !DIExpression()), !dbg !3930
  call void @llvm.dbg.value(metadata i32 undef, metadata !3088, metadata !DIExpression()), !dbg !3930
  %0 = getelementptr inbounds %class.CAmbisonicSource, %class.CAmbisonicSource* %this, i64 0, i32 0, i32 1, !dbg !3932
  store i32 %nOrder, i32* %0, align 8, !dbg !3933, !tbaa !3052
  %1 = getelementptr inbounds %class.CAmbisonicSource, %class.CAmbisonicSource* %this, i64 0, i32 0, i32 2, !dbg !3934
  store i8 %frombool.i, i8* %1, align 4, !dbg !3935, !tbaa !3058
  %call.i = tail call i32 @_Z17OrderToComponentsjb(i32 %nOrder, i1 zeroext %b3D), !dbg !3936
  %2 = getelementptr inbounds %class.CAmbisonicSource, %class.CAmbisonicSource* %this, i64 0, i32 0, i32 4, !dbg !3937
  store i32 %call.i, i32* %2, align 8, !dbg !3938, !tbaa !3060
  call void @llvm.dbg.value(metadata i8 1, metadata !3928, metadata !DIExpression()), !dbg !3929
  %m_pfCoeff = getelementptr inbounds %class.CAmbisonicSource, %class.CAmbisonicSource* %this, i64 0, i32 1, !dbg !3939
  %conv = zext i32 %call.i to i64, !dbg !3940
  %3 = bitcast float* %ref.tmp to i8*, !dbg !3941
  call void @llvm.lifetime.start.p0i8(i64 4, i8* nonnull %3) #24, !dbg !3941
  store float 0.000000e+00, float* %ref.tmp, align 4, !dbg !3941, !tbaa !3471
  call void @llvm.dbg.value(metadata %"class.std::vector"* %m_pfCoeff, metadata !3942, metadata !DIExpression()), !dbg !3947
  call void @llvm.dbg.value(metadata i64 %conv, metadata !3945, metadata !DIExpression()), !dbg !3947
  call void @llvm.dbg.value(metadata float* %ref.tmp, metadata !3946, metadata !DIExpression()), !dbg !3947
  call void @llvm.dbg.value(metadata %"class.std::vector"* %m_pfCoeff, metadata !3159, metadata !DIExpression()), !dbg !3949
  %_M_finish.i.i = getelementptr inbounds %class.CAmbisonicSource, %class.CAmbisonicSource* %this, i64 0, i32 1, i32 0, i32 0, i32 1, !dbg !3952
  %4 = bitcast float** %_M_finish.i.i to i64*, !dbg !3952
  %5 = load i64, i64* %4, align 8, !dbg !3952, !tbaa !3167
  %6 = bitcast %"class.std::vector"* %m_pfCoeff to i64*, !dbg !3953
  %7 = load i64, i64* %6, align 8, !dbg !3953, !tbaa !3172
  %sub.ptr.sub.i.i = sub i64 %5, %7, !dbg !3954
  %sub.ptr.div.i.i = ashr exact i64 %sub.ptr.sub.i.i, 2, !dbg !3954
  %cmp.i = icmp ult i64 %sub.ptr.div.i.i, %conv, !dbg !3955
  %8 = inttoptr i64 %7 to float*, !dbg !3956
  br i1 %cmp.i, label %if.then.i, label %if.else.i, !dbg !3956

if.then.i:                                        ; preds = %entry
  %9 = inttoptr i64 %5 to float*, !dbg !3956
  call void @llvm.dbg.value(metadata %"class.std::vector"* %m_pfCoeff, metadata !3159, metadata !DIExpression()), !dbg !3957
  %sub.i = sub nsw i64 %conv, %sub.ptr.div.i.i, !dbg !3959
  call void @llvm.dbg.value(metadata %"class.std::vector"* %m_pfCoeff, metadata !3960, metadata !DIExpression()), !dbg !3968
  call void @llvm.dbg.value(metadata i64 %sub.i, metadata !3964, metadata !DIExpression()), !dbg !3968
  call void @llvm.dbg.value(metadata float* %ref.tmp, metadata !3965, metadata !DIExpression()), !dbg !3968
  call void @llvm.dbg.value(metadata %"class.__gnu_cxx::__normal_iterator.11"* undef, metadata !3963, metadata !DIExpression(DW_OP_deref)), !dbg !3968
  call void @_ZNSt6vectorIfSaIfEE14_M_fill_insertEN9__gnu_cxx17__normal_iteratorIPfS1_EEmRKf(%"class.std::vector"* nonnull %m_pfCoeff, float* %9, i64 %sub.i, float* nonnull dereferenceable(4) %ref.tmp), !dbg !3970
  br label %_ZNSt6vectorIfSaIfEE6resizeEmRKf.exit, !dbg !3971

if.else.i:                                        ; preds = %entry
  call void @llvm.dbg.value(metadata %"class.std::vector"* %m_pfCoeff, metadata !3159, metadata !DIExpression()), !dbg !3972
  %cmp8.i = icmp ugt i64 %sub.ptr.div.i.i, %conv, !dbg !3975
  br i1 %cmp8.i, label %if.then9.i, label %_ZNSt6vectorIfSaIfEE6resizeEmRKf.exit, !dbg !3976

if.then9.i:                                       ; preds = %if.else.i
  %add.ptr.i = getelementptr inbounds float, float* %8, i64 %conv, !dbg !3977
  call void @llvm.dbg.value(metadata %"class.std::vector"* %m_pfCoeff, metadata !3191, metadata !DIExpression()), !dbg !3978
  call void @llvm.dbg.value(metadata float* %add.ptr.i, metadata !3194, metadata !DIExpression()), !dbg !3978
  store float* %add.ptr.i, float** %_M_finish.i.i, align 8, !dbg !3980, !tbaa !3167
  br label %_ZNSt6vectorIfSaIfEE6resizeEmRKf.exit, !dbg !3981

_ZNSt6vectorIfSaIfEE6resizeEmRKf.exit:            ; preds = %if.then9.i, %if.else.i, %if.then.i
  call void @llvm.lifetime.end.p0i8(i64 4, i8* nonnull %3) #24, !dbg !3939
  %m_pfOrderWeights = getelementptr inbounds %class.CAmbisonicSource, %class.CAmbisonicSource* %this, i64 0, i32 2, !dbg !3982
  %10 = load i32, i32* %0, align 8, !dbg !3983, !tbaa !3052
  %add = add i32 %10, 1, !dbg !3984
  %conv4 = zext i32 %add to i64, !dbg !3983
  %11 = bitcast float* %ref.tmp5 to i8*, !dbg !3985
  call void @llvm.lifetime.start.p0i8(i64 4, i8* nonnull %11) #24, !dbg !3985
  store float 1.000000e+00, float* %ref.tmp5, align 4, !dbg !3985, !tbaa !3471
  call void @llvm.dbg.value(metadata %"class.std::vector"* %m_pfOrderWeights, metadata !3942, metadata !DIExpression()), !dbg !3986
  call void @llvm.dbg.value(metadata i64 %conv4, metadata !3945, metadata !DIExpression()), !dbg !3986
  call void @llvm.dbg.value(metadata float* %ref.tmp5, metadata !3946, metadata !DIExpression()), !dbg !3986
  call void @llvm.dbg.value(metadata %"class.std::vector"* %m_pfOrderWeights, metadata !3159, metadata !DIExpression()), !dbg !3988
  %_M_finish.i.i6 = getelementptr inbounds %class.CAmbisonicSource, %class.CAmbisonicSource* %this, i64 0, i32 2, i32 0, i32 0, i32 1, !dbg !3990
  %12 = bitcast float** %_M_finish.i.i6 to i64*, !dbg !3990
  %13 = load i64, i64* %12, align 8, !dbg !3990, !tbaa !3167
  %14 = bitcast %"class.std::vector"* %m_pfOrderWeights to i64*, !dbg !3991
  %15 = load i64, i64* %14, align 8, !dbg !3991, !tbaa !3172
  %sub.ptr.sub.i.i7 = sub i64 %13, %15, !dbg !3992
  %sub.ptr.div.i.i8 = ashr exact i64 %sub.ptr.sub.i.i7, 2, !dbg !3992
  %cmp.i9 = icmp ult i64 %sub.ptr.div.i.i8, %conv4, !dbg !3993
  %16 = inttoptr i64 %15 to float*, !dbg !3994
  br i1 %cmp.i9, label %if.then.i11, label %if.else.i13, !dbg !3994

if.then.i11:                                      ; preds = %_ZNSt6vectorIfSaIfEE6resizeEmRKf.exit
  %17 = inttoptr i64 %13 to float*, !dbg !3994
  call void @llvm.dbg.value(metadata %"class.std::vector"* %m_pfOrderWeights, metadata !3159, metadata !DIExpression()), !dbg !3995
  %sub.i10 = sub nsw i64 %conv4, %sub.ptr.div.i.i8, !dbg !3997
  call void @llvm.dbg.value(metadata %"class.std::vector"* %m_pfOrderWeights, metadata !3960, metadata !DIExpression()), !dbg !3998
  call void @llvm.dbg.value(metadata i64 %sub.i10, metadata !3964, metadata !DIExpression()), !dbg !3998
  call void @llvm.dbg.value(metadata float* %ref.tmp5, metadata !3965, metadata !DIExpression()), !dbg !3998
  call void @llvm.dbg.value(metadata %"class.__gnu_cxx::__normal_iterator.11"* undef, metadata !3963, metadata !DIExpression(DW_OP_deref)), !dbg !3998
  call void @_ZNSt6vectorIfSaIfEE14_M_fill_insertEN9__gnu_cxx17__normal_iteratorIPfS1_EEmRKf(%"class.std::vector"* nonnull %m_pfOrderWeights, float* %17, i64 %sub.i10, float* nonnull dereferenceable(4) %ref.tmp5), !dbg !4000
  br label %_ZNSt6vectorIfSaIfEE6resizeEmRKf.exit16, !dbg !4001

if.else.i13:                                      ; preds = %_ZNSt6vectorIfSaIfEE6resizeEmRKf.exit
  call void @llvm.dbg.value(metadata %"class.std::vector"* %m_pfOrderWeights, metadata !3159, metadata !DIExpression()), !dbg !4002
  %cmp8.i12 = icmp ugt i64 %sub.ptr.div.i.i8, %conv4, !dbg !4004
  br i1 %cmp8.i12, label %if.then9.i15, label %_ZNSt6vectorIfSaIfEE6resizeEmRKf.exit16, !dbg !4005

if.then9.i15:                                     ; preds = %if.else.i13
  %add.ptr.i14 = getelementptr inbounds float, float* %16, i64 %conv4, !dbg !4006
  call void @llvm.dbg.value(metadata %"class.std::vector"* %m_pfOrderWeights, metadata !3191, metadata !DIExpression()), !dbg !4007
  call void @llvm.dbg.value(metadata float* %add.ptr.i14, metadata !3194, metadata !DIExpression()), !dbg !4007
  store float* %add.ptr.i14, float** %_M_finish.i.i6, align 8, !dbg !4009, !tbaa !3167
  br label %_ZNSt6vectorIfSaIfEE6resizeEmRKf.exit16, !dbg !4010

_ZNSt6vectorIfSaIfEE6resizeEmRKf.exit16:          ; preds = %if.then9.i15, %if.else.i13, %if.then.i11
  call void @llvm.lifetime.end.p0i8(i64 4, i8* nonnull %11) #24, !dbg !3982
  ret i1 true, !dbg !4011
}

; Function Attrs: norecurse nounwind readnone uwtable
define void @_ZN16CAmbisonicSource5ResetEv(%class.CAmbisonicSource* nocapture %this) unnamed_addr #10 align 2 !dbg !4012 {
entry:
  call void @llvm.dbg.value(metadata %class.CAmbisonicSource* undef, metadata !4014, metadata !DIExpression()), !dbg !4015
  ret void, !dbg !4016
}

; Function Attrs: nofree nounwind uwtable
define void @_ZN16CAmbisonicSource7RefreshEv(%class.CAmbisonicSource* readonly %this) unnamed_addr #12 align 2 !dbg !4017 {
entry:
  call void @llvm.dbg.value(metadata %class.CAmbisonicSource* %this, metadata !4019, metadata !DIExpression()), !dbg !4029
  %fAzimuth = getelementptr inbounds %class.CAmbisonicSource, %class.CAmbisonicSource* %this, i64 0, i32 3, i32 0, !dbg !4030
  %0 = load float, float* %fAzimuth, align 8, !dbg !4030, !tbaa !4031
  %call = tail call float @cosf(float %0) #24, !dbg !4032
  call void @llvm.dbg.value(metadata float %call, metadata !4020, metadata !DIExpression()), !dbg !4029
  %1 = load float, float* %fAzimuth, align 8, !dbg !4033, !tbaa !4031
  %call4 = tail call float @sinf(float %1) #24, !dbg !4034
  call void @llvm.dbg.value(metadata float %call4, metadata !4021, metadata !DIExpression()), !dbg !4029
  %fElevation = getelementptr inbounds %class.CAmbisonicSource, %class.CAmbisonicSource* %this, i64 0, i32 3, i32 1, !dbg !4035
  %2 = load float, float* %fElevation, align 4, !dbg !4035, !tbaa !4036
  %call6 = tail call float @cosf(float %2) #24, !dbg !4037
  call void @llvm.dbg.value(metadata float %call6, metadata !4022, metadata !DIExpression()), !dbg !4029
  %3 = load float, float* %fElevation, align 4, !dbg !4038, !tbaa !4036
  %call9 = tail call float @sinf(float %3) #24, !dbg !4039
  call void @llvm.dbg.value(metadata float %call9, metadata !4023, metadata !DIExpression()), !dbg !4029
  %4 = load float, float* %fAzimuth, align 8, !dbg !4040, !tbaa !4031
  %mul = fmul float %4, 2.000000e+00, !dbg !4041
  %call12 = tail call float @cosf(float %mul) #24, !dbg !4042
  call void @llvm.dbg.value(metadata float %call12, metadata !4024, metadata !DIExpression()), !dbg !4029
  %5 = load float, float* %fAzimuth, align 8, !dbg !4043, !tbaa !4031
  %mul15 = fmul float %5, 2.000000e+00, !dbg !4044
  %call16 = tail call float @sinf(float %mul15) #24, !dbg !4045
  call void @llvm.dbg.value(metadata float %call16, metadata !4025, metadata !DIExpression()), !dbg !4029
  %6 = load float, float* %fElevation, align 4, !dbg !4046, !tbaa !4036
  %mul19 = fmul float %6, 2.000000e+00, !dbg !4047
  %call20 = tail call float @sinf(float %mul19) #24, !dbg !4048
  call void @llvm.dbg.value(metadata float %call20, metadata !4026, metadata !DIExpression()), !dbg !4029
  %7 = getelementptr inbounds %class.CAmbisonicSource, %class.CAmbisonicSource* %this, i64 0, i32 0, i32 2, !dbg !4049
  %8 = load i8, i8* %7, align 4, !dbg !4049, !tbaa !3058, !range !3075
  %tobool = icmp eq i8 %8, 0, !dbg !4049
  %9 = getelementptr inbounds %class.CAmbisonicSource, %class.CAmbisonicSource* %this, i64 0, i32 0, i32 1, !dbg !4051
  call void @llvm.dbg.value(metadata %class.CAmbisonicSource* %this, metadata !3247, metadata !DIExpression(DW_OP_plus_uconst, 48, DW_OP_stack_value)), !dbg !4052
  call void @llvm.dbg.value(metadata i64 0, metadata !3250, metadata !DIExpression()), !dbg !4052
  %_M_start.i = getelementptr inbounds %class.CAmbisonicSource, %class.CAmbisonicSource* %this, i64 0, i32 2, i32 0, i32 0, i32 0, !dbg !4054
  %10 = load float*, float** %_M_start.i, align 8, !dbg !4054, !tbaa !3172
  %11 = bitcast float* %10 to i32*, !dbg !4051
  %12 = load i32, i32* %11, align 4, !dbg !4051, !tbaa !3471
  call void @llvm.dbg.value(metadata %class.CAmbisonicSource* %this, metadata !3247, metadata !DIExpression(DW_OP_plus_uconst, 24, DW_OP_stack_value)), !dbg !4055
  call void @llvm.dbg.value(metadata i64 0, metadata !3250, metadata !DIExpression()), !dbg !4055
  %_M_start.i420 = getelementptr inbounds %class.CAmbisonicSource, %class.CAmbisonicSource* %this, i64 0, i32 1, i32 0, i32 0, i32 0, !dbg !4057
  %13 = load float*, float** %_M_start.i420, align 8, !dbg !4057, !tbaa !3172
  %14 = bitcast float* %13 to i32*, !dbg !4051
  store i32 %12, i32* %14, align 4, !dbg !4051, !tbaa !3471
  %15 = load i32, i32* %9, align 8, !dbg !4051, !tbaa !3052
  %cmp218 = icmp eq i32 %15, 0, !dbg !4051
  br i1 %tobool, label %if.then211, label %if.then21, !dbg !4058

if.then21:                                        ; preds = %entry
  br i1 %cmp218, label %if.end277, label %if.end45, !dbg !4059

if.end45:                                         ; preds = %if.then21
  %mul28 = fmul float %call4, %call6, !dbg !4061
  call void @llvm.dbg.value(metadata %class.CAmbisonicSource* %this, metadata !3247, metadata !DIExpression(DW_OP_plus_uconst, 48, DW_OP_stack_value)), !dbg !4064
  call void @llvm.dbg.value(metadata i64 1, metadata !3250, metadata !DIExpression()), !dbg !4064
  %add.ptr.i419 = getelementptr inbounds float, float* %10, i64 1, !dbg !4066
  %16 = load float, float* %add.ptr.i419, align 4, !dbg !4067, !tbaa !3471
  %mul31 = fmul float %mul28, %16, !dbg !4068
  call void @llvm.dbg.value(metadata %class.CAmbisonicSource* %this, metadata !3247, metadata !DIExpression(DW_OP_plus_uconst, 24, DW_OP_stack_value)), !dbg !4069
  call void @llvm.dbg.value(metadata i64 1, metadata !3250, metadata !DIExpression()), !dbg !4069
  %add.ptr.i417 = getelementptr inbounds float, float* %13, i64 1, !dbg !4071
  store float %mul31, float* %add.ptr.i417, align 4, !dbg !4072, !tbaa !3471
  call void @llvm.dbg.value(metadata %class.CAmbisonicSource* %this, metadata !3247, metadata !DIExpression(DW_OP_plus_uconst, 48, DW_OP_stack_value)), !dbg !4073
  call void @llvm.dbg.value(metadata i64 1, metadata !3250, metadata !DIExpression()), !dbg !4073
  %17 = load float, float* %add.ptr.i419, align 4, !dbg !4075, !tbaa !3471
  %mul36 = fmul float %call9, %17, !dbg !4076
  call void @llvm.dbg.value(metadata %class.CAmbisonicSource* %this, metadata !3247, metadata !DIExpression(DW_OP_plus_uconst, 24, DW_OP_stack_value)), !dbg !4077
  call void @llvm.dbg.value(metadata i64 2, metadata !3250, metadata !DIExpression()), !dbg !4077
  %add.ptr.i413 = getelementptr inbounds float, float* %13, i64 2, !dbg !4079
  store float %mul36, float* %add.ptr.i413, align 4, !dbg !4080, !tbaa !3471
  %mul39 = fmul float %call, %call6, !dbg !4081
  call void @llvm.dbg.value(metadata %class.CAmbisonicSource* %this, metadata !3247, metadata !DIExpression(DW_OP_plus_uconst, 48, DW_OP_stack_value)), !dbg !4082
  call void @llvm.dbg.value(metadata i64 1, metadata !3250, metadata !DIExpression()), !dbg !4082
  %18 = load float, float* %add.ptr.i419, align 4, !dbg !4084, !tbaa !3471
  %mul42 = fmul float %mul39, %18, !dbg !4085
  call void @llvm.dbg.value(metadata %class.CAmbisonicSource* %this, metadata !3247, metadata !DIExpression(DW_OP_plus_uconst, 24, DW_OP_stack_value)), !dbg !4086
  call void @llvm.dbg.value(metadata i64 3, metadata !3250, metadata !DIExpression()), !dbg !4086
  %add.ptr.i409 = getelementptr inbounds float, float* %13, i64 3, !dbg !4088
  store float %mul42, float* %add.ptr.i409, align 4, !dbg !4089, !tbaa !3471
  %cmp47 = icmp eq i32 %15, 1, !dbg !4090
  br i1 %cmp47, label %if.end277, label %if.end104, !dbg !4092

if.end104:                                        ; preds = %if.end45
  %square332 = fmul float %call6, %call6, !dbg !4093
  %mul51 = fmul float %square332, %call16, !dbg !4095
  %conv = fpext float %mul51 to double, !dbg !4096
  %mul52 = fmul double %conv, 0x3FEBB67AE8584CAA, !dbg !4097
  call void @llvm.dbg.value(metadata %class.CAmbisonicSource* %this, metadata !3247, metadata !DIExpression(DW_OP_plus_uconst, 48, DW_OP_stack_value)), !dbg !4098
  call void @llvm.dbg.value(metadata i64 2, metadata !3250, metadata !DIExpression()), !dbg !4098
  %add.ptr.i407 = getelementptr inbounds float, float* %10, i64 2, !dbg !4100
  %19 = load float, float* %add.ptr.i407, align 4, !dbg !4101, !tbaa !3471
  %conv55 = fpext float %19 to double, !dbg !4101
  %mul56 = fmul double %mul52, %conv55, !dbg !4102
  %conv57 = fptrunc double %mul56 to float, !dbg !4103
  call void @llvm.dbg.value(metadata %class.CAmbisonicSource* %this, metadata !3247, metadata !DIExpression(DW_OP_plus_uconst, 24, DW_OP_stack_value)), !dbg !4104
  call void @llvm.dbg.value(metadata i64 4, metadata !3250, metadata !DIExpression()), !dbg !4104
  %add.ptr.i405 = getelementptr inbounds float, float* %13, i64 4, !dbg !4106
  store float %conv57, float* %add.ptr.i405, align 4, !dbg !4107, !tbaa !3471
  %mul62 = fmul float %call4, %call20, !dbg !4108
  %conv63 = fpext float %mul62 to double, !dbg !4109
  %mul64 = fmul double %conv63, 0x3FEBB67AE8584CAA, !dbg !4110
  call void @llvm.dbg.value(metadata %class.CAmbisonicSource* %this, metadata !3247, metadata !DIExpression(DW_OP_plus_uconst, 48, DW_OP_stack_value)), !dbg !4111
  call void @llvm.dbg.value(metadata i64 2, metadata !3250, metadata !DIExpression()), !dbg !4111
  %20 = load float, float* %add.ptr.i407, align 4, !dbg !4113, !tbaa !3471
  %conv67 = fpext float %20 to double, !dbg !4113
  %mul68 = fmul double %mul64, %conv67, !dbg !4114
  %conv69 = fptrunc double %mul68 to float, !dbg !4115
  call void @llvm.dbg.value(metadata %class.CAmbisonicSource* %this, metadata !3247, metadata !DIExpression(DW_OP_plus_uconst, 24, DW_OP_stack_value)), !dbg !4116
  call void @llvm.dbg.value(metadata i64 5, metadata !3250, metadata !DIExpression()), !dbg !4116
  %add.ptr.i401 = getelementptr inbounds float, float* %13, i64 5, !dbg !4118
  store float %conv69, float* %add.ptr.i401, align 4, !dbg !4119, !tbaa !3471
  %square333 = fmul float %call9, %call9, !dbg !4120
  %mul73 = fmul float %square333, 1.500000e+00, !dbg !4121
  %sub = fadd float %mul73, -5.000000e-01, !dbg !4122
  call void @llvm.dbg.value(metadata %class.CAmbisonicSource* %this, metadata !3247, metadata !DIExpression(DW_OP_plus_uconst, 48, DW_OP_stack_value)), !dbg !4123
  call void @llvm.dbg.value(metadata i64 2, metadata !3250, metadata !DIExpression()), !dbg !4123
  %21 = load float, float* %add.ptr.i407, align 4, !dbg !4125, !tbaa !3471
  %mul76 = fmul float %sub, %21, !dbg !4126
  call void @llvm.dbg.value(metadata %class.CAmbisonicSource* %this, metadata !3247, metadata !DIExpression(DW_OP_plus_uconst, 24, DW_OP_stack_value)), !dbg !4127
  call void @llvm.dbg.value(metadata i64 6, metadata !3250, metadata !DIExpression()), !dbg !4127
  %add.ptr.i397 = getelementptr inbounds float, float* %13, i64 6, !dbg !4129
  store float %mul76, float* %add.ptr.i397, align 4, !dbg !4130, !tbaa !3471
  %mul81 = fmul float %call, %call20, !dbg !4131
  %conv82 = fpext float %mul81 to double, !dbg !4132
  %mul83 = fmul double %conv82, 0x3FEBB67AE8584CAA, !dbg !4133
  call void @llvm.dbg.value(metadata %class.CAmbisonicSource* %this, metadata !3247, metadata !DIExpression(DW_OP_plus_uconst, 48, DW_OP_stack_value)), !dbg !4134
  call void @llvm.dbg.value(metadata i64 2, metadata !3250, metadata !DIExpression()), !dbg !4134
  %22 = load float, float* %add.ptr.i407, align 4, !dbg !4136, !tbaa !3471
  %conv86 = fpext float %22 to double, !dbg !4136
  %mul87 = fmul double %mul83, %conv86, !dbg !4137
  %conv88 = fptrunc double %mul87 to float, !dbg !4138
  call void @llvm.dbg.value(metadata %class.CAmbisonicSource* %this, metadata !3247, metadata !DIExpression(DW_OP_plus_uconst, 24, DW_OP_stack_value)), !dbg !4139
  call void @llvm.dbg.value(metadata i64 7, metadata !3250, metadata !DIExpression()), !dbg !4139
  %add.ptr.i393 = getelementptr inbounds float, float* %13, i64 7, !dbg !4141
  store float %conv88, float* %add.ptr.i393, align 4, !dbg !4142, !tbaa !3471
  %mul94 = fmul float %square332, %call12, !dbg !4143
  %conv95 = fpext float %mul94 to double, !dbg !4144
  %mul96 = fmul double %conv95, 0x3FEBB67AE8584CAA, !dbg !4145
  call void @llvm.dbg.value(metadata %class.CAmbisonicSource* %this, metadata !3247, metadata !DIExpression(DW_OP_plus_uconst, 48, DW_OP_stack_value)), !dbg !4146
  call void @llvm.dbg.value(metadata i64 2, metadata !3250, metadata !DIExpression()), !dbg !4146
  %23 = load float, float* %add.ptr.i407, align 4, !dbg !4148, !tbaa !3471
  %conv99 = fpext float %23 to double, !dbg !4148
  %mul100 = fmul double %mul96, %conv99, !dbg !4149
  %conv101 = fptrunc double %mul100 to float, !dbg !4150
  call void @llvm.dbg.value(metadata %class.CAmbisonicSource* %this, metadata !3247, metadata !DIExpression(DW_OP_plus_uconst, 24, DW_OP_stack_value)), !dbg !4151
  call void @llvm.dbg.value(metadata i64 8, metadata !3250, metadata !DIExpression()), !dbg !4151
  %add.ptr.i389 = getelementptr inbounds float, float* %13, i64 8, !dbg !4153
  store float %conv101, float* %add.ptr.i389, align 4, !dbg !4154, !tbaa !3471
  %cmp106 = icmp ugt i32 %15, 2, !dbg !4155
  br i1 %cmp106, label %if.then107, label %if.end277, !dbg !4157

if.then107:                                       ; preds = %if.end104
  %24 = load float, float* %fAzimuth, align 8, !dbg !4158, !tbaa !4031
  %mul111 = fmul float %24, 3.000000e+00, !dbg !4160
  %call112 = tail call float @sinf(float %mul111) #24, !dbg !4161
  %call113 = tail call float @powf(float %call6, float 3.000000e+00) #24, !dbg !4162
  %mul114 = fmul float %call112, %call113, !dbg !4163
  %conv115 = fpext float %mul114 to double, !dbg !4164
  %mul116 = fmul double %conv115, 0x3FE94C583ADA5B53, !dbg !4165
  call void @llvm.dbg.value(metadata %class.CAmbisonicSource* %this, metadata !3247, metadata !DIExpression(DW_OP_plus_uconst, 48, DW_OP_stack_value)), !dbg !4166
  call void @llvm.dbg.value(metadata i64 3, metadata !3250, metadata !DIExpression()), !dbg !4166
  %25 = load float*, float** %_M_start.i, align 8, !dbg !4168, !tbaa !3172
  %add.ptr.i387 = getelementptr inbounds float, float* %25, i64 3, !dbg !4169
  %26 = load float, float* %add.ptr.i387, align 4, !dbg !4170, !tbaa !3471
  %conv119 = fpext float %26 to double, !dbg !4170
  %mul120 = fmul double %mul116, %conv119, !dbg !4171
  %conv121 = fptrunc double %mul120 to float, !dbg !4172
  call void @llvm.dbg.value(metadata %class.CAmbisonicSource* %this, metadata !3247, metadata !DIExpression(DW_OP_plus_uconst, 24, DW_OP_stack_value)), !dbg !4173
  call void @llvm.dbg.value(metadata i64 9, metadata !3250, metadata !DIExpression()), !dbg !4173
  %27 = load float*, float** %_M_start.i420, align 8, !dbg !4175, !tbaa !3172
  %add.ptr.i385 = getelementptr inbounds float, float* %27, i64 9, !dbg !4176
  store float %conv121, float* %add.ptr.i385, align 4, !dbg !4177, !tbaa !3471
  %mul126 = fmul float %call9, %call16, !dbg !4178
  %mul128 = fmul float %square332, %mul126, !dbg !4179
  %conv129 = fpext float %mul128 to double, !dbg !4180
  %mul130 = fmul double %conv129, 0x3FFEFBDEB14F4EDA, !dbg !4181
  call void @llvm.dbg.value(metadata %class.CAmbisonicSource* %this, metadata !3247, metadata !DIExpression(DW_OP_plus_uconst, 48, DW_OP_stack_value)), !dbg !4182
  call void @llvm.dbg.value(metadata i64 3, metadata !3250, metadata !DIExpression()), !dbg !4182
  %28 = load float, float* %add.ptr.i387, align 4, !dbg !4184, !tbaa !3471
  %conv133 = fpext float %28 to double, !dbg !4184
  %mul134 = fmul double %mul130, %conv133, !dbg !4185
  %conv135 = fptrunc double %mul134 to float, !dbg !4186
  call void @llvm.dbg.value(metadata %class.CAmbisonicSource* %this, metadata !3247, metadata !DIExpression(DW_OP_plus_uconst, 24, DW_OP_stack_value)), !dbg !4187
  call void @llvm.dbg.value(metadata i64 10, metadata !3250, metadata !DIExpression()), !dbg !4187
  %add.ptr.i381 = getelementptr inbounds float, float* %27, i64 10, !dbg !4189
  store float %conv135, float* %add.ptr.i381, align 4, !dbg !4190, !tbaa !3471
  %mul141 = fmul float %square333, 5.000000e+00, !dbg !4191
  %sub142 = fadd float %mul141, -1.000000e+00, !dbg !4192
  %mul143 = fmul float %mul28, %sub142, !dbg !4193
  %conv144 = fpext float %mul143 to double, !dbg !4194
  %mul145 = fmul double %conv144, 0x3FE3988E1409212E, !dbg !4195
  call void @llvm.dbg.value(metadata %class.CAmbisonicSource* %this, metadata !3247, metadata !DIExpression(DW_OP_plus_uconst, 48, DW_OP_stack_value)), !dbg !4196
  call void @llvm.dbg.value(metadata i64 3, metadata !3250, metadata !DIExpression()), !dbg !4196
  %29 = load float, float* %add.ptr.i387, align 4, !dbg !4198, !tbaa !3471
  %conv148 = fpext float %29 to double, !dbg !4198
  %mul149 = fmul double %mul145, %conv148, !dbg !4199
  %conv150 = fptrunc double %mul149 to float, !dbg !4200
  call void @llvm.dbg.value(metadata %class.CAmbisonicSource* %this, metadata !3247, metadata !DIExpression(DW_OP_plus_uconst, 24, DW_OP_stack_value)), !dbg !4201
  call void @llvm.dbg.value(metadata i64 11, metadata !3250, metadata !DIExpression()), !dbg !4201
  %add.ptr.i377 = getelementptr inbounds float, float* %27, i64 11, !dbg !4203
  store float %conv150, float* %add.ptr.i377, align 4, !dbg !4204, !tbaa !3471
  %sub155 = fadd float %mul141, -3.000000e+00, !dbg !4205
  %mul156 = fmul float %call9, %sub155, !dbg !4206
  %mul157 = fmul float %mul156, 5.000000e-01, !dbg !4207
  call void @llvm.dbg.value(metadata %class.CAmbisonicSource* %this, metadata !3247, metadata !DIExpression(DW_OP_plus_uconst, 48, DW_OP_stack_value)), !dbg !4208
  call void @llvm.dbg.value(metadata i64 3, metadata !3250, metadata !DIExpression()), !dbg !4208
  %30 = load float, float* %add.ptr.i387, align 4, !dbg !4210, !tbaa !3471
  %mul160 = fmul float %mul157, %30, !dbg !4211
  call void @llvm.dbg.value(metadata %class.CAmbisonicSource* %this, metadata !3247, metadata !DIExpression(DW_OP_plus_uconst, 24, DW_OP_stack_value)), !dbg !4212
  call void @llvm.dbg.value(metadata i64 12, metadata !3250, metadata !DIExpression()), !dbg !4212
  %add.ptr.i373 = getelementptr inbounds float, float* %27, i64 12, !dbg !4214
  store float %mul160, float* %add.ptr.i373, align 4, !dbg !4215, !tbaa !3471
  %mul168 = fmul float %mul39, %sub142, !dbg !4216
  %conv169 = fpext float %mul168 to double, !dbg !4217
  %mul170 = fmul double %conv169, 0x3FE3988E1409212E, !dbg !4218
  call void @llvm.dbg.value(metadata %class.CAmbisonicSource* %this, metadata !3247, metadata !DIExpression(DW_OP_plus_uconst, 48, DW_OP_stack_value)), !dbg !4219
  call void @llvm.dbg.value(metadata i64 3, metadata !3250, metadata !DIExpression()), !dbg !4219
  %31 = load float, float* %add.ptr.i387, align 4, !dbg !4221, !tbaa !3471
  %conv173 = fpext float %31 to double, !dbg !4221
  %mul174 = fmul double %mul170, %conv173, !dbg !4222
  %conv175 = fptrunc double %mul174 to float, !dbg !4223
  call void @llvm.dbg.value(metadata %class.CAmbisonicSource* %this, metadata !3247, metadata !DIExpression(DW_OP_plus_uconst, 24, DW_OP_stack_value)), !dbg !4224
  call void @llvm.dbg.value(metadata i64 13, metadata !3250, metadata !DIExpression()), !dbg !4224
  %add.ptr.i369 = getelementptr inbounds float, float* %27, i64 13, !dbg !4226
  store float %conv175, float* %add.ptr.i369, align 4, !dbg !4227, !tbaa !3471
  %mul180 = fmul float %call9, %call12, !dbg !4228
  %mul182 = fmul float %square332, %mul180, !dbg !4229
  %conv183 = fpext float %mul182 to double, !dbg !4230
  %mul184 = fmul double %conv183, 0x3FFEFBDEB14F4EDA, !dbg !4231
  call void @llvm.dbg.value(metadata %class.CAmbisonicSource* %this, metadata !3247, metadata !DIExpression(DW_OP_plus_uconst, 48, DW_OP_stack_value)), !dbg !4232
  call void @llvm.dbg.value(metadata i64 3, metadata !3250, metadata !DIExpression()), !dbg !4232
  %32 = load float, float* %add.ptr.i387, align 4, !dbg !4234, !tbaa !3471
  %conv187 = fpext float %32 to double, !dbg !4234
  %mul188 = fmul double %mul184, %conv187, !dbg !4235
  %conv189 = fptrunc double %mul188 to float, !dbg !4236
  call void @llvm.dbg.value(metadata %class.CAmbisonicSource* %this, metadata !3247, metadata !DIExpression(DW_OP_plus_uconst, 24, DW_OP_stack_value)), !dbg !4237
  call void @llvm.dbg.value(metadata i64 14, metadata !3250, metadata !DIExpression()), !dbg !4237
  %add.ptr.i365 = getelementptr inbounds float, float* %27, i64 14, !dbg !4239
  store float %conv189, float* %add.ptr.i365, align 4, !dbg !4240, !tbaa !3471
  %33 = load float, float* %fAzimuth, align 8, !dbg !4241, !tbaa !4031
  %mul195 = fmul float %33, 3.000000e+00, !dbg !4242
  %call196 = tail call float @cosf(float %mul195) #24, !dbg !4243
  %call197 = tail call float @powf(float %call6, float 3.000000e+00) #24, !dbg !4244
  %mul198 = fmul float %call196, %call197, !dbg !4245
  %conv199 = fpext float %mul198 to double, !dbg !4246
  %mul200 = fmul double %conv199, 0x3FE94C583ADA5B53, !dbg !4247
  call void @llvm.dbg.value(metadata %class.CAmbisonicSource* %this, metadata !3247, metadata !DIExpression(DW_OP_plus_uconst, 48, DW_OP_stack_value)), !dbg !4248
  call void @llvm.dbg.value(metadata i64 3, metadata !3250, metadata !DIExpression()), !dbg !4248
  %34 = load float*, float** %_M_start.i, align 8, !dbg !4250, !tbaa !3172
  %add.ptr.i363 = getelementptr inbounds float, float* %34, i64 3, !dbg !4251
  %35 = load float, float* %add.ptr.i363, align 4, !dbg !4252, !tbaa !3471
  %conv203 = fpext float %35 to double, !dbg !4252
  %mul204 = fmul double %mul200, %conv203, !dbg !4253
  %conv205 = fptrunc double %mul204 to float, !dbg !4254
  call void @llvm.dbg.value(metadata %class.CAmbisonicSource* %this, metadata !3247, metadata !DIExpression(DW_OP_plus_uconst, 24, DW_OP_stack_value)), !dbg !4255
  call void @llvm.dbg.value(metadata i64 15, metadata !3250, metadata !DIExpression()), !dbg !4255
  %36 = load float*, float** %_M_start.i420, align 8, !dbg !4257, !tbaa !3172
  %add.ptr.i361 = getelementptr inbounds float, float* %36, i64 15, !dbg !4258
  store float %conv205, float* %add.ptr.i361, align 4, !dbg !4259, !tbaa !3471
  br label %if.end277, !dbg !4260

if.then211:                                       ; preds = %entry
  br i1 %cmp218, label %if.end277, label %if.end232, !dbg !4261

if.end232:                                        ; preds = %if.then211
  %mul220 = fmul float %call, %call6, !dbg !4263
  call void @llvm.dbg.value(metadata %class.CAmbisonicSource* %this, metadata !3247, metadata !DIExpression(DW_OP_plus_uconst, 48, DW_OP_stack_value)), !dbg !4266
  call void @llvm.dbg.value(metadata i64 1, metadata !3250, metadata !DIExpression()), !dbg !4266
  %add.ptr.i359 = getelementptr inbounds float, float* %10, i64 1, !dbg !4268
  %37 = load float, float* %add.ptr.i359, align 4, !dbg !4269, !tbaa !3471
  %mul223 = fmul float %mul220, %37, !dbg !4270
  call void @llvm.dbg.value(metadata %class.CAmbisonicSource* %this, metadata !3247, metadata !DIExpression(DW_OP_plus_uconst, 24, DW_OP_stack_value)), !dbg !4271
  call void @llvm.dbg.value(metadata i64 1, metadata !3250, metadata !DIExpression()), !dbg !4271
  %add.ptr.i357 = getelementptr inbounds float, float* %13, i64 1, !dbg !4273
  store float %mul223, float* %add.ptr.i357, align 4, !dbg !4274, !tbaa !3471
  %mul226 = fmul float %call4, %call6, !dbg !4275
  call void @llvm.dbg.value(metadata %class.CAmbisonicSource* %this, metadata !3247, metadata !DIExpression(DW_OP_plus_uconst, 48, DW_OP_stack_value)), !dbg !4276
  call void @llvm.dbg.value(metadata i64 1, metadata !3250, metadata !DIExpression()), !dbg !4276
  %38 = load float, float* %add.ptr.i359, align 4, !dbg !4278, !tbaa !3471
  %mul229 = fmul float %mul226, %38, !dbg !4279
  call void @llvm.dbg.value(metadata %class.CAmbisonicSource* %this, metadata !3247, metadata !DIExpression(DW_OP_plus_uconst, 24, DW_OP_stack_value)), !dbg !4280
  call void @llvm.dbg.value(metadata i64 2, metadata !3250, metadata !DIExpression()), !dbg !4280
  %add.ptr.i353 = getelementptr inbounds float, float* %13, i64 2, !dbg !4282
  store float %mul229, float* %add.ptr.i353, align 4, !dbg !4283, !tbaa !3471
  %cmp234 = icmp eq i32 %15, 1, !dbg !4284
  br i1 %cmp234, label %if.end277, label %if.end250, !dbg !4286

if.end250:                                        ; preds = %if.end232
  %square = fmul float %call6, %call6, !dbg !4287
  %mul237 = fmul float %square, %call12, !dbg !4289
  call void @llvm.dbg.value(metadata %class.CAmbisonicSource* %this, metadata !3247, metadata !DIExpression(DW_OP_plus_uconst, 48, DW_OP_stack_value)), !dbg !4290
  call void @llvm.dbg.value(metadata i64 2, metadata !3250, metadata !DIExpression()), !dbg !4290
  %add.ptr.i351 = getelementptr inbounds float, float* %10, i64 2, !dbg !4292
  %39 = load float, float* %add.ptr.i351, align 4, !dbg !4293, !tbaa !3471
  %mul240 = fmul float %mul237, %39, !dbg !4294
  call void @llvm.dbg.value(metadata %class.CAmbisonicSource* %this, metadata !3247, metadata !DIExpression(DW_OP_plus_uconst, 24, DW_OP_stack_value)), !dbg !4295
  call void @llvm.dbg.value(metadata i64 3, metadata !3250, metadata !DIExpression()), !dbg !4295
  %add.ptr.i349 = getelementptr inbounds float, float* %13, i64 3, !dbg !4297
  store float %mul240, float* %add.ptr.i349, align 4, !dbg !4298, !tbaa !3471
  %mul244 = fmul float %square, %call16, !dbg !4299
  call void @llvm.dbg.value(metadata %class.CAmbisonicSource* %this, metadata !3247, metadata !DIExpression(DW_OP_plus_uconst, 48, DW_OP_stack_value)), !dbg !4300
  call void @llvm.dbg.value(metadata i64 2, metadata !3250, metadata !DIExpression()), !dbg !4300
  %40 = load float, float* %add.ptr.i351, align 4, !dbg !4302, !tbaa !3471
  %mul247 = fmul float %mul244, %40, !dbg !4303
  call void @llvm.dbg.value(metadata %class.CAmbisonicSource* %this, metadata !3247, metadata !DIExpression(DW_OP_plus_uconst, 24, DW_OP_stack_value)), !dbg !4304
  call void @llvm.dbg.value(metadata i64 4, metadata !3250, metadata !DIExpression()), !dbg !4304
  %add.ptr.i345 = getelementptr inbounds float, float* %13, i64 4, !dbg !4306
  store float %mul247, float* %add.ptr.i345, align 4, !dbg !4307, !tbaa !3471
  %cmp252 = icmp ugt i32 %15, 2, !dbg !4308
  br i1 %cmp252, label %if.then253, label %if.end277, !dbg !4310

if.then253:                                       ; preds = %if.end250
  %41 = load float, float* %fAzimuth, align 8, !dbg !4311, !tbaa !4031
  %mul256 = fmul float %41, 3.000000e+00, !dbg !4313
  %call257 = tail call float @cosf(float %mul256) #24, !dbg !4314
  %call258 = tail call float @powf(float %call6, float 3.000000e+00) #24, !dbg !4315
  %mul259 = fmul float %call257, %call258, !dbg !4316
  call void @llvm.dbg.value(metadata %class.CAmbisonicSource* %this, metadata !3247, metadata !DIExpression(DW_OP_plus_uconst, 48, DW_OP_stack_value)), !dbg !4317
  call void @llvm.dbg.value(metadata i64 3, metadata !3250, metadata !DIExpression()), !dbg !4317
  %42 = load float*, float** %_M_start.i, align 8, !dbg !4319, !tbaa !3172
  %add.ptr.i343 = getelementptr inbounds float, float* %42, i64 3, !dbg !4320
  %43 = load float, float* %add.ptr.i343, align 4, !dbg !4321, !tbaa !3471
  %mul262 = fmul float %mul259, %43, !dbg !4322
  call void @llvm.dbg.value(metadata %class.CAmbisonicSource* %this, metadata !3247, metadata !DIExpression(DW_OP_plus_uconst, 24, DW_OP_stack_value)), !dbg !4323
  call void @llvm.dbg.value(metadata i64 5, metadata !3250, metadata !DIExpression()), !dbg !4323
  %44 = load float*, float** %_M_start.i420, align 8, !dbg !4325, !tbaa !3172
  %add.ptr.i341 = getelementptr inbounds float, float* %44, i64 5, !dbg !4326
  store float %mul262, float* %add.ptr.i341, align 4, !dbg !4327, !tbaa !3471
  %45 = load float, float* %fAzimuth, align 8, !dbg !4328, !tbaa !4031
  %mul267 = fmul float %45, 3.000000e+00, !dbg !4329
  %call268 = tail call float @sinf(float %mul267) #24, !dbg !4330
  %call269 = tail call float @powf(float %call6, float 3.000000e+00) #24, !dbg !4331
  %mul270 = fmul float %call268, %call269, !dbg !4332
  call void @llvm.dbg.value(metadata %class.CAmbisonicSource* %this, metadata !3247, metadata !DIExpression(DW_OP_plus_uconst, 48, DW_OP_stack_value)), !dbg !4333
  call void @llvm.dbg.value(metadata i64 3, metadata !3250, metadata !DIExpression()), !dbg !4333
  %46 = load float*, float** %_M_start.i, align 8, !dbg !4335, !tbaa !3172
  %add.ptr.i339 = getelementptr inbounds float, float* %46, i64 3, !dbg !4336
  %47 = load float, float* %add.ptr.i339, align 4, !dbg !4337, !tbaa !3471
  %mul273 = fmul float %mul270, %47, !dbg !4338
  call void @llvm.dbg.value(metadata %class.CAmbisonicSource* %this, metadata !3247, metadata !DIExpression(DW_OP_plus_uconst, 24, DW_OP_stack_value)), !dbg !4339
  call void @llvm.dbg.value(metadata i64 6, metadata !3250, metadata !DIExpression()), !dbg !4339
  %48 = load float*, float** %_M_start.i420, align 8, !dbg !4341, !tbaa !3172
  %add.ptr.i337 = getelementptr inbounds float, float* %48, i64 6, !dbg !4342
  store float %mul273, float* %add.ptr.i337, align 4, !dbg !4343, !tbaa !3471
  br label %if.end277, !dbg !4344

if.end277:                                        ; preds = %if.then253, %if.end250, %if.end232, %if.then211, %if.then107, %if.end104, %if.end45, %if.then21
  %49 = phi float* [ %13, %if.end232 ], [ %13, %if.end45 ], [ %13, %if.then211 ], [ %13, %if.then21 ], [ %13, %if.end250 ], [ %48, %if.then253 ], [ %13, %if.end104 ], [ %36, %if.then107 ]
  %50 = bitcast float* %49 to i8*
  call void @llvm.dbg.value(metadata i32 0, metadata !4027, metadata !DIExpression()), !dbg !4345
  %51 = getelementptr inbounds %class.CAmbisonicSource, %class.CAmbisonicSource* %this, i64 0, i32 0, i32 4, !dbg !4346
  %52 = load i32, i32* %51, align 8, !dbg !4346, !tbaa !3060
  %cmp278425 = icmp eq i32 %52, 0, !dbg !4348
  br i1 %cmp278425, label %for.cond.cleanup, label %for.body.lr.ph, !dbg !4349

for.body.lr.ph:                                   ; preds = %if.end277
  %m_fGain = getelementptr inbounds %class.CAmbisonicSource, %class.CAmbisonicSource* %this, i64 0, i32 4, !dbg !4350
  %53 = zext i32 %52 to i64, !dbg !4349
  %min.iters.check = icmp ult i32 %52, 8, !dbg !4349
  br i1 %min.iters.check, label %for.body.preheader, label %vector.memcheck, !dbg !4349

for.body.preheader:                               ; preds = %middle.block, %vector.memcheck, %for.body.lr.ph
  %indvars.iv.ph = phi i64 [ 0, %vector.memcheck ], [ 0, %for.body.lr.ph ], [ %n.vec, %middle.block ]
  br label %for.body, !dbg !4349

vector.memcheck:                                  ; preds = %for.body.lr.ph
  %scevgep = getelementptr float, float* %49, i64 %53, !dbg !4349
  %scevgep428 = getelementptr %class.CAmbisonicSource, %class.CAmbisonicSource* %this, i64 0, i32 4, !dbg !4349
  %scevgep428429 = bitcast float* %scevgep428 to i8*
  %uglygep = getelementptr i8, i8* %scevgep428429, i64 1, !dbg !4349
  %bound0 = icmp ugt i8* %uglygep, %50, !dbg !4349
  %bound1 = icmp ult float* %m_fGain, %scevgep, !dbg !4349
  %found.conflict = and i1 %bound0, %bound1, !dbg !4349
  br i1 %found.conflict, label %for.body.preheader, label %vector.ph, !dbg !4349

vector.ph:                                        ; preds = %vector.memcheck
  %n.vec = and i64 %53, 4294967288, !dbg !4349
  %54 = add nsw i64 %n.vec, -8, !dbg !4349
  %55 = lshr exact i64 %54, 3, !dbg !4349
  %56 = add nuw nsw i64 %55, 1, !dbg !4349
  %xtraiter = and i64 %56, 1, !dbg !4349
  %57 = icmp eq i64 %54, 0, !dbg !4349
  br i1 %57, label %middle.block.unr-lcssa, label %vector.ph.new, !dbg !4349

vector.ph.new:                                    ; preds = %vector.ph
  %unroll_iter = sub nuw nsw i64 %56, %xtraiter, !dbg !4349
  %58 = load float, float* %m_fGain, align 4, !dbg !4350, !tbaa !3920, !alias.scope !4351
  %59 = insertelement <4 x float> undef, float %58, i32 0, !dbg !4350
  %60 = shufflevector <4 x float> %59, <4 x float> undef, <4 x i32> zeroinitializer, !dbg !4350
  %61 = insertelement <4 x float> undef, float %58, i32 0, !dbg !4354
  %62 = shufflevector <4 x float> %61, <4 x float> undef, <4 x i32> zeroinitializer, !dbg !4354
  %63 = load float, float* %m_fGain, align 4, !dbg !4350, !tbaa !3920, !alias.scope !4351
  %64 = insertelement <4 x float> undef, float %63, i32 0, !dbg !4350
  %65 = shufflevector <4 x float> %64, <4 x float> undef, <4 x i32> zeroinitializer, !dbg !4350
  %66 = insertelement <4 x float> undef, float %63, i32 0, !dbg !4354
  %67 = shufflevector <4 x float> %66, <4 x float> undef, <4 x i32> zeroinitializer, !dbg !4354
  br label %vector.body, !dbg !4349

vector.body:                                      ; preds = %vector.body, %vector.ph.new
  %index = phi i64 [ 0, %vector.ph.new ], [ %index.next.1, %vector.body ], !dbg !4356
  %niter = phi i64 [ %unroll_iter, %vector.ph.new ], [ %niter.nsub.1, %vector.body ]
  %68 = getelementptr inbounds float, float* %49, i64 %index, !dbg !4357
  %69 = bitcast float* %68 to <4 x float>*, !dbg !4358
  %wide.load = load <4 x float>, <4 x float>* %69, align 4, !dbg !4358, !tbaa !3471, !alias.scope !4359, !noalias !4351
  %70 = getelementptr inbounds float, float* %68, i64 4, !dbg !4358
  %71 = bitcast float* %70 to <4 x float>*, !dbg !4358
  %wide.load431 = load <4 x float>, <4 x float>* %71, align 4, !dbg !4358, !tbaa !3471, !alias.scope !4359, !noalias !4351
  %72 = fmul <4 x float> %60, %wide.load, !dbg !4356
  %73 = fmul <4 x float> %62, %wide.load431, !dbg !4356
  %74 = bitcast float* %68 to <4 x float>*, !dbg !4358
  store <4 x float> %72, <4 x float>* %74, align 4, !dbg !4358, !tbaa !3471, !alias.scope !4359, !noalias !4351
  %75 = bitcast float* %70 to <4 x float>*, !dbg !4358
  store <4 x float> %73, <4 x float>* %75, align 4, !dbg !4358, !tbaa !3471, !alias.scope !4359, !noalias !4351
  %index.next = or i64 %index, 8, !dbg !4356
  %76 = getelementptr inbounds float, float* %49, i64 %index.next, !dbg !4357
  %77 = bitcast float* %76 to <4 x float>*, !dbg !4358
  %wide.load.1 = load <4 x float>, <4 x float>* %77, align 4, !dbg !4358, !tbaa !3471, !alias.scope !4359, !noalias !4351
  %78 = getelementptr inbounds float, float* %76, i64 4, !dbg !4358
  %79 = bitcast float* %78 to <4 x float>*, !dbg !4358
  %wide.load431.1 = load <4 x float>, <4 x float>* %79, align 4, !dbg !4358, !tbaa !3471, !alias.scope !4359, !noalias !4351
  %80 = fmul <4 x float> %65, %wide.load.1, !dbg !4356
  %81 = fmul <4 x float> %67, %wide.load431.1, !dbg !4356
  %82 = bitcast float* %76 to <4 x float>*, !dbg !4358
  store <4 x float> %80, <4 x float>* %82, align 4, !dbg !4358, !tbaa !3471, !alias.scope !4359, !noalias !4351
  %83 = bitcast float* %78 to <4 x float>*, !dbg !4358
  store <4 x float> %81, <4 x float>* %83, align 4, !dbg !4358, !tbaa !3471, !alias.scope !4359, !noalias !4351
  %index.next.1 = add i64 %index, 16, !dbg !4356
  %niter.nsub.1 = add i64 %niter, -2, !dbg !4356
  %niter.ncmp.1 = icmp eq i64 %niter.nsub.1, 0, !dbg !4356
  br i1 %niter.ncmp.1, label %middle.block.unr-lcssa, label %vector.body, !dbg !4356, !llvm.loop !4361

middle.block.unr-lcssa:                           ; preds = %vector.body, %vector.ph
  %index.unr = phi i64 [ 0, %vector.ph ], [ %index.next.1, %vector.body ]
  %lcmp.mod = icmp eq i64 %xtraiter, 0, !dbg !4356
  br i1 %lcmp.mod, label %middle.block, label %vector.body.epil, !dbg !4356

vector.body.epil:                                 ; preds = %middle.block.unr-lcssa
  %84 = load float, float* %m_fGain, align 4, !dbg !4363, !tbaa !3920, !alias.scope !4351
  %85 = insertelement <4 x float> undef, float %84, i32 0, !dbg !4363
  %86 = shufflevector <4 x float> %85, <4 x float> undef, <4 x i32> zeroinitializer, !dbg !4363
  %87 = insertelement <4 x float> undef, float %84, i32 0, !dbg !4357
  %88 = shufflevector <4 x float> %87, <4 x float> undef, <4 x i32> zeroinitializer, !dbg !4357
  %89 = getelementptr inbounds float, float* %49, i64 %index.unr, !dbg !4357
  %90 = bitcast float* %89 to <4 x float>*, !dbg !4358
  %wide.load.epil = load <4 x float>, <4 x float>* %90, align 4, !dbg !4358, !tbaa !3471, !alias.scope !4359, !noalias !4351
  %91 = getelementptr inbounds float, float* %89, i64 4, !dbg !4358
  %92 = bitcast float* %91 to <4 x float>*, !dbg !4358
  %wide.load431.epil = load <4 x float>, <4 x float>* %92, align 4, !dbg !4358, !tbaa !3471, !alias.scope !4359, !noalias !4351
  %93 = fmul <4 x float> %86, %wide.load.epil, !dbg !4356
  %94 = fmul <4 x float> %88, %wide.load431.epil, !dbg !4356
  %95 = bitcast float* %89 to <4 x float>*, !dbg !4358
  store <4 x float> %93, <4 x float>* %95, align 4, !dbg !4358, !tbaa !3471, !alias.scope !4359, !noalias !4351
  %96 = bitcast float* %91 to <4 x float>*, !dbg !4358
  store <4 x float> %94, <4 x float>* %96, align 4, !dbg !4358, !tbaa !3471, !alias.scope !4359, !noalias !4351
  br label %middle.block, !dbg !4349

middle.block:                                     ; preds = %vector.body.epil, %middle.block.unr-lcssa
  %cmp.n = icmp eq i64 %n.vec, %53, !dbg !4349
  br i1 %cmp.n, label %for.cond.cleanup, label %for.body.preheader, !dbg !4349

for.cond.cleanup:                                 ; preds = %for.body, %middle.block, %if.end277
  ret void, !dbg !4364

for.body:                                         ; preds = %for.body, %for.body.preheader
  %indvars.iv = phi i64 [ %indvars.iv.next, %for.body ], [ %indvars.iv.ph, %for.body.preheader ]
  call void @llvm.dbg.value(metadata i64 %indvars.iv, metadata !4027, metadata !DIExpression()), !dbg !4345
  %97 = load float, float* %m_fGain, align 4, !dbg !4363, !tbaa !3920
  call void @llvm.dbg.value(metadata %class.CAmbisonicSource* %this, metadata !3247, metadata !DIExpression(DW_OP_plus_uconst, 24, DW_OP_stack_value)), !dbg !4354
  call void @llvm.dbg.value(metadata i64 %indvars.iv, metadata !3250, metadata !DIExpression()), !dbg !4354
  %add.ptr.i = getelementptr inbounds float, float* %49, i64 %indvars.iv, !dbg !4357
  %98 = load float, float* %add.ptr.i, align 4, !dbg !4358, !tbaa !3471
  %mul282 = fmul float %97, %98, !dbg !4358
  store float %mul282, float* %add.ptr.i, align 4, !dbg !4358, !tbaa !3471
  %indvars.iv.next = add nuw nsw i64 %indvars.iv, 1, !dbg !4356
  call void @llvm.dbg.value(metadata i32 undef, metadata !4027, metadata !DIExpression(DW_OP_plus_uconst, 1, DW_OP_stack_value)), !dbg !4345
  %cmp278 = icmp ult i64 %indvars.iv.next, %53, !dbg !4348
  br i1 %cmp278, label %for.body, label %for.cond.cleanup, !dbg !4349, !llvm.loop !4365
}

; Function Attrs: nofree nounwind
declare float @cosf(float) local_unnamed_addr #13

; Function Attrs: nofree nounwind
declare float @sinf(float) local_unnamed_addr #13

; Function Attrs: nofree nounwind
declare float @powf(float, float) local_unnamed_addr #13

; Function Attrs: nofree norecurse nounwind uwtable writeonly
define void @_ZN16CAmbisonicSource11SetPositionE10PolarPoint(%class.CAmbisonicSource* nocapture %this, <2 x float> %polPosition.coerce0, float %polPosition.coerce1) unnamed_addr #14 align 2 !dbg !4366 {
entry:
  call void @llvm.dbg.value(metadata <2 x float> %polPosition.coerce0, metadata !4369, metadata !DIExpression(DW_OP_LLVM_fragment, 0, 64)), !dbg !4370
  call void @llvm.dbg.value(metadata float %polPosition.coerce1, metadata !4369, metadata !DIExpression(DW_OP_LLVM_fragment, 64, 32)), !dbg !4370
  call void @llvm.dbg.value(metadata %class.CAmbisonicSource* %this, metadata !4368, metadata !DIExpression()), !dbg !4370
  %polPosition.sroa.0.0..sroa_idx = getelementptr inbounds %class.CAmbisonicSource, %class.CAmbisonicSource* %this, i64 0, i32 3, !dbg !4371
  %polPosition.sroa.0.0..sroa_cast = bitcast %struct.PolarPoint* %polPosition.sroa.0.0..sroa_idx to <2 x float>*, !dbg !4371
  store <2 x float> %polPosition.coerce0, <2 x float>* %polPosition.sroa.0.0..sroa_cast, align 8, !dbg !4371
  %polPosition.sroa.2.0..sroa_idx3 = getelementptr inbounds %class.CAmbisonicSource, %class.CAmbisonicSource* %this, i64 0, i32 3, i32 2, !dbg !4371
  store float %polPosition.coerce1, float* %polPosition.sroa.2.0..sroa_idx3, align 8, !dbg !4371
  ret void, !dbg !4372
}

; Function Attrs: norecurse nounwind readonly uwtable
define { <2 x float>, float } @_ZN16CAmbisonicSource11GetPositionEv(%class.CAmbisonicSource* nocapture readonly %this) unnamed_addr #5 align 2 !dbg !4373 {
entry:
  call void @llvm.dbg.value(metadata %class.CAmbisonicSource* %this, metadata !4375, metadata !DIExpression()), !dbg !4376
  %retval.sroa.0.0..sroa_idx = getelementptr inbounds %class.CAmbisonicSource, %class.CAmbisonicSource* %this, i64 0, i32 3, !dbg !4377
  %retval.sroa.0.0..sroa_cast = bitcast %struct.PolarPoint* %retval.sroa.0.0..sroa_idx to <2 x float>*, !dbg !4377
  %retval.sroa.0.0.copyload = load <2 x float>, <2 x float>* %retval.sroa.0.0..sroa_cast, align 8, !dbg !4377
  %retval.sroa.2.0..sroa_idx3 = getelementptr inbounds %class.CAmbisonicSource, %class.CAmbisonicSource* %this, i64 0, i32 3, i32 2, !dbg !4377
  %retval.sroa.2.0.copyload = load float, float* %retval.sroa.2.0..sroa_idx3, align 8, !dbg !4377
  %.fca.0.insert = insertvalue { <2 x float>, float } undef, <2 x float> %retval.sroa.0.0.copyload, 0, !dbg !4378
  %.fca.1.insert = insertvalue { <2 x float>, float } %.fca.0.insert, float %retval.sroa.2.0.copyload, 1, !dbg !4378
  ret { <2 x float>, float } %.fca.1.insert, !dbg !4378
}

; Function Attrs: nofree norecurse nounwind uwtable
define void @_ZN16CAmbisonicSource14SetOrderWeightEjf(%class.CAmbisonicSource* nocapture readonly %this, i32 %nOrder, float %fWeight) unnamed_addr #11 align 2 !dbg !4379 {
entry:
  call void @llvm.dbg.value(metadata %class.CAmbisonicSource* %this, metadata !4381, metadata !DIExpression()), !dbg !4384
  call void @llvm.dbg.value(metadata i32 %nOrder, metadata !4382, metadata !DIExpression()), !dbg !4384
  call void @llvm.dbg.value(metadata float %fWeight, metadata !4383, metadata !DIExpression()), !dbg !4384
  %conv = zext i32 %nOrder to i64, !dbg !4385
  call void @llvm.dbg.value(metadata %class.CAmbisonicSource* %this, metadata !3247, metadata !DIExpression(DW_OP_plus_uconst, 48, DW_OP_stack_value)), !dbg !4386
  call void @llvm.dbg.value(metadata i64 %conv, metadata !3250, metadata !DIExpression()), !dbg !4386
  %_M_start.i = getelementptr inbounds %class.CAmbisonicSource, %class.CAmbisonicSource* %this, i64 0, i32 2, i32 0, i32 0, i32 0, !dbg !4388
  %0 = load float*, float** %_M_start.i, align 8, !dbg !4388, !tbaa !3172
  %add.ptr.i = getelementptr inbounds float, float* %0, i64 %conv, !dbg !4389
  store float %fWeight, float* %add.ptr.i, align 4, !dbg !4390, !tbaa !3471
  ret void, !dbg !4391
}

; Function Attrs: nofree norecurse nounwind uwtable
define void @_ZN16CAmbisonicSource17SetOrderWeightAllEf(%class.CAmbisonicSource* nocapture readonly %this, float %fWeight) unnamed_addr #11 align 2 !dbg !4392 {
entry:
  call void @llvm.dbg.value(metadata %class.CAmbisonicSource* %this, metadata !4394, metadata !DIExpression()), !dbg !4398
  call void @llvm.dbg.value(metadata float %fWeight, metadata !4395, metadata !DIExpression()), !dbg !4398
  call void @llvm.dbg.value(metadata i32 0, metadata !4396, metadata !DIExpression()), !dbg !4399
  %0 = getelementptr inbounds %class.CAmbisonicSource, %class.CAmbisonicSource* %this, i64 0, i32 0, i32 1, !dbg !4400
  %1 = load i32, i32* %0, align 8, !dbg !4400, !tbaa !3052
  %cmp6 = icmp eq i32 %1, -1, !dbg !4402
  br i1 %cmp6, label %for.cond.cleanup, label %for.body.lr.ph, !dbg !4403

for.body.lr.ph:                                   ; preds = %entry
  %_M_start.i = getelementptr inbounds %class.CAmbisonicSource, %class.CAmbisonicSource* %this, i64 0, i32 2, i32 0, i32 0, i32 0, !dbg !4404
  %2 = load float*, float** %_M_start.i, align 8, !dbg !4404, !tbaa !3172
  %add = add nuw i32 %1, 1, !dbg !4407
  %3 = zext i32 %add to i64, !dbg !4403
  %4 = icmp ugt i64 %3, 1, !dbg !4403
  %umax = select i1 %4, i64 %3, i64 1, !dbg !4403
  %min.iters.check = icmp ult i64 %umax, 8, !dbg !4403
  br i1 %min.iters.check, label %for.body.preheader, label %vector.ph, !dbg !4403

for.body.preheader:                               ; preds = %middle.block, %for.body.lr.ph
  %indvars.iv.ph = phi i64 [ 0, %for.body.lr.ph ], [ %n.vec, %middle.block ]
  br label %for.body, !dbg !4403

vector.ph:                                        ; preds = %for.body.lr.ph
  %n.vec = and i64 %umax, 4294967288, !dbg !4403
  %broadcast.splatinsert9 = insertelement <4 x float> undef, float %fWeight, i32 0, !dbg !4403
  %broadcast.splat10 = shufflevector <4 x float> %broadcast.splatinsert9, <4 x float> undef, <4 x i32> zeroinitializer, !dbg !4403
  %broadcast.splatinsert11 = insertelement <4 x float> undef, float %fWeight, i32 0, !dbg !4403
  %broadcast.splat12 = shufflevector <4 x float> %broadcast.splatinsert11, <4 x float> undef, <4 x i32> zeroinitializer, !dbg !4403
  %5 = add nsw i64 %n.vec, -8, !dbg !4403
  %6 = lshr exact i64 %5, 3, !dbg !4403
  %7 = add nuw nsw i64 %6, 1, !dbg !4403
  %xtraiter = and i64 %7, 7, !dbg !4403
  %8 = icmp ult i64 %5, 56, !dbg !4403
  br i1 %8, label %middle.block.unr-lcssa, label %vector.ph.new, !dbg !4403

vector.ph.new:                                    ; preds = %vector.ph
  %unroll_iter = sub nsw i64 %7, %xtraiter, !dbg !4403
  br label %vector.body, !dbg !4403

vector.body:                                      ; preds = %vector.body, %vector.ph.new
  %index = phi i64 [ 0, %vector.ph.new ], [ %index.next.7, %vector.body ], !dbg !4408
  %niter = phi i64 [ %unroll_iter, %vector.ph.new ], [ %niter.nsub.7, %vector.body ]
  %9 = getelementptr inbounds float, float* %2, i64 %index, !dbg !4409
  %10 = bitcast float* %9 to <4 x float>*, !dbg !4410
  store <4 x float> %broadcast.splat10, <4 x float>* %10, align 4, !dbg !4410, !tbaa !3471
  %11 = getelementptr inbounds float, float* %9, i64 4, !dbg !4410
  %12 = bitcast float* %11 to <4 x float>*, !dbg !4410
  store <4 x float> %broadcast.splat12, <4 x float>* %12, align 4, !dbg !4410, !tbaa !3471
  %index.next = or i64 %index, 8, !dbg !4408
  %13 = getelementptr inbounds float, float* %2, i64 %index.next, !dbg !4409
  %14 = bitcast float* %13 to <4 x float>*, !dbg !4410
  store <4 x float> %broadcast.splat10, <4 x float>* %14, align 4, !dbg !4410, !tbaa !3471
  %15 = getelementptr inbounds float, float* %13, i64 4, !dbg !4410
  %16 = bitcast float* %15 to <4 x float>*, !dbg !4410
  store <4 x float> %broadcast.splat12, <4 x float>* %16, align 4, !dbg !4410, !tbaa !3471
  %index.next.1 = or i64 %index, 16, !dbg !4408
  %17 = getelementptr inbounds float, float* %2, i64 %index.next.1, !dbg !4409
  %18 = bitcast float* %17 to <4 x float>*, !dbg !4410
  store <4 x float> %broadcast.splat10, <4 x float>* %18, align 4, !dbg !4410, !tbaa !3471
  %19 = getelementptr inbounds float, float* %17, i64 4, !dbg !4410
  %20 = bitcast float* %19 to <4 x float>*, !dbg !4410
  store <4 x float> %broadcast.splat12, <4 x float>* %20, align 4, !dbg !4410, !tbaa !3471
  %index.next.2 = or i64 %index, 24, !dbg !4408
  %21 = getelementptr inbounds float, float* %2, i64 %index.next.2, !dbg !4409
  %22 = bitcast float* %21 to <4 x float>*, !dbg !4410
  store <4 x float> %broadcast.splat10, <4 x float>* %22, align 4, !dbg !4410, !tbaa !3471
  %23 = getelementptr inbounds float, float* %21, i64 4, !dbg !4410
  %24 = bitcast float* %23 to <4 x float>*, !dbg !4410
  store <4 x float> %broadcast.splat12, <4 x float>* %24, align 4, !dbg !4410, !tbaa !3471
  %index.next.3 = or i64 %index, 32, !dbg !4408
  %25 = getelementptr inbounds float, float* %2, i64 %index.next.3, !dbg !4409
  %26 = bitcast float* %25 to <4 x float>*, !dbg !4410
  store <4 x float> %broadcast.splat10, <4 x float>* %26, align 4, !dbg !4410, !tbaa !3471
  %27 = getelementptr inbounds float, float* %25, i64 4, !dbg !4410
  %28 = bitcast float* %27 to <4 x float>*, !dbg !4410
  store <4 x float> %broadcast.splat12, <4 x float>* %28, align 4, !dbg !4410, !tbaa !3471
  %index.next.4 = or i64 %index, 40, !dbg !4408
  %29 = getelementptr inbounds float, float* %2, i64 %index.next.4, !dbg !4409
  %30 = bitcast float* %29 to <4 x float>*, !dbg !4410
  store <4 x float> %broadcast.splat10, <4 x float>* %30, align 4, !dbg !4410, !tbaa !3471
  %31 = getelementptr inbounds float, float* %29, i64 4, !dbg !4410
  %32 = bitcast float* %31 to <4 x float>*, !dbg !4410
  store <4 x float> %broadcast.splat12, <4 x float>* %32, align 4, !dbg !4410, !tbaa !3471
  %index.next.5 = or i64 %index, 48, !dbg !4408
  %33 = getelementptr inbounds float, float* %2, i64 %index.next.5, !dbg !4409
  %34 = bitcast float* %33 to <4 x float>*, !dbg !4410
  store <4 x float> %broadcast.splat10, <4 x float>* %34, align 4, !dbg !4410, !tbaa !3471
  %35 = getelementptr inbounds float, float* %33, i64 4, !dbg !4410
  %36 = bitcast float* %35 to <4 x float>*, !dbg !4410
  store <4 x float> %broadcast.splat12, <4 x float>* %36, align 4, !dbg !4410, !tbaa !3471
  %index.next.6 = or i64 %index, 56, !dbg !4408
  %37 = getelementptr inbounds float, float* %2, i64 %index.next.6, !dbg !4409
  %38 = bitcast float* %37 to <4 x float>*, !dbg !4410
  store <4 x float> %broadcast.splat10, <4 x float>* %38, align 4, !dbg !4410, !tbaa !3471
  %39 = getelementptr inbounds float, float* %37, i64 4, !dbg !4410
  %40 = bitcast float* %39 to <4 x float>*, !dbg !4410
  store <4 x float> %broadcast.splat12, <4 x float>* %40, align 4, !dbg !4410, !tbaa !3471
  %index.next.7 = add i64 %index, 64, !dbg !4408
  %niter.nsub.7 = add i64 %niter, -8, !dbg !4408
  %niter.ncmp.7 = icmp eq i64 %niter.nsub.7, 0, !dbg !4408
  br i1 %niter.ncmp.7, label %middle.block.unr-lcssa, label %vector.body, !dbg !4408, !llvm.loop !4411

middle.block.unr-lcssa:                           ; preds = %vector.body, %vector.ph
  %index.unr = phi i64 [ 0, %vector.ph ], [ %index.next.7, %vector.body ]
  %lcmp.mod = icmp eq i64 %xtraiter, 0, !dbg !4408
  br i1 %lcmp.mod, label %middle.block, label %vector.body.epil, !dbg !4408

vector.body.epil:                                 ; preds = %vector.body.epil, %middle.block.unr-lcssa
  %index.epil = phi i64 [ %index.next.epil, %vector.body.epil ], [ %index.unr, %middle.block.unr-lcssa ], !dbg !4408
  %epil.iter = phi i64 [ %epil.iter.sub, %vector.body.epil ], [ %xtraiter, %middle.block.unr-lcssa ]
  %41 = getelementptr inbounds float, float* %2, i64 %index.epil, !dbg !4409
  %42 = bitcast float* %41 to <4 x float>*, !dbg !4410
  store <4 x float> %broadcast.splat10, <4 x float>* %42, align 4, !dbg !4410, !tbaa !3471
  %43 = getelementptr inbounds float, float* %41, i64 4, !dbg !4410
  %44 = bitcast float* %43 to <4 x float>*, !dbg !4410
  store <4 x float> %broadcast.splat12, <4 x float>* %44, align 4, !dbg !4410, !tbaa !3471
  %index.next.epil = add i64 %index.epil, 8, !dbg !4408
  %epil.iter.sub = add i64 %epil.iter, -1, !dbg !4408
  %epil.iter.cmp = icmp eq i64 %epil.iter.sub, 0, !dbg !4408
  br i1 %epil.iter.cmp, label %middle.block, label %vector.body.epil, !dbg !4408, !llvm.loop !4413

middle.block:                                     ; preds = %vector.body.epil, %middle.block.unr-lcssa
  %cmp.n = icmp eq i64 %umax, %n.vec, !dbg !4403
  br i1 %cmp.n, label %for.cond.cleanup, label %for.body.preheader, !dbg !4403

for.cond.cleanup:                                 ; preds = %for.body, %middle.block, %entry
  ret void, !dbg !4414

for.body:                                         ; preds = %for.body, %for.body.preheader
  %indvars.iv = phi i64 [ %indvars.iv.next, %for.body ], [ %indvars.iv.ph, %for.body.preheader ]
  call void @llvm.dbg.value(metadata i64 %indvars.iv, metadata !4396, metadata !DIExpression()), !dbg !4399
  call void @llvm.dbg.value(metadata %class.CAmbisonicSource* %this, metadata !3247, metadata !DIExpression(DW_OP_plus_uconst, 48, DW_OP_stack_value)), !dbg !4404
  call void @llvm.dbg.value(metadata i64 %indvars.iv, metadata !3250, metadata !DIExpression()), !dbg !4404
  %add.ptr.i = getelementptr inbounds float, float* %2, i64 %indvars.iv, !dbg !4409
  store float %fWeight, float* %add.ptr.i, align 4, !dbg !4410, !tbaa !3471
  %indvars.iv.next = add nuw nsw i64 %indvars.iv, 1, !dbg !4408
  call void @llvm.dbg.value(metadata i32 undef, metadata !4396, metadata !DIExpression(DW_OP_plus_uconst, 1, DW_OP_stack_value)), !dbg !4399
  %cmp = icmp ult i64 %indvars.iv.next, %3, !dbg !4402
  br i1 %cmp, label %for.body, label %for.cond.cleanup, !dbg !4403, !llvm.loop !4415
}

; Function Attrs: nofree norecurse nounwind uwtable
define void @_ZN16CAmbisonicSource14SetCoefficientEjf(%class.CAmbisonicSource* nocapture readonly %this, i32 %nChannel, float %fCoeff) unnamed_addr #11 align 2 !dbg !4417 {
entry:
  call void @llvm.dbg.value(metadata %class.CAmbisonicSource* %this, metadata !4419, metadata !DIExpression()), !dbg !4422
  call void @llvm.dbg.value(metadata i32 %nChannel, metadata !4420, metadata !DIExpression()), !dbg !4422
  call void @llvm.dbg.value(metadata float %fCoeff, metadata !4421, metadata !DIExpression()), !dbg !4422
  %conv = zext i32 %nChannel to i64, !dbg !4423
  call void @llvm.dbg.value(metadata %class.CAmbisonicSource* %this, metadata !3247, metadata !DIExpression(DW_OP_plus_uconst, 24, DW_OP_stack_value)), !dbg !4424
  call void @llvm.dbg.value(metadata i64 %conv, metadata !3250, metadata !DIExpression()), !dbg !4424
  %_M_start.i = getelementptr inbounds %class.CAmbisonicSource, %class.CAmbisonicSource* %this, i64 0, i32 1, i32 0, i32 0, i32 0, !dbg !4426
  %0 = load float*, float** %_M_start.i, align 8, !dbg !4426, !tbaa !3172
  %add.ptr.i = getelementptr inbounds float, float* %0, i64 %conv, !dbg !4427
  store float %fCoeff, float* %add.ptr.i, align 4, !dbg !4428, !tbaa !3471
  ret void, !dbg !4429
}

; Function Attrs: norecurse nounwind readonly uwtable
define float @_ZN16CAmbisonicSource14GetOrderWeightEj(%class.CAmbisonicSource* nocapture readonly %this, i32 %nOrder) unnamed_addr #5 align 2 !dbg !4430 {
entry:
  call void @llvm.dbg.value(metadata %class.CAmbisonicSource* %this, metadata !4432, metadata !DIExpression()), !dbg !4434
  call void @llvm.dbg.value(metadata i32 %nOrder, metadata !4433, metadata !DIExpression()), !dbg !4434
  %conv = zext i32 %nOrder to i64, !dbg !4435
  call void @llvm.dbg.value(metadata %class.CAmbisonicSource* %this, metadata !3247, metadata !DIExpression(DW_OP_plus_uconst, 48, DW_OP_stack_value)), !dbg !4436
  call void @llvm.dbg.value(metadata i64 %conv, metadata !3250, metadata !DIExpression()), !dbg !4436
  %_M_start.i = getelementptr inbounds %class.CAmbisonicSource, %class.CAmbisonicSource* %this, i64 0, i32 2, i32 0, i32 0, i32 0, !dbg !4438
  %0 = load float*, float** %_M_start.i, align 8, !dbg !4438, !tbaa !3172
  %add.ptr.i = getelementptr inbounds float, float* %0, i64 %conv, !dbg !4439
  %1 = load float, float* %add.ptr.i, align 4, !dbg !4440, !tbaa !3471
  ret float %1, !dbg !4441
}

; Function Attrs: norecurse nounwind readonly uwtable
define float @_ZN16CAmbisonicSource14GetCoefficientEj(%class.CAmbisonicSource* nocapture readonly %this, i32 %nChannel) unnamed_addr #5 align 2 !dbg !4442 {
entry:
  call void @llvm.dbg.value(metadata %class.CAmbisonicSource* %this, metadata !4444, metadata !DIExpression()), !dbg !4446
  call void @llvm.dbg.value(metadata i32 %nChannel, metadata !4445, metadata !DIExpression()), !dbg !4446
  %conv = zext i32 %nChannel to i64, !dbg !4447
  call void @llvm.dbg.value(metadata %class.CAmbisonicSource* %this, metadata !3247, metadata !DIExpression(DW_OP_plus_uconst, 24, DW_OP_stack_value)), !dbg !4448
  call void @llvm.dbg.value(metadata i64 %conv, metadata !3250, metadata !DIExpression()), !dbg !4448
  %_M_start.i = getelementptr inbounds %class.CAmbisonicSource, %class.CAmbisonicSource* %this, i64 0, i32 1, i32 0, i32 0, i32 0, !dbg !4450
  %0 = load float*, float** %_M_start.i, align 8, !dbg !4450, !tbaa !3172
  %add.ptr.i = getelementptr inbounds float, float* %0, i64 %conv, !dbg !4451
  %1 = load float, float* %add.ptr.i, align 4, !dbg !4452, !tbaa !3471
  ret float %1, !dbg !4453
}

; Function Attrs: nofree norecurse nounwind uwtable writeonly
define void @_ZN16CAmbisonicSource7SetGainEf(%class.CAmbisonicSource* nocapture %this, float %fGain) unnamed_addr #3 align 2 !dbg !4454 {
entry:
  call void @llvm.dbg.value(metadata %class.CAmbisonicSource* %this, metadata !4456, metadata !DIExpression()), !dbg !4458
  call void @llvm.dbg.value(metadata float %fGain, metadata !4457, metadata !DIExpression()), !dbg !4458
  %m_fGain = getelementptr inbounds %class.CAmbisonicSource, %class.CAmbisonicSource* %this, i64 0, i32 4, !dbg !4459
  store float %fGain, float* %m_fGain, align 4, !dbg !4460, !tbaa !3920
  ret void, !dbg !4461
}

; Function Attrs: norecurse nounwind readonly uwtable
define float @_ZN16CAmbisonicSource7GetGainEv(%class.CAmbisonicSource* nocapture readonly %this) unnamed_addr #5 align 2 !dbg !4462 {
entry:
  call void @llvm.dbg.value(metadata %class.CAmbisonicSource* %this, metadata !4464, metadata !DIExpression()), !dbg !4465
  %m_fGain = getelementptr inbounds %class.CAmbisonicSource, %class.CAmbisonicSource* %this, i64 0, i32 4, !dbg !4466
  %0 = load float, float* %m_fGain, align 4, !dbg !4466, !tbaa !3920
  ret float %0, !dbg !4467
}

; Function Attrs: nounwind uwtable
define void @_ZN17CAmbisonicEncoderC2Ev(%class.CAmbisonicEncoder* nocapture %this) unnamed_addr #7 align 2 personality i32 (...)* @__gxx_personality_v0 !dbg !4468 {
entry:
  call void @llvm.dbg.value(metadata %class.CAmbisonicEncoder* %this, metadata !4470, metadata !DIExpression()), !dbg !4472
  call void @llvm.dbg.value(metadata %class.CAmbisonicEncoder* %this, metadata !3876, metadata !DIExpression()) #24, !dbg !4473
  call void @llvm.dbg.value(metadata %class.CAmbisonicEncoder* %this, metadata !3044, metadata !DIExpression()) #24, !dbg !4475
  %0 = getelementptr inbounds %class.CAmbisonicEncoder, %class.CAmbisonicEncoder* %this, i64 0, i32 0, i32 0, i32 0, !dbg !4477
  %1 = getelementptr inbounds %class.CAmbisonicEncoder, %class.CAmbisonicEncoder* %this, i64 0, i32 0, i32 0, i32 1, !dbg !4478
  store i32 0, i32* %1, align 8, !dbg !4478, !tbaa !3052
  %2 = getelementptr inbounds %class.CAmbisonicEncoder, %class.CAmbisonicEncoder* %this, i64 0, i32 0, i32 0, i32 2, !dbg !4479
  store i8 0, i8* %2, align 4, !dbg !4479, !tbaa !3058
  %3 = getelementptr inbounds %class.CAmbisonicEncoder, %class.CAmbisonicEncoder* %this, i64 0, i32 0, i32 0, i32 4, !dbg !4480
  store i32 0, i32* %3, align 8, !dbg !4480, !tbaa !3060
  %4 = getelementptr inbounds %class.CAmbisonicEncoder, %class.CAmbisonicEncoder* %this, i64 0, i32 0, i32 0, i32 5, !dbg !4481
  store i8 0, i8* %4, align 4, !dbg !4481, !tbaa !3062
  %m_pfCoeff.i = getelementptr inbounds %class.CAmbisonicEncoder, %class.CAmbisonicEncoder* %this, i64 0, i32 0, i32 1, !dbg !4482
  call void @llvm.dbg.value(metadata %"class.std::vector"* %m_pfCoeff.i, metadata !3888, metadata !DIExpression()) #24, !dbg !4483
  call void @llvm.dbg.value(metadata %"class.std::vector"* %m_pfCoeff.i, metadata !3893, metadata !DIExpression()) #24, !dbg !4485
  call void @llvm.dbg.value(metadata %"class.std::vector"* %m_pfCoeff.i, metadata !3899, metadata !DIExpression()) #24, !dbg !4487
  call void @llvm.dbg.value(metadata %class.CAmbisonicEncoder* %this, metadata !3888, metadata !DIExpression(DW_OP_plus_uconst, 48, DW_OP_stack_value)) #24, !dbg !4489
  call void @llvm.dbg.value(metadata %class.CAmbisonicEncoder* %this, metadata !3893, metadata !DIExpression(DW_OP_plus_uconst, 48, DW_OP_stack_value)) #24, !dbg !4491
  call void @llvm.dbg.value(metadata %class.CAmbisonicEncoder* %this, metadata !3899, metadata !DIExpression(DW_OP_plus_uconst, 48, DW_OP_stack_value)) #24, !dbg !4493
  %fDistance.i = getelementptr inbounds %class.CAmbisonicEncoder, %class.CAmbisonicEncoder* %this, i64 0, i32 0, i32 3, i32 2, !dbg !4495
  %5 = bitcast %"class.std::vector"* %m_pfCoeff.i to i8*, !dbg !4496
  tail call void @llvm.memset.p0i8.i64(i8* nonnull align 8 %5, i8 0, i64 56, i1 false) #24, !dbg !4497
  store float 1.000000e+00, float* %fDistance.i, align 8, !dbg !4496, !tbaa !3915
  %m_fGain.i = getelementptr inbounds %class.CAmbisonicEncoder, %class.CAmbisonicEncoder* %this, i64 0, i32 0, i32 4, !dbg !4498
  store float 1.000000e+00, float* %m_fGain.i, align 4, !dbg !4499, !tbaa !3920
  store i32 (...)** bitcast (i8** getelementptr inbounds ({ [16 x i8*] }, { [16 x i8*] }* @_ZTV17CAmbisonicEncoder, i64 0, inrange i32 0, i64 2) to i32 (...)**), i32 (...)*** %0, align 8, !dbg !4500, !tbaa !3048
  ret void, !dbg !4501
}

; Function Attrs: nounwind uwtable
define void @_ZN17CAmbisonicEncoderD2Ev(%class.CAmbisonicEncoder* nocapture %this) unnamed_addr #7 align 2 personality i32 (...)* @__gxx_personality_v0 !dbg !4502 {
entry:
  call void @llvm.dbg.value(metadata %class.CAmbisonicEncoder* %this, metadata !4504, metadata !DIExpression()), !dbg !4505
  call void @llvm.dbg.value(metadata %class.CAmbisonicEncoder* %this, metadata !4506, metadata !DIExpression()) #24, !dbg !4510
  %0 = getelementptr inbounds %class.CAmbisonicEncoder, %class.CAmbisonicEncoder* %this, i64 0, i32 0, i32 0, i32 0, !dbg !4513
  store i32 (...)** bitcast (i8** getelementptr inbounds ({ [16 x i8*] }, { [16 x i8*] }* @_ZTV16CAmbisonicSource, i64 0, inrange i32 0, i64 2) to i32 (...)**), i32 (...)*** %0, align 8, !dbg !4513, !tbaa !3048
  call void @llvm.dbg.value(metadata %class.CAmbisonicEncoder* %this, metadata !4514, metadata !DIExpression(DW_OP_plus_uconst, 48, DW_OP_stack_value)) #24, !dbg !4517
  call void @llvm.dbg.value(metadata %class.CAmbisonicEncoder* %this, metadata !4520, metadata !DIExpression(DW_OP_plus_uconst, 48, DW_OP_stack_value)) #24, !dbg !4523
  %_M_start.i.i.i = getelementptr inbounds %class.CAmbisonicEncoder, %class.CAmbisonicEncoder* %this, i64 0, i32 0, i32 2, i32 0, i32 0, i32 0, !dbg !4526
  %1 = load float*, float** %_M_start.i.i.i, align 8, !dbg !4526, !tbaa !3172
  call void @llvm.dbg.value(metadata %class.CAmbisonicEncoder* %this, metadata !4528, metadata !DIExpression(DW_OP_plus_uconst, 48, DW_OP_stack_value)) #24, !dbg !4533
  call void @llvm.dbg.value(metadata float* %1, metadata !4531, metadata !DIExpression()) #24, !dbg !4533
  call void @llvm.dbg.value(metadata i64 undef, metadata !4532, metadata !DIExpression(DW_OP_constu, 2, DW_OP_shra, DW_OP_stack_value)) #24, !dbg !4533
  %tobool.i.i.i.i = icmp eq float* %1, null, !dbg !4535
  br i1 %tobool.i.i.i.i, label %_ZNSt6vectorIfSaIfEED2Ev.exit.i, label %if.then.i.i.i.i, !dbg !4537

if.then.i.i.i.i:                                  ; preds = %entry
  call void @llvm.dbg.value(metadata %class.CAmbisonicEncoder* %this, metadata !4538, metadata !DIExpression(DW_OP_plus_uconst, 48, DW_OP_stack_value)) #24, !dbg !4543
  call void @llvm.dbg.value(metadata float* %1, metadata !4541, metadata !DIExpression()) #24, !dbg !4543
  call void @llvm.dbg.value(metadata i64 undef, metadata !4542, metadata !DIExpression(DW_OP_constu, 2, DW_OP_shra, DW_OP_stack_value)) #24, !dbg !4543
  call void @llvm.dbg.value(metadata %class.CAmbisonicEncoder* %this, metadata !4545, metadata !DIExpression(DW_OP_plus_uconst, 48, DW_OP_stack_value)) #24, !dbg !4551
  call void @llvm.dbg.value(metadata float* %1, metadata !4548, metadata !DIExpression()) #24, !dbg !4551
  call void @llvm.dbg.value(metadata i64 undef, metadata !4549, metadata !DIExpression(DW_OP_constu, 2, DW_OP_shra, DW_OP_stack_value)) #24, !dbg !4551
  %2 = bitcast float* %1 to i8*, !dbg !4553
  tail call void @_ZdlPv(i8* nonnull %2) #24, !dbg !4554
  br label %_ZNSt6vectorIfSaIfEED2Ev.exit.i, !dbg !4555

_ZNSt6vectorIfSaIfEED2Ev.exit.i:                  ; preds = %if.then.i.i.i.i, %entry
  call void @llvm.dbg.value(metadata %class.CAmbisonicEncoder* %this, metadata !4514, metadata !DIExpression(DW_OP_plus_uconst, 24, DW_OP_stack_value)) #24, !dbg !4556
  call void @llvm.dbg.value(metadata %class.CAmbisonicEncoder* %this, metadata !4520, metadata !DIExpression(DW_OP_plus_uconst, 24, DW_OP_stack_value)) #24, !dbg !4558
  %_M_start.i.i2.i = getelementptr inbounds %class.CAmbisonicEncoder, %class.CAmbisonicEncoder* %this, i64 0, i32 0, i32 1, i32 0, i32 0, i32 0, !dbg !4560
  %3 = load float*, float** %_M_start.i.i2.i, align 8, !dbg !4560, !tbaa !3172
  call void @llvm.dbg.value(metadata %class.CAmbisonicEncoder* %this, metadata !4528, metadata !DIExpression(DW_OP_plus_uconst, 24, DW_OP_stack_value)) #24, !dbg !4561
  call void @llvm.dbg.value(metadata float* %3, metadata !4531, metadata !DIExpression()) #24, !dbg !4561
  call void @llvm.dbg.value(metadata i64 undef, metadata !4532, metadata !DIExpression(DW_OP_constu, 2, DW_OP_shra, DW_OP_stack_value)) #24, !dbg !4561
  %tobool.i.i.i3.i = icmp eq float* %3, null, !dbg !4563
  br i1 %tobool.i.i.i3.i, label %_ZN16CAmbisonicSourceD2Ev.exit, label %if.then.i.i.i4.i, !dbg !4564

if.then.i.i.i4.i:                                 ; preds = %_ZNSt6vectorIfSaIfEED2Ev.exit.i
  call void @llvm.dbg.value(metadata %class.CAmbisonicEncoder* %this, metadata !4538, metadata !DIExpression(DW_OP_plus_uconst, 24, DW_OP_stack_value)) #24, !dbg !4565
  call void @llvm.dbg.value(metadata float* %3, metadata !4541, metadata !DIExpression()) #24, !dbg !4565
  call void @llvm.dbg.value(metadata i64 undef, metadata !4542, metadata !DIExpression(DW_OP_constu, 2, DW_OP_shra, DW_OP_stack_value)) #24, !dbg !4565
  call void @llvm.dbg.value(metadata %class.CAmbisonicEncoder* %this, metadata !4545, metadata !DIExpression(DW_OP_plus_uconst, 24, DW_OP_stack_value)) #24, !dbg !4567
  call void @llvm.dbg.value(metadata float* %3, metadata !4548, metadata !DIExpression()) #24, !dbg !4567
  call void @llvm.dbg.value(metadata i64 undef, metadata !4549, metadata !DIExpression(DW_OP_constu, 2, DW_OP_shra, DW_OP_stack_value)) #24, !dbg !4567
  %4 = bitcast float* %3 to i8*, !dbg !4569
  tail call void @_ZdlPv(i8* nonnull %4) #24, !dbg !4570
  br label %_ZN16CAmbisonicSourceD2Ev.exit, !dbg !4571

_ZN16CAmbisonicSourceD2Ev.exit:                   ; preds = %if.then.i.i.i4.i, %_ZNSt6vectorIfSaIfEED2Ev.exit.i
  ret void, !dbg !4572
}

; Function Attrs: nounwind uwtable
define void @_ZN17CAmbisonicEncoderD0Ev(%class.CAmbisonicEncoder* %this) unnamed_addr #7 align 2 personality i32 (...)* @__gxx_personality_v0 !dbg !4573 {
entry:
  call void @llvm.dbg.value(metadata %class.CAmbisonicEncoder* %this, metadata !4575, metadata !DIExpression()), !dbg !4576
  call void @llvm.dbg.value(metadata %class.CAmbisonicEncoder* %this, metadata !4504, metadata !DIExpression()) #24, !dbg !4577
  call void @llvm.dbg.value(metadata %class.CAmbisonicEncoder* %this, metadata !4506, metadata !DIExpression()) #24, !dbg !4579
  %0 = getelementptr inbounds %class.CAmbisonicEncoder, %class.CAmbisonicEncoder* %this, i64 0, i32 0, i32 0, i32 0, !dbg !4581
  store i32 (...)** bitcast (i8** getelementptr inbounds ({ [16 x i8*] }, { [16 x i8*] }* @_ZTV16CAmbisonicSource, i64 0, inrange i32 0, i64 2) to i32 (...)**), i32 (...)*** %0, align 8, !dbg !4581, !tbaa !3048
  call void @llvm.dbg.value(metadata %class.CAmbisonicEncoder* %this, metadata !4514, metadata !DIExpression(DW_OP_plus_uconst, 48, DW_OP_stack_value)) #24, !dbg !4582
  call void @llvm.dbg.value(metadata %class.CAmbisonicEncoder* %this, metadata !4520, metadata !DIExpression(DW_OP_plus_uconst, 48, DW_OP_stack_value)) #24, !dbg !4584
  %_M_start.i.i.i.i = getelementptr inbounds %class.CAmbisonicEncoder, %class.CAmbisonicEncoder* %this, i64 0, i32 0, i32 2, i32 0, i32 0, i32 0, !dbg !4586
  %1 = load float*, float** %_M_start.i.i.i.i, align 8, !dbg !4586, !tbaa !3172
  call void @llvm.dbg.value(metadata %class.CAmbisonicEncoder* %this, metadata !4528, metadata !DIExpression(DW_OP_plus_uconst, 48, DW_OP_stack_value)) #24, !dbg !4587
  call void @llvm.dbg.value(metadata float* %1, metadata !4531, metadata !DIExpression()) #24, !dbg !4587
  call void @llvm.dbg.value(metadata i64 undef, metadata !4532, metadata !DIExpression(DW_OP_constu, 2, DW_OP_shra, DW_OP_stack_value)) #24, !dbg !4587
  %tobool.i.i.i.i.i = icmp eq float* %1, null, !dbg !4589
  br i1 %tobool.i.i.i.i.i, label %_ZNSt6vectorIfSaIfEED2Ev.exit.i.i, label %if.then.i.i.i.i.i, !dbg !4590

if.then.i.i.i.i.i:                                ; preds = %entry
  call void @llvm.dbg.value(metadata %class.CAmbisonicEncoder* %this, metadata !4538, metadata !DIExpression(DW_OP_plus_uconst, 48, DW_OP_stack_value)) #24, !dbg !4591
  call void @llvm.dbg.value(metadata float* %1, metadata !4541, metadata !DIExpression()) #24, !dbg !4591
  call void @llvm.dbg.value(metadata i64 undef, metadata !4542, metadata !DIExpression(DW_OP_constu, 2, DW_OP_shra, DW_OP_stack_value)) #24, !dbg !4591
  call void @llvm.dbg.value(metadata %class.CAmbisonicEncoder* %this, metadata !4545, metadata !DIExpression(DW_OP_plus_uconst, 48, DW_OP_stack_value)) #24, !dbg !4593
  call void @llvm.dbg.value(metadata float* %1, metadata !4548, metadata !DIExpression()) #24, !dbg !4593
  call void @llvm.dbg.value(metadata i64 undef, metadata !4549, metadata !DIExpression(DW_OP_constu, 2, DW_OP_shra, DW_OP_stack_value)) #24, !dbg !4593
  %2 = bitcast float* %1 to i8*, !dbg !4595
  tail call void @_ZdlPv(i8* nonnull %2) #24, !dbg !4596
  br label %_ZNSt6vectorIfSaIfEED2Ev.exit.i.i, !dbg !4597

_ZNSt6vectorIfSaIfEED2Ev.exit.i.i:                ; preds = %if.then.i.i.i.i.i, %entry
  call void @llvm.dbg.value(metadata %class.CAmbisonicEncoder* %this, metadata !4514, metadata !DIExpression(DW_OP_plus_uconst, 24, DW_OP_stack_value)) #24, !dbg !4598
  call void @llvm.dbg.value(metadata %class.CAmbisonicEncoder* %this, metadata !4520, metadata !DIExpression(DW_OP_plus_uconst, 24, DW_OP_stack_value)) #24, !dbg !4600
  %_M_start.i.i2.i.i = getelementptr inbounds %class.CAmbisonicEncoder, %class.CAmbisonicEncoder* %this, i64 0, i32 0, i32 1, i32 0, i32 0, i32 0, !dbg !4602
  %3 = load float*, float** %_M_start.i.i2.i.i, align 8, !dbg !4602, !tbaa !3172
  call void @llvm.dbg.value(metadata %class.CAmbisonicEncoder* %this, metadata !4528, metadata !DIExpression(DW_OP_plus_uconst, 24, DW_OP_stack_value)) #24, !dbg !4603
  call void @llvm.dbg.value(metadata float* %3, metadata !4531, metadata !DIExpression()) #24, !dbg !4603
  call void @llvm.dbg.value(metadata i64 undef, metadata !4532, metadata !DIExpression(DW_OP_constu, 2, DW_OP_shra, DW_OP_stack_value)) #24, !dbg !4603
  %tobool.i.i.i3.i.i = icmp eq float* %3, null, !dbg !4605
  br i1 %tobool.i.i.i3.i.i, label %_ZN17CAmbisonicEncoderD2Ev.exit, label %if.then.i.i.i4.i.i, !dbg !4606

if.then.i.i.i4.i.i:                               ; preds = %_ZNSt6vectorIfSaIfEED2Ev.exit.i.i
  call void @llvm.dbg.value(metadata %class.CAmbisonicEncoder* %this, metadata !4538, metadata !DIExpression(DW_OP_plus_uconst, 24, DW_OP_stack_value)) #24, !dbg !4607
  call void @llvm.dbg.value(metadata float* %3, metadata !4541, metadata !DIExpression()) #24, !dbg !4607
  call void @llvm.dbg.value(metadata i64 undef, metadata !4542, metadata !DIExpression(DW_OP_constu, 2, DW_OP_shra, DW_OP_stack_value)) #24, !dbg !4607
  call void @llvm.dbg.value(metadata %class.CAmbisonicEncoder* %this, metadata !4545, metadata !DIExpression(DW_OP_plus_uconst, 24, DW_OP_stack_value)) #24, !dbg !4609
  call void @llvm.dbg.value(metadata float* %3, metadata !4548, metadata !DIExpression()) #24, !dbg !4609
  call void @llvm.dbg.value(metadata i64 undef, metadata !4549, metadata !DIExpression(DW_OP_constu, 2, DW_OP_shra, DW_OP_stack_value)) #24, !dbg !4609
  %4 = bitcast float* %3 to i8*, !dbg !4611
  tail call void @_ZdlPv(i8* nonnull %4) #24, !dbg !4612
  br label %_ZN17CAmbisonicEncoderD2Ev.exit, !dbg !4613

_ZN17CAmbisonicEncoderD2Ev.exit:                  ; preds = %if.then.i.i.i4.i.i, %_ZNSt6vectorIfSaIfEED2Ev.exit.i.i
  %5 = bitcast %class.CAmbisonicEncoder* %this to i8*, !dbg !4614
  tail call void @_ZdlPv(i8* %5) #26, !dbg !4614
  ret void, !dbg !4615
}

; Function Attrs: nobuiltin nounwind
declare void @_ZdlPv(i8*) local_unnamed_addr #15

; Function Attrs: uwtable
define zeroext i1 @_ZN17CAmbisonicEncoder9ConfigureEjbj(%class.CAmbisonicEncoder* %this, i32 %nOrder, i1 zeroext %b3D, i32 %nMisc) unnamed_addr #6 align 2 personality i32 (...)* @__gxx_personality_v0 !dbg !4616 {
entry:
  %ref.tmp.i = alloca float, align 4
  %ref.tmp5.i = alloca float, align 4
  call void @llvm.dbg.value(metadata %class.CAmbisonicEncoder* %this, metadata !4618, metadata !DIExpression()), !dbg !4623
  call void @llvm.dbg.value(metadata i32 %nOrder, metadata !4619, metadata !DIExpression()), !dbg !4623
  call void @llvm.dbg.value(metadata i1 %b3D, metadata !4620, metadata !DIExpression()), !dbg !4623
  call void @llvm.dbg.value(metadata i32 undef, metadata !4621, metadata !DIExpression()), !dbg !4623
  call void @llvm.dbg.value(metadata %class.CAmbisonicEncoder* %this, metadata !3924, metadata !DIExpression()), !dbg !4624
  call void @llvm.dbg.value(metadata i32 %nOrder, metadata !3925, metadata !DIExpression()), !dbg !4624
  call void @llvm.dbg.value(metadata i1 %b3D, metadata !3926, metadata !DIExpression()), !dbg !4624
  call void @llvm.dbg.value(metadata i32 undef, metadata !3927, metadata !DIExpression()), !dbg !4624
  call void @llvm.dbg.value(metadata %class.CAmbisonicEncoder* %this, metadata !3085, metadata !DIExpression()), !dbg !4626
  call void @llvm.dbg.value(metadata i32 %nOrder, metadata !3086, metadata !DIExpression()), !dbg !4626
  %frombool.i.i = zext i1 %b3D to i8
  call void @llvm.dbg.value(metadata i8 %frombool.i.i, metadata !3087, metadata !DIExpression()), !dbg !4626
  call void @llvm.dbg.value(metadata i32 undef, metadata !3088, metadata !DIExpression()), !dbg !4626
  %0 = getelementptr inbounds %class.CAmbisonicEncoder, %class.CAmbisonicEncoder* %this, i64 0, i32 0, i32 0, i32 1, !dbg !4628
  store i32 %nOrder, i32* %0, align 8, !dbg !4629, !tbaa !3052
  %1 = getelementptr inbounds %class.CAmbisonicEncoder, %class.CAmbisonicEncoder* %this, i64 0, i32 0, i32 0, i32 2, !dbg !4630
  store i8 %frombool.i.i, i8* %1, align 4, !dbg !4631, !tbaa !3058
  %call.i.i = tail call i32 @_Z17OrderToComponentsjb(i32 %nOrder, i1 zeroext %b3D), !dbg !4632
  %2 = getelementptr inbounds %class.CAmbisonicEncoder, %class.CAmbisonicEncoder* %this, i64 0, i32 0, i32 0, i32 4, !dbg !4633
  store i32 %call.i.i, i32* %2, align 8, !dbg !4634, !tbaa !3060
  call void @llvm.dbg.value(metadata i8 1, metadata !3928, metadata !DIExpression()), !dbg !4624
  %m_pfCoeff.i = getelementptr inbounds %class.CAmbisonicEncoder, %class.CAmbisonicEncoder* %this, i64 0, i32 0, i32 1, !dbg !4635
  %conv.i = zext i32 %call.i.i to i64, !dbg !4636
  %3 = bitcast float* %ref.tmp.i to i8*, !dbg !4637
  call void @llvm.lifetime.start.p0i8(i64 4, i8* nonnull %3) #24, !dbg !4637
  store float 0.000000e+00, float* %ref.tmp.i, align 4, !dbg !4637, !tbaa !3471
  call void @llvm.dbg.value(metadata %"class.std::vector"* %m_pfCoeff.i, metadata !3942, metadata !DIExpression()), !dbg !4638
  call void @llvm.dbg.value(metadata i64 %conv.i, metadata !3945, metadata !DIExpression()), !dbg !4638
  call void @llvm.dbg.value(metadata float* %ref.tmp.i, metadata !3946, metadata !DIExpression()), !dbg !4638
  call void @llvm.dbg.value(metadata %"class.std::vector"* %m_pfCoeff.i, metadata !3159, metadata !DIExpression()), !dbg !4640
  %_M_finish.i.i.i = getelementptr inbounds %class.CAmbisonicEncoder, %class.CAmbisonicEncoder* %this, i64 0, i32 0, i32 1, i32 0, i32 0, i32 1, !dbg !4642
  %4 = bitcast float** %_M_finish.i.i.i to i64*, !dbg !4642
  %5 = load i64, i64* %4, align 8, !dbg !4642, !tbaa !3167
  %6 = bitcast %"class.std::vector"* %m_pfCoeff.i to i64*, !dbg !4643
  %7 = load i64, i64* %6, align 8, !dbg !4643, !tbaa !3172
  %sub.ptr.sub.i.i.i = sub i64 %5, %7, !dbg !4644
  %sub.ptr.div.i.i.i = ashr exact i64 %sub.ptr.sub.i.i.i, 2, !dbg !4644
  %cmp.i.i = icmp ult i64 %sub.ptr.div.i.i.i, %conv.i, !dbg !4645
  %8 = inttoptr i64 %7 to float*, !dbg !4646
  br i1 %cmp.i.i, label %if.then.i.i, label %if.else.i.i, !dbg !4646

if.then.i.i:                                      ; preds = %entry
  %9 = inttoptr i64 %5 to float*, !dbg !4646
  call void @llvm.dbg.value(metadata %"class.std::vector"* %m_pfCoeff.i, metadata !3159, metadata !DIExpression()), !dbg !4647
  %sub.i.i = sub nsw i64 %conv.i, %sub.ptr.div.i.i.i, !dbg !4649
  call void @llvm.dbg.value(metadata %"class.std::vector"* %m_pfCoeff.i, metadata !3960, metadata !DIExpression()), !dbg !4650
  call void @llvm.dbg.value(metadata i64 %sub.i.i, metadata !3964, metadata !DIExpression()), !dbg !4650
  call void @llvm.dbg.value(metadata float* %ref.tmp.i, metadata !3965, metadata !DIExpression()), !dbg !4650
  call void @llvm.dbg.value(metadata %"class.__gnu_cxx::__normal_iterator.11"* undef, metadata !3963, metadata !DIExpression(DW_OP_deref)), !dbg !4650
  call void @_ZNSt6vectorIfSaIfEE14_M_fill_insertEN9__gnu_cxx17__normal_iteratorIPfS1_EEmRKf(%"class.std::vector"* nonnull %m_pfCoeff.i, float* %9, i64 %sub.i.i, float* nonnull dereferenceable(4) %ref.tmp.i), !dbg !4652
  br label %_ZNSt6vectorIfSaIfEE6resizeEmRKf.exit.i, !dbg !4653

if.else.i.i:                                      ; preds = %entry
  call void @llvm.dbg.value(metadata %"class.std::vector"* %m_pfCoeff.i, metadata !3159, metadata !DIExpression()), !dbg !4654
  %cmp8.i.i = icmp ugt i64 %sub.ptr.div.i.i.i, %conv.i, !dbg !4656
  br i1 %cmp8.i.i, label %if.then9.i.i, label %_ZNSt6vectorIfSaIfEE6resizeEmRKf.exit.i, !dbg !4657

if.then9.i.i:                                     ; preds = %if.else.i.i
  %add.ptr.i.i = getelementptr inbounds float, float* %8, i64 %conv.i, !dbg !4658
  call void @llvm.dbg.value(metadata %"class.std::vector"* %m_pfCoeff.i, metadata !3191, metadata !DIExpression()), !dbg !4659
  call void @llvm.dbg.value(metadata float* %add.ptr.i.i, metadata !3194, metadata !DIExpression()), !dbg !4659
  store float* %add.ptr.i.i, float** %_M_finish.i.i.i, align 8, !dbg !4661, !tbaa !3167
  br label %_ZNSt6vectorIfSaIfEE6resizeEmRKf.exit.i, !dbg !4662

_ZNSt6vectorIfSaIfEE6resizeEmRKf.exit.i:          ; preds = %if.then9.i.i, %if.else.i.i, %if.then.i.i
  call void @llvm.lifetime.end.p0i8(i64 4, i8* nonnull %3) #24, !dbg !4635
  %m_pfOrderWeights.i = getelementptr inbounds %class.CAmbisonicEncoder, %class.CAmbisonicEncoder* %this, i64 0, i32 0, i32 2, !dbg !4663
  %10 = load i32, i32* %0, align 8, !dbg !4664, !tbaa !3052
  %add.i = add i32 %10, 1, !dbg !4665
  %conv4.i = zext i32 %add.i to i64, !dbg !4664
  %11 = bitcast float* %ref.tmp5.i to i8*, !dbg !4666
  call void @llvm.lifetime.start.p0i8(i64 4, i8* nonnull %11) #24, !dbg !4666
  store float 1.000000e+00, float* %ref.tmp5.i, align 4, !dbg !4666, !tbaa !3471
  call void @llvm.dbg.value(metadata %"class.std::vector"* %m_pfOrderWeights.i, metadata !3942, metadata !DIExpression()), !dbg !4667
  call void @llvm.dbg.value(metadata i64 %conv4.i, metadata !3945, metadata !DIExpression()), !dbg !4667
  call void @llvm.dbg.value(metadata float* %ref.tmp5.i, metadata !3946, metadata !DIExpression()), !dbg !4667
  call void @llvm.dbg.value(metadata %"class.std::vector"* %m_pfOrderWeights.i, metadata !3159, metadata !DIExpression()), !dbg !4669
  %_M_finish.i.i6.i = getelementptr inbounds %class.CAmbisonicEncoder, %class.CAmbisonicEncoder* %this, i64 0, i32 0, i32 2, i32 0, i32 0, i32 1, !dbg !4671
  %12 = bitcast float** %_M_finish.i.i6.i to i64*, !dbg !4671
  %13 = load i64, i64* %12, align 8, !dbg !4671, !tbaa !3167
  %14 = bitcast %"class.std::vector"* %m_pfOrderWeights.i to i64*, !dbg !4672
  %15 = load i64, i64* %14, align 8, !dbg !4672, !tbaa !3172
  %sub.ptr.sub.i.i7.i = sub i64 %13, %15, !dbg !4673
  %sub.ptr.div.i.i8.i = ashr exact i64 %sub.ptr.sub.i.i7.i, 2, !dbg !4673
  %cmp.i9.i = icmp ult i64 %sub.ptr.div.i.i8.i, %conv4.i, !dbg !4674
  %16 = inttoptr i64 %15 to float*, !dbg !4675
  br i1 %cmp.i9.i, label %if.then.i11.i, label %if.else.i13.i, !dbg !4675

if.then.i11.i:                                    ; preds = %_ZNSt6vectorIfSaIfEE6resizeEmRKf.exit.i
  %17 = inttoptr i64 %13 to float*, !dbg !4675
  call void @llvm.dbg.value(metadata %"class.std::vector"* %m_pfOrderWeights.i, metadata !3159, metadata !DIExpression()), !dbg !4676
  %sub.i10.i = sub nsw i64 %conv4.i, %sub.ptr.div.i.i8.i, !dbg !4678
  call void @llvm.dbg.value(metadata %"class.std::vector"* %m_pfOrderWeights.i, metadata !3960, metadata !DIExpression()), !dbg !4679
  call void @llvm.dbg.value(metadata i64 %sub.i10.i, metadata !3964, metadata !DIExpression()), !dbg !4679
  call void @llvm.dbg.value(metadata float* %ref.tmp5.i, metadata !3965, metadata !DIExpression()), !dbg !4679
  call void @llvm.dbg.value(metadata %"class.__gnu_cxx::__normal_iterator.11"* undef, metadata !3963, metadata !DIExpression(DW_OP_deref)), !dbg !4679
  call void @_ZNSt6vectorIfSaIfEE14_M_fill_insertEN9__gnu_cxx17__normal_iteratorIPfS1_EEmRKf(%"class.std::vector"* nonnull %m_pfOrderWeights.i, float* %17, i64 %sub.i10.i, float* nonnull dereferenceable(4) %ref.tmp5.i), !dbg !4681
  br label %_ZN16CAmbisonicSource9ConfigureEjbj.exit, !dbg !4682

if.else.i13.i:                                    ; preds = %_ZNSt6vectorIfSaIfEE6resizeEmRKf.exit.i
  call void @llvm.dbg.value(metadata %"class.std::vector"* %m_pfOrderWeights.i, metadata !3159, metadata !DIExpression()), !dbg !4683
  %cmp8.i12.i = icmp ugt i64 %sub.ptr.div.i.i8.i, %conv4.i, !dbg !4685
  br i1 %cmp8.i12.i, label %if.then9.i15.i, label %_ZN16CAmbisonicSource9ConfigureEjbj.exit, !dbg !4686

if.then9.i15.i:                                   ; preds = %if.else.i13.i
  %add.ptr.i14.i = getelementptr inbounds float, float* %16, i64 %conv4.i, !dbg !4687
  call void @llvm.dbg.value(metadata %"class.std::vector"* %m_pfOrderWeights.i, metadata !3191, metadata !DIExpression()), !dbg !4688
  call void @llvm.dbg.value(metadata float* %add.ptr.i14.i, metadata !3194, metadata !DIExpression()), !dbg !4688
  store float* %add.ptr.i14.i, float** %_M_finish.i.i6.i, align 8, !dbg !4690, !tbaa !3167
  br label %_ZN16CAmbisonicSource9ConfigureEjbj.exit, !dbg !4691

_ZN16CAmbisonicSource9ConfigureEjbj.exit:         ; preds = %if.then9.i15.i, %if.else.i13.i, %if.then.i11.i
  call void @llvm.lifetime.end.p0i8(i64 4, i8* nonnull %11) #24, !dbg !4663
  call void @llvm.dbg.value(metadata i8 1, metadata !4622, metadata !DIExpression()), !dbg !4623
  ret i1 true, !dbg !4692
}

; Function Attrs: nofree nounwind uwtable
define void @_ZN17CAmbisonicEncoder7RefreshEv(%class.CAmbisonicEncoder* readonly %this) unnamed_addr #12 align 2 !dbg !4693 {
entry:
  call void @llvm.dbg.value(metadata %class.CAmbisonicEncoder* %this, metadata !4695, metadata !DIExpression()), !dbg !4696
  %0 = getelementptr inbounds %class.CAmbisonicEncoder, %class.CAmbisonicEncoder* %this, i64 0, i32 0, !dbg !4697
  tail call void @_ZN16CAmbisonicSource7RefreshEv(%class.CAmbisonicSource* %0), !dbg !4697
  ret void, !dbg !4698
}

; Function Attrs: nofree norecurse nounwind uwtable
define void @_ZN17CAmbisonicEncoder7ProcessEPfjP8CBFormat(%class.CAmbisonicEncoder* nocapture readonly %this, float* nocapture readonly %pfSrc, i32 %nSamples, %class.CBFormat* nocapture readonly %pfDst) local_unnamed_addr #11 align 2 !dbg !4699 {
entry:
  call void @llvm.dbg.value(metadata %class.CAmbisonicEncoder* %this, metadata !4701, metadata !DIExpression()), !dbg !4707
  call void @llvm.dbg.value(metadata float* %pfSrc, metadata !4702, metadata !DIExpression()), !dbg !4707
  call void @llvm.dbg.value(metadata i32 %nSamples, metadata !4703, metadata !DIExpression()), !dbg !4707
